ARM GAS  /var/folders/sy/x1dkwsgj58j1lmy_hry3vpdm0000gn/T//ccbduBjg.s 			page 1


   1              		.cpu cortex-m7
   2              		.eabi_attribute 28, 1
   3              		.eabi_attribute 20, 1
   4              		.eabi_attribute 21, 1
   5              		.eabi_attribute 23, 3
   6              		.eabi_attribute 24, 1
   7              		.eabi_attribute 25, 1
   8              		.eabi_attribute 26, 1
   9              		.eabi_attribute 30, 2
  10              		.eabi_attribute 34, 1
  11              		.eabi_attribute 18, 4
  12              		.file	"ccsbcs.c"
  13              		.text
  14              		.section	.text.ff_convert,"ax",%progbits
  15              		.align	1
  16              		.p2align 2,,3
  17              		.global	ff_convert
  18              		.arch armv7e-m
  19              		.syntax unified
  20              		.thumb
  21              		.thumb_func
  22              		.fpu fpv5-d16
  24              	ff_convert:
  25              		@ args = 0, pretend = 0, frame = 0
  26              		@ frame_needed = 0, uses_anonymous_args = 0
  27              		@ link register save eliminated.
  28 0000 7F28     		cmp	r0, #127
  29 0002 14D9     		bls	.L2
  30 0004 81B9     		cbnz	r1, .L3
  31 0006 0D4A     		ldr	r2, .L13
  32 0008 C723     		movs	r3, #199
  33 000a 03E0     		b	.L4
  34              	.L11:
  35 000c 8029     		cmp	r1, #128
  36 000e 0DD0     		beq	.L7
  37 0010 32F8023F 		ldrh	r3, [r2, #2]!
  38              	.L4:
  39 0014 9842     		cmp	r0, r3
  40 0016 1FFA81FC 		uxth	ip, r1
  41 001a 01F10101 		add	r1, r1, #1
  42 001e F5D1     		bne	.L11
  43 0020 0CF18000 		add	r0, ip, #128
  44 0024 80B2     		uxth	r0, r0
  45 0026 7047     		bx	lr
  46              	.L3:
  47 0028 FF28     		cmp	r0, #255
  48 002a 01D9     		bls	.L12
  49              	.L7:
  50 002c 0020     		movs	r0, #0
  51              	.L2:
  52 002e 7047     		bx	lr
  53              	.L12:
  54 0030 024B     		ldr	r3, .L13
  55 0032 8038     		subs	r0, r0, #128
  56 0034 33F81000 		ldrh	r0, [r3, r0, lsl #1]
  57 0038 7047     		bx	lr
  58              	.L14:
ARM GAS  /var/folders/sy/x1dkwsgj58j1lmy_hry3vpdm0000gn/T//ccbduBjg.s 			page 2


  59 003a 00BF     		.align	2
  60              	.L13:
  61 003c 00000000 		.word	.LANCHOR0
  63              		.section	.text.ff_wtoupper,"ax",%progbits
  64              		.align	1
  65              		.p2align 2,,3
  66              		.global	ff_wtoupper
  67              		.syntax unified
  68              		.thumb
  69              		.thumb_func
  70              		.fpu fpv5-d16
  72              	ff_wtoupper:
  73              		@ args = 0, pretend = 0, frame = 0
  74              		@ frame_needed = 0, uses_anonymous_args = 0
  75 0000 B0F5805F 		cmp	r0, #4096
  76 0004 244A     		ldr	r2, .L34
  77 0006 41F67D51 		movw	r1, #7549
  78 000a 244B     		ldr	r3, .L34+4
  79 000c 34BF     		ite	cc
  80 000e 6121     		movcc	r1, #97
  81 0010 1346     		movcs	r3, r2
  82 0012 10B5     		push	{r4, lr}
  83              	.L31:
  84 0014 0433     		adds	r3, r3, #4
  85 0016 03E0     		b	.L30
  86              	.L18:
  87 0018 0433     		adds	r3, r3, #4
  88 001a DAB1     		cbz	r2, .L29
  89 001c 33F8041C 		ldrh	r1, [r3, #-4]
  90              	.L30:
  91 0020 1C46     		mov	r4, r3
  92 0022 B1B1     		cbz	r1, .L17
  93 0024 8842     		cmp	r0, r1
  94 0026 14D3     		bcc	.L17
  95 0028 33F8022C 		ldrh	r2, [r3, #-2]
  96 002c 5FFA82FC 		uxtb	ip, r2
  97 0030 120A     		lsrs	r2, r2, #8
  98 0032 0CEB010E 		add	lr, ip, r1
  99 0036 7045     		cmp	r0, lr
 100 0038 EEDA     		bge	.L18
 101 003a 082A     		cmp	r2, #8
 102 003c 09D8     		bhi	.L17
 103 003e DFE802F0 		tbb	[pc, r2]
 104              	.L20:
 105 0042 05       		.byte	(.L28-.L20)/2
 106 0043 12       		.byte	(.L27-.L20)/2
 107 0044 18       		.byte	(.L26-.L20)/2
 108 0045 1B       		.byte	(.L25-.L20)/2
 109 0046 1E       		.byte	(.L24-.L20)/2
 110 0047 21       		.byte	(.L23-.L20)/2
 111 0048 24       		.byte	(.L22-.L20)/2
 112 0049 27       		.byte	(.L21-.L20)/2
 113 004a 0E       		.byte	(.L19-.L20)/2
 114 004b 00       		.p2align 1
 115              	.L28:
 116 004c 411A     		subs	r1, r0, r1
 117 004e 33F81100 		ldrh	r0, [r3, r1, lsl #1]
ARM GAS  /var/folders/sy/x1dkwsgj58j1lmy_hry3vpdm0000gn/T//ccbduBjg.s 			page 3


 118              	.L17:
 119 0052 10BD     		pop	{r4, pc}
 120              	.L29:
 121 0054 04EB4C03 		add	r3, r4, ip, lsl #1
 122 0058 34F81C10 		ldrh	r1, [r4, ip, lsl #1]
 123 005c DAE7     		b	.L31
 124              	.L19:
 125 005e A0F5E350 		sub	r0, r0, #7264
 126 0062 80B2     		uxth	r0, r0
 127 0064 10BD     		pop	{r4, pc}
 128              	.L27:
 129 0066 431A     		subs	r3, r0, r1
 130 0068 03F00103 		and	r3, r3, #1
 131 006c C01A     		subs	r0, r0, r3
 132 006e 80B2     		uxth	r0, r0
 133 0070 10BD     		pop	{r4, pc}
 134              	.L26:
 135 0072 1038     		subs	r0, r0, #16
 136 0074 80B2     		uxth	r0, r0
 137 0076 10BD     		pop	{r4, pc}
 138              	.L25:
 139 0078 2038     		subs	r0, r0, #32
 140 007a 80B2     		uxth	r0, r0
 141 007c 10BD     		pop	{r4, pc}
 142              	.L24:
 143 007e 3038     		subs	r0, r0, #48
 144 0080 80B2     		uxth	r0, r0
 145 0082 10BD     		pop	{r4, pc}
 146              	.L23:
 147 0084 1A38     		subs	r0, r0, #26
 148 0086 80B2     		uxth	r0, r0
 149 0088 10BD     		pop	{r4, pc}
 150              	.L22:
 151 008a 0830     		adds	r0, r0, #8
 152 008c 80B2     		uxth	r0, r0
 153 008e 10BD     		pop	{r4, pc}
 154              	.L21:
 155 0090 5038     		subs	r0, r0, #80
 156 0092 80B2     		uxth	r0, r0
 157 0094 10BD     		pop	{r4, pc}
 158              	.L35:
 159 0096 00BF     		.align	2
 160              	.L34:
 161 0098 00000000 		.word	.LANCHOR2
 162 009c 00000000 		.word	.LANCHOR1
 164              		.section	.rodata.Tbl,"a"
 165              		.align	2
 166              		.set	.LANCHOR0,. + 0
 169              	Tbl:
 170 0000 C700     		.short	199
 171 0002 FC00     		.short	252
 172 0004 E900     		.short	233
 173 0006 E200     		.short	226
 174 0008 E400     		.short	228
 175 000a E000     		.short	224
 176 000c E500     		.short	229
 177 000e E700     		.short	231
ARM GAS  /var/folders/sy/x1dkwsgj58j1lmy_hry3vpdm0000gn/T//ccbduBjg.s 			page 4


 178 0010 EA00     		.short	234
 179 0012 EB00     		.short	235
 180 0014 E800     		.short	232
 181 0016 EF00     		.short	239
 182 0018 EE00     		.short	238
 183 001a EC00     		.short	236
 184 001c C400     		.short	196
 185 001e C500     		.short	197
 186 0020 C900     		.short	201
 187 0022 E600     		.short	230
 188 0024 C600     		.short	198
 189 0026 F400     		.short	244
 190 0028 F600     		.short	246
 191 002a F200     		.short	242
 192 002c FB00     		.short	251
 193 002e F900     		.short	249
 194 0030 FF00     		.short	255
 195 0032 D600     		.short	214
 196 0034 DC00     		.short	220
 197 0036 F800     		.short	248
 198 0038 A300     		.short	163
 199 003a D800     		.short	216
 200 003c D700     		.short	215
 201 003e 9201     		.short	402
 202 0040 E100     		.short	225
 203 0042 ED00     		.short	237
 204 0044 F300     		.short	243
 205 0046 FA00     		.short	250
 206 0048 F100     		.short	241
 207 004a D100     		.short	209
 208 004c AA00     		.short	170
 209 004e BA00     		.short	186
 210 0050 BF00     		.short	191
 211 0052 AE00     		.short	174
 212 0054 AC00     		.short	172
 213 0056 BD00     		.short	189
 214 0058 BC00     		.short	188
 215 005a A100     		.short	161
 216 005c AB00     		.short	171
 217 005e BB00     		.short	187
 218 0060 9125     		.short	9617
 219 0062 9225     		.short	9618
 220 0064 9325     		.short	9619
 221 0066 0225     		.short	9474
 222 0068 2425     		.short	9508
 223 006a C100     		.short	193
 224 006c C200     		.short	194
 225 006e C000     		.short	192
 226 0070 A900     		.short	169
 227 0072 6325     		.short	9571
 228 0074 5125     		.short	9553
 229 0076 5725     		.short	9559
 230 0078 5D25     		.short	9565
 231 007a A200     		.short	162
 232 007c A500     		.short	165
 233 007e 1025     		.short	9488
 234 0080 1425     		.short	9492
ARM GAS  /var/folders/sy/x1dkwsgj58j1lmy_hry3vpdm0000gn/T//ccbduBjg.s 			page 5


 235 0082 3425     		.short	9524
 236 0084 2C25     		.short	9516
 237 0086 1C25     		.short	9500
 238 0088 0025     		.short	9472
 239 008a 3C25     		.short	9532
 240 008c E300     		.short	227
 241 008e C300     		.short	195
 242 0090 5A25     		.short	9562
 243 0092 5425     		.short	9556
 244 0094 6925     		.short	9577
 245 0096 6625     		.short	9574
 246 0098 6025     		.short	9568
 247 009a 5025     		.short	9552
 248 009c 6C25     		.short	9580
 249 009e A400     		.short	164
 250 00a0 F000     		.short	240
 251 00a2 D000     		.short	208
 252 00a4 CA00     		.short	202
 253 00a6 CB00     		.short	203
 254 00a8 C800     		.short	200
 255 00aa 3101     		.short	305
 256 00ac CD00     		.short	205
 257 00ae CE00     		.short	206
 258 00b0 CF00     		.short	207
 259 00b2 1825     		.short	9496
 260 00b4 0C25     		.short	9484
 261 00b6 8825     		.short	9608
 262 00b8 8425     		.short	9604
 263 00ba A600     		.short	166
 264 00bc CC00     		.short	204
 265 00be 8025     		.short	9600
 266 00c0 D300     		.short	211
 267 00c2 DF00     		.short	223
 268 00c4 D400     		.short	212
 269 00c6 D200     		.short	210
 270 00c8 F500     		.short	245
 271 00ca D500     		.short	213
 272 00cc B500     		.short	181
 273 00ce FE00     		.short	254
 274 00d0 DE00     		.short	222
 275 00d2 DA00     		.short	218
 276 00d4 DB00     		.short	219
 277 00d6 D900     		.short	217
 278 00d8 FD00     		.short	253
 279 00da DD00     		.short	221
 280 00dc AF00     		.short	175
 281 00de B400     		.short	180
 282 00e0 AD00     		.short	173
 283 00e2 B100     		.short	177
 284 00e4 1720     		.short	8215
 285 00e6 BE00     		.short	190
 286 00e8 B600     		.short	182
 287 00ea A700     		.short	167
 288 00ec F700     		.short	247
 289 00ee B800     		.short	184
 290 00f0 B000     		.short	176
 291 00f2 A800     		.short	168
ARM GAS  /var/folders/sy/x1dkwsgj58j1lmy_hry3vpdm0000gn/T//ccbduBjg.s 			page 6


 292 00f4 B700     		.short	183
 293 00f6 B900     		.short	185
 294 00f8 B300     		.short	179
 295 00fa B200     		.short	178
 296 00fc A025     		.short	9632
 297 00fe A000     		.short	160
 298              		.section	.rodata.cvt1.1,"a"
 299              		.align	2
 300              		.set	.LANCHOR1,. + 0
 303              	cvt1.1:
 304 0000 6100     		.short	97
 305 0002 1A03     		.short	794
 306 0004 E000     		.short	224
 307 0006 1703     		.short	791
 308 0008 F800     		.short	248
 309 000a 0703     		.short	775
 310 000c FF00     		.short	255
 311 000e 0100     		.short	1
 312 0010 7801     		.short	376
 313 0012 0001     		.short	256
 314 0014 3001     		.short	304
 315 0016 3201     		.short	306
 316 0018 0601     		.short	262
 317 001a 3901     		.short	313
 318 001c 1001     		.short	272
 319 001e 4A01     		.short	330
 320 0020 2E01     		.short	302
 321 0022 7901     		.short	377
 322 0024 0601     		.short	262
 323 0026 8001     		.short	384
 324 0028 4D00     		.short	77
 325 002a 4302     		.short	579
 326 002c 8101     		.short	385
 327 002e 8201     		.short	386
 328 0030 8201     		.short	386
 329 0032 8401     		.short	388
 330 0034 8401     		.short	388
 331 0036 8601     		.short	390
 332 0038 8701     		.short	391
 333 003a 8701     		.short	391
 334 003c 8901     		.short	393
 335 003e 8A01     		.short	394
 336 0040 8B01     		.short	395
 337 0042 8B01     		.short	395
 338 0044 8D01     		.short	397
 339 0046 8E01     		.short	398
 340 0048 8F01     		.short	399
 341 004a 9001     		.short	400
 342 004c 9101     		.short	401
 343 004e 9101     		.short	401
 344 0050 9301     		.short	403
 345 0052 9401     		.short	404
 346 0054 F601     		.short	502
 347 0056 9601     		.short	406
 348 0058 9701     		.short	407
 349 005a 9801     		.short	408
 350 005c 9801     		.short	408
ARM GAS  /var/folders/sy/x1dkwsgj58j1lmy_hry3vpdm0000gn/T//ccbduBjg.s 			page 7


 351 005e 3D02     		.short	573
 352 0060 9B01     		.short	411
 353 0062 9C01     		.short	412
 354 0064 9D01     		.short	413
 355 0066 2002     		.short	544
 356 0068 9F01     		.short	415
 357 006a A001     		.short	416
 358 006c A001     		.short	416
 359 006e A201     		.short	418
 360 0070 A201     		.short	418
 361 0072 A401     		.short	420
 362 0074 A401     		.short	420
 363 0076 A601     		.short	422
 364 0078 A701     		.short	423
 365 007a A701     		.short	423
 366 007c A901     		.short	425
 367 007e AA01     		.short	426
 368 0080 AB01     		.short	427
 369 0082 AC01     		.short	428
 370 0084 AC01     		.short	428
 371 0086 AE01     		.short	430
 372 0088 AF01     		.short	431
 373 008a AF01     		.short	431
 374 008c B101     		.short	433
 375 008e B201     		.short	434
 376 0090 B301     		.short	435
 377 0092 B301     		.short	435
 378 0094 B501     		.short	437
 379 0096 B501     		.short	437
 380 0098 B701     		.short	439
 381 009a B801     		.short	440
 382 009c B801     		.short	440
 383 009e BA01     		.short	442
 384 00a0 BB01     		.short	443
 385 00a2 BC01     		.short	444
 386 00a4 BC01     		.short	444
 387 00a6 BE01     		.short	446
 388 00a8 F701     		.short	503
 389 00aa C001     		.short	448
 390 00ac C101     		.short	449
 391 00ae C201     		.short	450
 392 00b0 C301     		.short	451
 393 00b2 C401     		.short	452
 394 00b4 C501     		.short	453
 395 00b6 C401     		.short	452
 396 00b8 C701     		.short	455
 397 00ba C801     		.short	456
 398 00bc C701     		.short	455
 399 00be CA01     		.short	458
 400 00c0 CB01     		.short	459
 401 00c2 CA01     		.short	458
 402 00c4 CD01     		.short	461
 403 00c6 1001     		.short	272
 404 00c8 DD01     		.short	477
 405 00ca 0100     		.short	1
 406 00cc 8E01     		.short	398
 407 00ce DE01     		.short	478
ARM GAS  /var/folders/sy/x1dkwsgj58j1lmy_hry3vpdm0000gn/T//ccbduBjg.s 			page 8


 408 00d0 1201     		.short	274
 409 00d2 F301     		.short	499
 410 00d4 0300     		.short	3
 411 00d6 F101     		.short	497
 412 00d8 F401     		.short	500
 413 00da F401     		.short	500
 414 00dc F801     		.short	504
 415 00de 2801     		.short	296
 416 00e0 2202     		.short	546
 417 00e2 1201     		.short	274
 418 00e4 3A02     		.short	570
 419 00e6 0900     		.short	9
 420 00e8 652C     		.short	11365
 421 00ea 3B02     		.short	571
 422 00ec 3B02     		.short	571
 423 00ee 3D02     		.short	573
 424 00f0 662C     		.short	11366
 425 00f2 3F02     		.short	575
 426 00f4 4002     		.short	576
 427 00f6 4102     		.short	577
 428 00f8 4102     		.short	577
 429 00fa 4602     		.short	582
 430 00fc 0A01     		.short	266
 431 00fe 5302     		.short	595
 432 0100 4000     		.short	64
 433 0102 8101     		.short	385
 434 0104 8601     		.short	390
 435 0106 5502     		.short	597
 436 0108 8901     		.short	393
 437 010a 8A01     		.short	394
 438 010c 5802     		.short	600
 439 010e 8F01     		.short	399
 440 0110 5A02     		.short	602
 441 0112 9001     		.short	400
 442 0114 5C02     		.short	604
 443 0116 5D02     		.short	605
 444 0118 5E02     		.short	606
 445 011a 5F02     		.short	607
 446 011c 9301     		.short	403
 447 011e 6102     		.short	609
 448 0120 6202     		.short	610
 449 0122 9401     		.short	404
 450 0124 6402     		.short	612
 451 0126 6502     		.short	613
 452 0128 6602     		.short	614
 453 012a 6702     		.short	615
 454 012c 9701     		.short	407
 455 012e 9601     		.short	406
 456 0130 6A02     		.short	618
 457 0132 622C     		.short	11362
 458 0134 6C02     		.short	620
 459 0136 6D02     		.short	621
 460 0138 6E02     		.short	622
 461 013a 9C01     		.short	412
 462 013c 7002     		.short	624
 463 013e 7102     		.short	625
 464 0140 9D01     		.short	413
ARM GAS  /var/folders/sy/x1dkwsgj58j1lmy_hry3vpdm0000gn/T//ccbduBjg.s 			page 9


 465 0142 7302     		.short	627
 466 0144 7402     		.short	628
 467 0146 9F01     		.short	415
 468 0148 7602     		.short	630
 469 014a 7702     		.short	631
 470 014c 7802     		.short	632
 471 014e 7902     		.short	633
 472 0150 7A02     		.short	634
 473 0152 7B02     		.short	635
 474 0154 7C02     		.short	636
 475 0156 642C     		.short	11364
 476 0158 7E02     		.short	638
 477 015a 7F02     		.short	639
 478 015c A601     		.short	422
 479 015e 8102     		.short	641
 480 0160 8202     		.short	642
 481 0162 A901     		.short	425
 482 0164 8402     		.short	644
 483 0166 8502     		.short	645
 484 0168 8602     		.short	646
 485 016a 8702     		.short	647
 486 016c AE01     		.short	430
 487 016e 4402     		.short	580
 488 0170 B101     		.short	433
 489 0172 B201     		.short	434
 490 0174 4502     		.short	581
 491 0176 8D02     		.short	653
 492 0178 8E02     		.short	654
 493 017a 8F02     		.short	655
 494 017c 9002     		.short	656
 495 017e 9102     		.short	657
 496 0180 B701     		.short	439
 497 0182 7B03     		.short	891
 498 0184 0300     		.short	3
 499 0186 FD03     		.short	1021
 500 0188 FE03     		.short	1022
 501 018a FF03     		.short	1023
 502 018c AC03     		.short	940
 503 018e 0400     		.short	4
 504 0190 8603     		.short	902
 505 0192 8803     		.short	904
 506 0194 8903     		.short	905
 507 0196 8A03     		.short	906
 508 0198 B103     		.short	945
 509 019a 1103     		.short	785
 510 019c C203     		.short	962
 511 019e 0200     		.short	2
 512 01a0 A303     		.short	931
 513 01a2 A303     		.short	931
 514 01a4 C403     		.short	964
 515 01a6 0803     		.short	776
 516 01a8 CC03     		.short	972
 517 01aa 0300     		.short	3
 518 01ac 8C03     		.short	908
 519 01ae 8E03     		.short	910
 520 01b0 8F03     		.short	911
 521 01b2 D803     		.short	984
ARM GAS  /var/folders/sy/x1dkwsgj58j1lmy_hry3vpdm0000gn/T//ccbduBjg.s 			page 10


 522 01b4 1801     		.short	280
 523 01b6 F203     		.short	1010
 524 01b8 0A00     		.short	10
 525 01ba F903     		.short	1017
 526 01bc F303     		.short	1011
 527 01be F403     		.short	1012
 528 01c0 F503     		.short	1013
 529 01c2 F603     		.short	1014
 530 01c4 F703     		.short	1015
 531 01c6 F703     		.short	1015
 532 01c8 F903     		.short	1017
 533 01ca FA03     		.short	1018
 534 01cc FA03     		.short	1018
 535 01ce 3004     		.short	1072
 536 01d0 2003     		.short	800
 537 01d2 5004     		.short	1104
 538 01d4 1007     		.short	1808
 539 01d6 6004     		.short	1120
 540 01d8 2201     		.short	290
 541 01da 8A04     		.short	1162
 542 01dc 3601     		.short	310
 543 01de C104     		.short	1217
 544 01e0 0E01     		.short	270
 545 01e2 CF04     		.short	1231
 546 01e4 0100     		.short	1
 547 01e6 C004     		.short	1216
 548 01e8 D004     		.short	1232
 549 01ea 4401     		.short	324
 550 01ec 6105     		.short	1377
 551 01ee 2604     		.short	1062
 552 01f0 0000     		.short	0
 553              		.section	.rodata.cvt2.0,"a"
 554              		.align	2
 555              		.set	.LANCHOR2,. + 0
 558              	cvt2.0:
 559 0000 7D1D     		.short	7549
 560 0002 0100     		.short	1
 561 0004 632C     		.short	11363
 562 0006 001E     		.short	7680
 563 0008 9601     		.short	406
 564 000a A01E     		.short	7840
 565 000c 5A01     		.short	346
 566 000e 001F     		.short	7936
 567 0010 0806     		.short	1544
 568 0012 101F     		.short	7952
 569 0014 0606     		.short	1542
 570 0016 201F     		.short	7968
 571 0018 0806     		.short	1544
 572 001a 301F     		.short	7984
 573 001c 0806     		.short	1544
 574 001e 401F     		.short	8000
 575 0020 0606     		.short	1542
 576 0022 511F     		.short	8017
 577 0024 0700     		.short	7
 578 0026 591F     		.short	8025
 579 0028 521F     		.short	8018
 580 002a 5B1F     		.short	8027
ARM GAS  /var/folders/sy/x1dkwsgj58j1lmy_hry3vpdm0000gn/T//ccbduBjg.s 			page 11


 581 002c 541F     		.short	8020
 582 002e 5D1F     		.short	8029
 583 0030 561F     		.short	8022
 584 0032 5F1F     		.short	8031
 585 0034 601F     		.short	8032
 586 0036 0806     		.short	1544
 587 0038 701F     		.short	8048
 588 003a 0E00     		.short	14
 589 003c BA1F     		.short	8122
 590 003e BB1F     		.short	8123
 591 0040 C81F     		.short	8136
 592 0042 C91F     		.short	8137
 593 0044 CA1F     		.short	8138
 594 0046 CB1F     		.short	8139
 595 0048 DA1F     		.short	8154
 596 004a DB1F     		.short	8155
 597 004c F81F     		.short	8184
 598 004e F91F     		.short	8185
 599 0050 EA1F     		.short	8170
 600 0052 EB1F     		.short	8171
 601 0054 FA1F     		.short	8186
 602 0056 FB1F     		.short	8187
 603 0058 801F     		.short	8064
 604 005a 0806     		.short	1544
 605 005c 901F     		.short	8080
 606 005e 0806     		.short	1544
 607 0060 A01F     		.short	8096
 608 0062 0806     		.short	1544
 609 0064 B01F     		.short	8112
 610 0066 0400     		.short	4
 611 0068 B81F     		.short	8120
 612 006a B91F     		.short	8121
 613 006c B21F     		.short	8114
 614 006e BC1F     		.short	8124
 615 0070 CC1F     		.short	8140
 616 0072 0100     		.short	1
 617 0074 C31F     		.short	8131
 618 0076 D01F     		.short	8144
 619 0078 0206     		.short	1538
 620 007a E01F     		.short	8160
 621 007c 0206     		.short	1538
 622 007e E51F     		.short	8165
 623 0080 0100     		.short	1
 624 0082 EC1F     		.short	8172
 625 0084 F21F     		.short	8178
 626 0086 0100     		.short	1
 627 0088 FC1F     		.short	8188
 628 008a 4E21     		.short	8526
 629 008c 0100     		.short	1
 630 008e 3221     		.short	8498
 631 0090 7021     		.short	8560
 632 0092 1002     		.short	528
 633 0094 8421     		.short	8580
 634 0096 0100     		.short	1
 635 0098 8321     		.short	8579
 636 009a D024     		.short	9424
 637 009c 1A05     		.short	1306
ARM GAS  /var/folders/sy/x1dkwsgj58j1lmy_hry3vpdm0000gn/T//ccbduBjg.s 			page 12


 638 009e 302C     		.short	11312
 639 00a0 2F04     		.short	1071
 640 00a2 602C     		.short	11360
 641 00a4 0201     		.short	258
 642 00a6 672C     		.short	11367
 643 00a8 0601     		.short	262
 644 00aa 752C     		.short	11381
 645 00ac 0201     		.short	258
 646 00ae 802C     		.short	11392
 647 00b0 6401     		.short	356
 648 00b2 002D     		.short	11520
 649 00b4 2608     		.short	2086
 650 00b6 41FF     		.short	-191
 651 00b8 1A03     		.short	794
 652 00ba 0000     		.short	0
 653              		.ident	"GCC: (GNU Arm Embedded Toolchain 10-2020-q4-major) 10.2.1 20201103 (release)"
ARM GAS  /var/folders/sy/x1dkwsgj58j1lmy_hry3vpdm0000gn/T//ccbduBjg.s 			page 13


DEFINED SYMBOLS
                            *ABS*:0000000000000000 ccsbcs.c
/var/folders/sy/x1dkwsgj58j1lmy_hry3vpdm0000gn/T//ccbduBjg.s:15     .text.ff_convert:0000000000000000 $t
/var/folders/sy/x1dkwsgj58j1lmy_hry3vpdm0000gn/T//ccbduBjg.s:24     .text.ff_convert:0000000000000000 ff_convert
/var/folders/sy/x1dkwsgj58j1lmy_hry3vpdm0000gn/T//ccbduBjg.s:61     .text.ff_convert:000000000000003c $d
/var/folders/sy/x1dkwsgj58j1lmy_hry3vpdm0000gn/T//ccbduBjg.s:64     .text.ff_wtoupper:0000000000000000 $t
/var/folders/sy/x1dkwsgj58j1lmy_hry3vpdm0000gn/T//ccbduBjg.s:72     .text.ff_wtoupper:0000000000000000 ff_wtoupper
/var/folders/sy/x1dkwsgj58j1lmy_hry3vpdm0000gn/T//ccbduBjg.s:105    .text.ff_wtoupper:0000000000000042 $d
/var/folders/sy/x1dkwsgj58j1lmy_hry3vpdm0000gn/T//ccbduBjg.s:161    .text.ff_wtoupper:0000000000000098 $d
/var/folders/sy/x1dkwsgj58j1lmy_hry3vpdm0000gn/T//ccbduBjg.s:165    .rodata.Tbl:0000000000000000 $d
/var/folders/sy/x1dkwsgj58j1lmy_hry3vpdm0000gn/T//ccbduBjg.s:169    .rodata.Tbl:0000000000000000 Tbl
/var/folders/sy/x1dkwsgj58j1lmy_hry3vpdm0000gn/T//ccbduBjg.s:299    .rodata.cvt1.1:0000000000000000 $d
/var/folders/sy/x1dkwsgj58j1lmy_hry3vpdm0000gn/T//ccbduBjg.s:303    .rodata.cvt1.1:0000000000000000 cvt1.1
/var/folders/sy/x1dkwsgj58j1lmy_hry3vpdm0000gn/T//ccbduBjg.s:554    .rodata.cvt2.0:0000000000000000 $d
/var/folders/sy/x1dkwsgj58j1lmy_hry3vpdm0000gn/T//ccbduBjg.s:558    .rodata.cvt2.0:0000000000000000 cvt2.0
/var/folders/sy/x1dkwsgj58j1lmy_hry3vpdm0000gn/T//ccbduBjg.s:114    .text.ff_wtoupper:000000000000004b $d
/var/folders/sy/x1dkwsgj58j1lmy_hry3vpdm0000gn/T//ccbduBjg.s:114    .text.ff_wtoupper:000000000000004c $t

NO UNDEFINED SYMBOLS
