ARM GAS  /var/folders/sy/x1dkwsgj58j1lmy_hry3vpdm0000gn/T//ccdc1RAT.s 			page 1


   1              		.cpu cortex-m7
   2              		.eabi_attribute 28, 1
   3              		.eabi_attribute 20, 1
   4              		.eabi_attribute 21, 1
   5              		.eabi_attribute 23, 3
   6              		.eabi_attribute 24, 1
   7              		.eabi_attribute 25, 1
   8              		.eabi_attribute 26, 1
   9              		.eabi_attribute 30, 2
  10              		.eabi_attribute 34, 1
  11              		.eabi_attribute 18, 4
  12              		.file	"diskio.c"
  13              		.text
  14              		.section	.text.disk_status,"ax",%progbits
  15              		.align	1
  16              		.p2align 2,,3
  17              		.global	disk_status
  18              		.arch armv7e-m
  19              		.syntax unified
  20              		.thumb
  21              		.thumb_func
  22              		.fpu fpv5-d16
  24              	disk_status:
  25              		@ args = 0, pretend = 0, frame = 0
  26              		@ frame_needed = 0, uses_anonymous_args = 0
  27              		@ link register save eliminated.
  28 0000 034B     		ldr	r3, .L3
  29 0002 03EB8002 		add	r2, r3, r0, lsl #2
  30 0006 0344     		add	r3, r3, r0
  31 0008 5268     		ldr	r2, [r2, #4]
  32 000a 187A     		ldrb	r0, [r3, #8]	@ zero_extendqisi2
  33 000c 5368     		ldr	r3, [r2, #4]
  34 000e 1847     		bx	r3
  35              	.L4:
  36              		.align	2
  37              	.L3:
  38 0010 00000000 		.word	disk
  40              		.section	.text.disk_initialize,"ax",%progbits
  41              		.align	1
  42              		.p2align 2,,3
  43              		.global	disk_initialize
  44              		.syntax unified
  45              		.thumb
  46              		.thumb_func
  47              		.fpu fpv5-d16
  49              	disk_initialize:
  50              		@ args = 0, pretend = 0, frame = 0
  51              		@ frame_needed = 0, uses_anonymous_args = 0
  52              		@ link register save eliminated.
  53 0000 074B     		ldr	r3, .L7
  54 0002 1A5C     		ldrb	r2, [r3, r0]	@ zero_extendqisi2
  55 0004 52B9     		cbnz	r2, .L6
  56 0006 03EB8002 		add	r2, r3, r0, lsl #2
  57 000a 1918     		adds	r1, r3, r0
  58 000c 4FF0010C 		mov	ip, #1
  59 0010 5268     		ldr	r2, [r2, #4]
  60 0012 03F800C0 		strb	ip, [r3, r0]
ARM GAS  /var/folders/sy/x1dkwsgj58j1lmy_hry3vpdm0000gn/T//ccdc1RAT.s 			page 2


  61 0016 087A     		ldrb	r0, [r1, #8]	@ zero_extendqisi2
  62 0018 1368     		ldr	r3, [r2]
  63 001a 1847     		bx	r3
  64              	.L6:
  65 001c 0020     		movs	r0, #0
  66 001e 7047     		bx	lr
  67              	.L8:
  68              		.align	2
  69              	.L7:
  70 0020 00000000 		.word	disk
  72              		.section	.text.disk_read,"ax",%progbits
  73              		.align	1
  74              		.p2align 2,,3
  75              		.global	disk_read
  76              		.syntax unified
  77              		.thumb
  78              		.thumb_func
  79              		.fpu fpv5-d16
  81              	disk_read:
  82              		@ args = 0, pretend = 0, frame = 0
  83              		@ frame_needed = 0, uses_anonymous_args = 0
  84              		@ link register save eliminated.
  85 0000 30B4     		push	{r4, r5}
  86 0002 054C     		ldr	r4, .L11
  87 0004 04EB8005 		add	r5, r4, r0, lsl #2
  88 0008 0444     		add	r4, r4, r0
  89 000a 6D68     		ldr	r5, [r5, #4]
  90 000c 207A     		ldrb	r0, [r4, #8]	@ zero_extendqisi2
  91 000e AC68     		ldr	r4, [r5, #8]
  92 0010 A446     		mov	ip, r4
  93 0012 30BC     		pop	{r4, r5}
  94 0014 6047     		bx	ip
  95              	.L12:
  96 0016 00BF     		.align	2
  97              	.L11:
  98 0018 00000000 		.word	disk
 100              		.section	.text.disk_write,"ax",%progbits
 101              		.align	1
 102              		.p2align 2,,3
 103              		.global	disk_write
 104              		.syntax unified
 105              		.thumb
 106              		.thumb_func
 107              		.fpu fpv5-d16
 109              	disk_write:
 110              		@ args = 0, pretend = 0, frame = 0
 111              		@ frame_needed = 0, uses_anonymous_args = 0
 112              		@ link register save eliminated.
 113 0000 30B4     		push	{r4, r5}
 114 0002 054C     		ldr	r4, .L15
 115 0004 04EB8005 		add	r5, r4, r0, lsl #2
 116 0008 0444     		add	r4, r4, r0
 117 000a 6D68     		ldr	r5, [r5, #4]
 118 000c 207A     		ldrb	r0, [r4, #8]	@ zero_extendqisi2
 119 000e EC68     		ldr	r4, [r5, #12]
 120 0010 A446     		mov	ip, r4
 121 0012 30BC     		pop	{r4, r5}
ARM GAS  /var/folders/sy/x1dkwsgj58j1lmy_hry3vpdm0000gn/T//ccdc1RAT.s 			page 3


 122 0014 6047     		bx	ip
 123              	.L16:
 124 0016 00BF     		.align	2
 125              	.L15:
 126 0018 00000000 		.word	disk
 128              		.section	.text.disk_ioctl,"ax",%progbits
 129              		.align	1
 130              		.p2align 2,,3
 131              		.global	disk_ioctl
 132              		.syntax unified
 133              		.thumb
 134              		.thumb_func
 135              		.fpu fpv5-d16
 137              	disk_ioctl:
 138              		@ args = 0, pretend = 0, frame = 0
 139              		@ frame_needed = 0, uses_anonymous_args = 0
 140              		@ link register save eliminated.
 141 0000 044B     		ldr	r3, .L18
 142 0002 03EB000C 		add	ip, r3, r0
 143 0006 03EB8003 		add	r3, r3, r0, lsl #2
 144 000a 5B68     		ldr	r3, [r3, #4]
 145 000c 9CF80800 		ldrb	r0, [ip, #8]	@ zero_extendqisi2
 146 0010 1B69     		ldr	r3, [r3, #16]
 147 0012 1847     		bx	r3
 148              	.L19:
 149              		.align	2
 150              	.L18:
 151 0014 00000000 		.word	disk
 153              		.section	.text.get_fattime,"ax",%progbits
 154              		.align	1
 155              		.p2align 2,,3
 156              		.weak	get_fattime
 157              		.syntax unified
 158              		.thumb
 159              		.thumb_func
 160              		.fpu fpv5-d16
 162              	get_fattime:
 163              		@ args = 0, pretend = 0, frame = 0
 164              		@ frame_needed = 0, uses_anonymous_args = 0
 165              		@ link register save eliminated.
 166 0000 0020     		movs	r0, #0
 167 0002 7047     		bx	lr
 169              		.ident	"GCC: (GNU Arm Embedded Toolchain 10-2020-q4-major) 10.2.1 20201103 (release)"
ARM GAS  /var/folders/sy/x1dkwsgj58j1lmy_hry3vpdm0000gn/T//ccdc1RAT.s 			page 4

