ARM GAS  /var/folders/sy/x1dkwsgj58j1lmy_hry3vpdm0000gn/T//cc0MFmUD.s 			page 1


   1              		.cpu cortex-m7
   2              		.eabi_attribute 28, 1
   3              		.eabi_attribute 20, 1
   4              		.eabi_attribute 21, 1
   5              		.eabi_attribute 23, 3
   6              		.eabi_attribute 24, 1
   7              		.eabi_attribute 25, 1
   8              		.eabi_attribute 26, 1
   9              		.eabi_attribute 30, 2
  10              		.eabi_attribute 34, 1
  11              		.eabi_attribute 18, 4
  12              		.file	"ff.c"
  13              		.text
  14              		.section	.text.chk_lock,"ax",%progbits
  15              		.align	1
  16              		.p2align 2,,3
  17              		.arch armv7e-m
  18              		.syntax unified
  19              		.thumb
  20              		.thumb_func
  21              		.fpu fpv5-d16
  23              	chk_lock:
  24              		@ args = 0, pretend = 0, frame = 0
  25              		@ frame_needed = 0, uses_anonymous_args = 0
  26              		@ link register save eliminated.
  27 0000 1C4A     		ldr	r2, .L23
  28 0002 1368     		ldr	r3, [r2]
  29 0004 30B4     		push	{r4, r5}
  30 0006 002B     		cmp	r3, #0
  31 0008 32D0     		beq	.L7
  32 000a 0468     		ldr	r4, [r0]
  33 000c 9C42     		cmp	r4, r3
  34 000e 0ED0     		beq	.L20
  35              	.L9:
  36 0010 0024     		movs	r4, #0
  37              	.L2:
  38 0012 1369     		ldr	r3, [r2, #16]
  39 0014 43B1     		cbz	r3, .L13
  40 0016 0568     		ldr	r5, [r0]
  41 0018 AB42     		cmp	r3, r5
  42 001a 1CD0     		beq	.L21
  43              	.L5:
  44 001c 0229     		cmp	r1, #2
  45 001e 03D0     		beq	.L13
  46 0020 14B9     		cbnz	r4, .L13
  47 0022 1220     		movs	r0, #18
  48 0024 30BC     		pop	{r4, r5}
  49 0026 7047     		bx	lr
  50              	.L13:
  51 0028 0020     		movs	r0, #0
  52              	.L16:
  53 002a 30BC     		pop	{r4, r5}
  54 002c 7047     		bx	lr
  55              	.L20:
  56 002e 5468     		ldr	r4, [r2, #4]
  57 0030 8368     		ldr	r3, [r0, #8]
  58 0032 9C42     		cmp	r4, r3
ARM GAS  /var/folders/sy/x1dkwsgj58j1lmy_hry3vpdm0000gn/T//cc0MFmUD.s 			page 2


  59 0034 ECD1     		bne	.L9
  60 0036 9468     		ldr	r4, [r2, #8]
  61 0038 4369     		ldr	r3, [r0, #20]
  62 003a 9C42     		cmp	r4, r3
  63 003c E8D1     		bne	.L9
  64 003e 0023     		movs	r3, #0
  65 0040 A1B9     		cbnz	r1, .L22
  66              	.L17:
  67 0042 02EB0312 		add	r2, r2, r3, lsl #4
  68 0046 9389     		ldrh	r3, [r2, #12]
  69 0048 B3F5807F 		cmp	r3, #256
  70 004c 30BC     		pop	{r4, r5}
  71 004e 14BF     		ite	ne
  72 0050 0020     		movne	r0, #0
  73 0052 1020     		moveq	r0, #16
  74 0054 7047     		bx	lr
  75              	.L21:
  76 0056 8368     		ldr	r3, [r0, #8]
  77 0058 5569     		ldr	r5, [r2, #20]
  78 005a 9D42     		cmp	r5, r3
  79 005c DED1     		bne	.L5
  80 005e 4369     		ldr	r3, [r0, #20]
  81 0060 9069     		ldr	r0, [r2, #24]
  82 0062 9842     		cmp	r0, r3
  83 0064 DAD1     		bne	.L5
  84 0066 0123     		movs	r3, #1
  85 0068 0029     		cmp	r1, #0
  86 006a EAD0     		beq	.L17
  87              	.L22:
  88 006c 1020     		movs	r0, #16
  89 006e DCE7     		b	.L16
  90              	.L7:
  91 0070 0124     		movs	r4, #1
  92 0072 CEE7     		b	.L2
  93              	.L24:
  94              		.align	2
  95              	.L23:
  96 0074 00000000 		.word	.LANCHOR0
  98              		.section	.text.inc_lock,"ax",%progbits
  99              		.align	1
 100              		.p2align 2,,3
 101              		.syntax unified
 102              		.thumb
 103              		.thumb_func
 104              		.fpu fpv5-d16
 106              	inc_lock:
 107              		@ args = 0, pretend = 0, frame = 0
 108              		@ frame_needed = 0, uses_anonymous_args = 0
 109              		@ link register save eliminated.
 110 0000 294B     		ldr	r3, .L44
 111 0002 70B4     		push	{r4, r5, r6}
 112 0004 1A68     		ldr	r2, [r3]
 113 0006 0568     		ldr	r5, [r0]
 114 0008 9542     		cmp	r5, r2
 115 000a 1DD0     		beq	.L41
 116              	.L26:
 117 000c 1C69     		ldr	r4, [r3, #16]
ARM GAS  /var/folders/sy/x1dkwsgj58j1lmy_hry3vpdm0000gn/T//cc0MFmUD.s 			page 3


 118 000e AC42     		cmp	r4, r5
 119 0010 06D0     		beq	.L42
 120              	.L28:
 121 0012 1AB3     		cbz	r2, .L36
 122 0014 002C     		cmp	r4, #0
 123 0016 3BD0     		beq	.L43
 124              	.L39:
 125 0018 0024     		movs	r4, #0
 126 001a 2046     		mov	r0, r4
 127 001c 70BC     		pop	{r4, r5, r6}
 128 001e 7047     		bx	lr
 129              	.L42:
 130 0020 5E69     		ldr	r6, [r3, #20]
 131 0022 B446     		mov	ip, r6
 132 0024 8668     		ldr	r6, [r0, #8]
 133 0026 B445     		cmp	ip, r6
 134 0028 F3D1     		bne	.L28
 135 002a 9E69     		ldr	r6, [r3, #24]
 136 002c B446     		mov	ip, r6
 137 002e 4669     		ldr	r6, [r0, #20]
 138 0030 B445     		cmp	ip, r6
 139 0032 EED1     		bne	.L28
 140 0034 0122     		movs	r2, #1
 141              	.L27:
 142 0036 03EB0210 		add	r0, r3, r2, lsl #4
 143 003a 61BB     		cbnz	r1, .L33
 144 003c 1101     		lsls	r1, r2, #4
 145 003e 541C     		adds	r4, r2, #1
 146 0040 8289     		ldrh	r2, [r0, #12]
 147 0042 0132     		adds	r2, r2, #1
 148 0044 92B2     		uxth	r2, r2
 149 0046 1EE0     		b	.L31
 150              	.L41:
 151 0048 8468     		ldr	r4, [r0, #8]
 152 004a 5E68     		ldr	r6, [r3, #4]
 153 004c A642     		cmp	r6, r4
 154 004e DDD1     		bne	.L26
 155 0050 9C68     		ldr	r4, [r3, #8]
 156 0052 4669     		ldr	r6, [r0, #20]
 157 0054 A642     		cmp	r6, r4
 158 0056 D9D1     		bne	.L26
 159 0058 0022     		movs	r2, #0
 160 005a ECE7     		b	.L27
 161              	.L36:
 162 005c 0124     		movs	r4, #1
 163              	.L29:
 164 005e 03EB021C 		add	ip, r3, r2, lsl #4
 165 0062 0029     		cmp	r1, #0
 166 0064 4FEA0211 		lsl	r1, r2, #4
 167 0068 8268     		ldr	r2, [r0, #8]
 168 006a CCF80420 		str	r2, [ip, #4]
 169 006e 4269     		ldr	r2, [r0, #20]
 170 0070 5D50     		str	r5, [r3, r1]
 171 0072 CCF80820 		str	r2, [ip, #8]
 172 0076 4FF00002 		mov	r2, #0
 173 007a ACF80C20 		strh	r2, [ip, #12]	@ movhi
 174 007e 14BF     		ite	ne
ARM GAS  /var/folders/sy/x1dkwsgj58j1lmy_hry3vpdm0000gn/T//cc0MFmUD.s 			page 4


 175 0080 4FF48072 		movne	r2, #256
 176 0084 0122     		moveq	r2, #1
 177              	.L31:
 178 0086 0B44     		add	r3, r3, r1
 179 0088 2046     		mov	r0, r4
 180 008a 70BC     		pop	{r4, r5, r6}
 181 008c 9A81     		strh	r2, [r3, #12]	@ movhi
 182 008e 7047     		bx	lr
 183              	.L43:
 184 0090 0224     		movs	r4, #2
 185 0092 0122     		movs	r2, #1
 186 0094 E3E7     		b	.L29
 187              	.L33:
 188 0096 8089     		ldrh	r0, [r0, #12]
 189 0098 1101     		lsls	r1, r2, #4
 190 009a 0028     		cmp	r0, #0
 191 009c BCD1     		bne	.L39
 192 009e 541C     		adds	r4, r2, #1
 193 00a0 4FF48072 		mov	r2, #256
 194 00a4 EFE7     		b	.L31
 195              	.L45:
 196 00a6 00BF     		.align	2
 197              	.L44:
 198 00a8 00000000 		.word	.LANCHOR0
 200              		.section	.text.get_ldnumber,"ax",%progbits
 201              		.align	1
 202              		.p2align 2,,3
 203              		.syntax unified
 204              		.thumb
 205              		.thumb_func
 206              		.fpu fpv5-d16
 208              	get_ldnumber:
 209              		@ args = 0, pretend = 0, frame = 0
 210              		@ frame_needed = 0, uses_anonymous_args = 0
 211              		@ link register save eliminated.
 212 0000 0168     		ldr	r1, [r0]
 213 0002 8446     		mov	ip, r0
 214 0004 81B1     		cbz	r1, .L54
 215 0006 0878     		ldrb	r0, [r1]	@ zero_extendqisi2
 216 0008 0A46     		mov	r2, r1
 217 000a 3A28     		cmp	r0, #58
 218 000c 0FD0     		beq	.L52
 219 000e 1F28     		cmp	r0, #31
 220 0010 0DD9     		bls	.L52
 221              	.L49:
 222 0012 12F8013F 		ldrb	r3, [r2, #1]!	@ zero_extendqisi2
 223 0016 1F2B     		cmp	r3, #31
 224 0018 0AD9     		bls	.L48
 225 001a 3A2B     		cmp	r3, #58
 226 001c F9D1     		bne	.L49
 227              	.L71:
 228 001e 0131     		adds	r1, r1, #1
 229 0020 8A42     		cmp	r2, r1
 230 0022 01D1     		bne	.L54
 231 0024 3028     		cmp	r0, #48
 232 0026 07D0     		beq	.L72
 233              	.L54:
ARM GAS  /var/folders/sy/x1dkwsgj58j1lmy_hry3vpdm0000gn/T//cc0MFmUD.s 			page 5


 234 0028 4FF0FF30 		mov	r0, #-1
 235 002c 7047     		bx	lr
 236              	.L52:
 237 002e 0346     		mov	r3, r0
 238              	.L48:
 239 0030 3A2B     		cmp	r3, #58
 240 0032 F4D0     		beq	.L71
 241 0034 0020     		movs	r0, #0
 242 0036 7047     		bx	lr
 243              	.L72:
 244 0038 0132     		adds	r2, r2, #1
 245 003a 0020     		movs	r0, #0
 246 003c CCF80020 		str	r2, [ip]
 247 0040 7047     		bx	lr
 249 0042 00BF     		.section	.text.validate,"ax",%progbits
 250              		.align	1
 251              		.p2align 2,,3
 252              		.syntax unified
 253              		.thumb
 254              		.thumb_func
 255              		.fpu fpv5-d16
 257              	validate:
 258              		@ args = 0, pretend = 0, frame = 0
 259              		@ frame_needed = 0, uses_anonymous_args = 0
 260 0000 38B5     		push	{r3, r4, r5, lr}
 261 0002 0D46     		mov	r5, r1
 262 0004 40B1     		cbz	r0, .L76
 263 0006 0368     		ldr	r3, [r0]
 264 0008 0446     		mov	r4, r0
 265 000a 2BB1     		cbz	r3, .L76
 266 000c 1A78     		ldrb	r2, [r3]	@ zero_extendqisi2
 267 000e 1AB1     		cbz	r2, .L76
 268 0010 8088     		ldrh	r0, [r0, #4]
 269 0012 DA88     		ldrh	r2, [r3, #6]
 270 0014 9042     		cmp	r0, r2
 271 0016 03D0     		beq	.L84
 272              	.L76:
 273 0018 0920     		movs	r0, #9
 274 001a 0023     		movs	r3, #0
 275              	.L75:
 276 001c 2B60     		str	r3, [r5]
 277 001e 38BD     		pop	{r3, r4, r5, pc}
 278              	.L84:
 279 0020 5878     		ldrb	r0, [r3, #1]	@ zero_extendqisi2
 280 0022 FFF7FEFF 		bl	disk_status
 281 0026 10F00100 		ands	r0, r0, #1
 282 002a F5D1     		bne	.L76
 283 002c 2368     		ldr	r3, [r4]
 284 002e F5E7     		b	.L75
 286              		.section	.text.get_fileinfo,"ax",%progbits
 287              		.align	1
 288              		.p2align 2,,3
 289              		.syntax unified
 290              		.thumb
 291              		.thumb_func
 292              		.fpu fpv5-d16
 294              	get_fileinfo:
ARM GAS  /var/folders/sy/x1dkwsgj58j1lmy_hry3vpdm0000gn/T//cc0MFmUD.s 			page 6


 295              		@ args = 0, pretend = 0, frame = 0
 296              		@ frame_needed = 0, uses_anonymous_args = 0
 297 0000 2DE9F041 		push	{r4, r5, r6, r7, r8, lr}
 298 0004 0026     		movs	r6, #0
 299 0006 D0F80080 		ldr	r8, [r0]
 300 000a 8E75     		strb	r6, [r1, #22]
 301 000c C369     		ldr	r3, [r0, #28]
 302 000e 002B     		cmp	r3, #0
 303 0010 5AD0     		beq	.L85
 304 0012 036B     		ldr	r3, [r0, #48]
 305 0014 0746     		mov	r7, r0
 306 0016 0D46     		mov	r5, r1
 307 0018 0133     		adds	r3, r3, #1
 308 001a 1ED0     		beq	.L87
 309 001c D8F80C30 		ldr	r3, [r8, #12]
 310 0020 1888     		ldrh	r0, [r3]
 311 0022 0028     		cmp	r0, #0
 312 0024 61D0     		beq	.L90
 313 0026 01F11506 		add	r6, r1, #21
 314 002a 0124     		movs	r4, #1
 315 002c 00E0     		b	.L91
 316              	.L102:
 317 002e 1C46     		mov	r4, r3
 318              	.L91:
 319 0030 0021     		movs	r1, #0
 320 0032 FFF7FEFF 		bl	ff_convert
 321 0036 631C     		adds	r3, r4, #1
 322 0038 0028     		cmp	r0, #0
 323 003a 56D0     		beq	.L90
 324 003c B4F5807F 		cmp	r4, #256
 325 0040 53D0     		beq	.L90
 326 0042 06F8010F 		strb	r0, [r6, #1]!
 327 0046 D8F80C20 		ldr	r2, [r8, #12]
 328 004a 32F81400 		ldrh	r0, [r2, r4, lsl #1]
 329 004e 0028     		cmp	r0, #0
 330 0050 EDD1     		bne	.L102
 331 0052 2C44     		add	r4, r4, r5
 332 0054 0023     		movs	r3, #0
 333 0056 A375     		strb	r3, [r4, #22]
 334 0058 AE7D     		ldrb	r6, [r5, #22]	@ zero_extendqisi2
 335              	.L87:
 336 005a D7F820C0 		ldr	ip, [r7, #32]
 337 005e 0020     		movs	r0, #0
 338 0060 4FF02E08 		mov	r8, #46
 339 0064 0CF1FF31 		add	r1, ip, #-1
 340 0068 0246     		mov	r2, r0
 341              	.L99:
 342 006a 11F8013F 		ldrb	r3, [r1, #1]!	@ zero_extendqisi2
 343 006e 0132     		adds	r2, r2, #1
 344 0070 202B     		cmp	r3, #32
 345 0072 18D0     		beq	.L92
 346 0074 052B     		cmp	r3, #5
 347 0076 08BF     		it	eq
 348 0078 E523     		moveq	r3, #229
 349 007a 092A     		cmp	r2, #9
 350 007c 26D0     		beq	.L119
 351              	.L94:
ARM GAS  /var/folders/sy/x1dkwsgj58j1lmy_hry3vpdm0000gn/T//cc0MFmUD.s 			page 7


 352 007e 2C18     		adds	r4, r5, r0
 353 0080 6372     		strb	r3, [r4, #9]
 354 0082 7EB9     		cbnz	r6, .L96
 355 0084 A3F14107 		sub	r7, r3, #65
 356 0088 192F     		cmp	r7, #25
 357 008a 0AD8     		bhi	.L97
 358 008c 082A     		cmp	r2, #8
 359 008e 9CF80CE0 		ldrb	lr, [ip, #12]	@ zero_extendqisi2
 360 0092 8CBF     		ite	hi
 361 0094 1027     		movhi	r7, #16
 362 0096 0827     		movls	r7, #8
 363 0098 1EEA070F 		tst	lr, r7
 364 009c 01D0     		beq	.L97
 365 009e 2033     		adds	r3, r3, #32
 366 00a0 DBB2     		uxtb	r3, r3
 367              	.L97:
 368 00a2 A375     		strb	r3, [r4, #22]
 369              	.L96:
 370 00a4 0130     		adds	r0, r0, #1
 371              	.L92:
 372 00a6 0B2A     		cmp	r2, #11
 373 00a8 DFD1     		bne	.L99
 374 00aa 2C18     		adds	r4, r5, r0
 375 00ac B6B1     		cbz	r6, .L117
 376              	.L100:
 377 00ae 0023     		movs	r3, #0
 378 00b0 6372     		strb	r3, [r4, #9]
 379 00b2 9CF80B30 		ldrb	r3, [ip, #11]	@ zero_extendqisi2
 380 00b6 2B72     		strb	r3, [r5, #8]
 381 00b8 DCF81C30 		ldr	r3, [ip, #28]	@ unaligned
 382 00bc 2B60     		str	r3, [r5]
 383 00be DCF81630 		ldr	r3, [ip, #22]	@ unaligned
 384 00c2 1A0C     		lsrs	r2, r3, #16
 385 00c4 EB80     		strh	r3, [r5, #6]	@ movhi
 386 00c6 AA80     		strh	r2, [r5, #4]	@ movhi
 387              	.L85:
 388 00c8 BDE8F081 		pop	{r4, r5, r6, r7, r8, pc}
 389              	.L119:
 390 00cc 2C18     		adds	r4, r5, r0
 391 00ce 0EB9     		cbnz	r6, .L95
 392 00d0 84F81680 		strb	r8, [r4, #22]
 393              	.L95:
 394 00d4 0130     		adds	r0, r0, #1
 395 00d6 84F80980 		strb	r8, [r4, #9]
 396 00da D0E7     		b	.L94
 397              	.L117:
 398 00dc A675     		strb	r6, [r4, #22]
 399 00de 9CF80C30 		ldrb	r3, [ip, #12]	@ zero_extendqisi2
 400 00e2 002B     		cmp	r3, #0
 401 00e4 08BF     		it	eq
 402 00e6 2C46     		moveq	r4, r5
 403 00e8 E1E7     		b	.L100
 404              	.L90:
 405 00ea 0024     		movs	r4, #0
 406 00ec 0023     		movs	r3, #0
 407 00ee 2C44     		add	r4, r4, r5
 408 00f0 A375     		strb	r3, [r4, #22]
ARM GAS  /var/folders/sy/x1dkwsgj58j1lmy_hry3vpdm0000gn/T//cc0MFmUD.s 			page 8


 409 00f2 AE7D     		ldrb	r6, [r5, #22]	@ zero_extendqisi2
 410 00f4 B1E7     		b	.L87
 412 00f6 00BF     		.section	.text.sync_window.part.0,"ax",%progbits
 413              		.align	1
 414              		.p2align 2,,3
 415              		.syntax unified
 416              		.thumb
 417              		.thumb_func
 418              		.fpu fpv5-d16
 420              	sync_window.part.0:
 421              		@ args = 0, pretend = 0, frame = 0
 422              		@ frame_needed = 0, uses_anonymous_args = 0
 423 0000 2DE9F041 		push	{r4, r5, r6, r7, r8, lr}
 424 0004 056B     		ldr	r5, [r0, #48]
 425 0006 00F13408 		add	r8, r0, #52
 426 000a 0446     		mov	r4, r0
 427 000c 0123     		movs	r3, #1
 428 000e 2A46     		mov	r2, r5
 429 0010 4146     		mov	r1, r8
 430 0012 4078     		ldrb	r0, [r0, #1]	@ zero_extendqisi2
 431 0014 FFF7FEFF 		bl	disk_write
 432 0018 C0B9     		cbnz	r0, .L125
 433 001a 626A     		ldr	r2, [r4, #36]
 434 001c 0746     		mov	r7, r0
 435 001e E369     		ldr	r3, [r4, #28]
 436 0020 AA1A     		subs	r2, r5, r2
 437 0022 E070     		strb	r0, [r4, #3]
 438 0024 9A42     		cmp	r2, r3
 439 0026 0ED2     		bcs	.L121
 440 0028 A678     		ldrb	r6, [r4, #2]	@ zero_extendqisi2
 441 002a 012E     		cmp	r6, #1
 442 002c 01D8     		bhi	.L124
 443 002e 0AE0     		b	.L121
 444              	.L130:
 445 0030 E369     		ldr	r3, [r4, #28]
 446              	.L124:
 447 0032 1D44     		add	r5, r5, r3
 448 0034 013E     		subs	r6, r6, #1
 449 0036 0123     		movs	r3, #1
 450 0038 4146     		mov	r1, r8
 451 003a 2A46     		mov	r2, r5
 452 003c 6078     		ldrb	r0, [r4, #1]	@ zero_extendqisi2
 453 003e FFF7FEFF 		bl	disk_write
 454 0042 012E     		cmp	r6, #1
 455 0044 F4D1     		bne	.L130
 456              	.L121:
 457 0046 3846     		mov	r0, r7
 458 0048 BDE8F081 		pop	{r4, r5, r6, r7, r8, pc}
 459              	.L125:
 460 004c 0127     		movs	r7, #1
 461 004e 3846     		mov	r0, r7
 462 0050 BDE8F081 		pop	{r4, r5, r6, r7, r8, pc}
 464              		.section	.text.sync_fs,"ax",%progbits
 465              		.align	1
 466              		.p2align 2,,3
 467              		.syntax unified
 468              		.thumb
ARM GAS  /var/folders/sy/x1dkwsgj58j1lmy_hry3vpdm0000gn/T//cc0MFmUD.s 			page 9


 469              		.thumb_func
 470              		.fpu fpv5-d16
 472              	sync_fs:
 473              		@ args = 0, pretend = 0, frame = 0
 474              		@ frame_needed = 0, uses_anonymous_args = 0
 475 0000 70B5     		push	{r4, r5, r6, lr}
 476 0002 C378     		ldrb	r3, [r0, #3]	@ zero_extendqisi2
 477 0004 0446     		mov	r4, r0
 478 0006 5BB9     		cbnz	r3, .L132
 479 0008 2378     		ldrb	r3, [r4]	@ zero_extendqisi2
 480 000a 032B     		cmp	r3, #3
 481 000c 0FD0     		beq	.L142
 482              	.L134:
 483 000e 0022     		movs	r2, #0
 484 0010 6078     		ldrb	r0, [r4, #1]	@ zero_extendqisi2
 485 0012 1146     		mov	r1, r2
 486 0014 FFF7FEFF 		bl	disk_ioctl
 487 0018 0038     		subs	r0, r0, #0
 488 001a 18BF     		it	ne
 489 001c 0120     		movne	r0, #1
 490              	.L136:
 491 001e 70BD     		pop	{r4, r5, r6, pc}
 492              	.L132:
 493 0020 FFF7FEFF 		bl	sync_window.part.0
 494 0024 0028     		cmp	r0, #0
 495 0026 FAD1     		bne	.L136
 496 0028 2378     		ldrb	r3, [r4]	@ zero_extendqisi2
 497 002a 032B     		cmp	r3, #3
 498 002c EFD1     		bne	.L134
 499              	.L142:
 500 002e 2579     		ldrb	r5, [r4, #4]	@ zero_extendqisi2
 501 0030 012D     		cmp	r5, #1
 502 0032 ECD1     		bne	.L134
 503 0034 04F13406 		add	r6, r4, #52
 504 0038 4FF40072 		mov	r2, #512
 505 003c 0021     		movs	r1, #0
 506 003e 3046     		mov	r0, r6
 507 0040 FFF7FEFF 		bl	memset
 508 0044 5523     		movs	r3, #85
 509 0046 3146     		mov	r1, r6
 510 0048 7226     		movs	r6, #114
 511 004a 84F83232 		strb	r3, [r4, #562]
 512 004e 2B46     		mov	r3, r5
 513 0050 6569     		ldr	r5, [r4, #20]
 514 0052 6120     		movs	r0, #97
 515 0054 84F81862 		strb	r6, [r4, #536]
 516 0058 5222     		movs	r2, #82
 517 005a 84F81962 		strb	r6, [r4, #537]
 518 005e 2E0A     		lsrs	r6, r5, #8
 519 0060 84F83600 		strb	r0, [r4, #54]
 520 0064 84F81B02 		strb	r0, [r4, #539]
 521 0068 84F81C52 		strb	r5, [r4, #540]
 522 006c 2069     		ldr	r0, [r4, #16]
 523 006e 84F81D62 		strb	r6, [r4, #541]
 524 0072 2E0C     		lsrs	r6, r5, #16
 525 0074 2D0E     		lsrs	r5, r5, #24
 526 0076 84F83420 		strb	r2, [r4, #52]
ARM GAS  /var/folders/sy/x1dkwsgj58j1lmy_hry3vpdm0000gn/T//cc0MFmUD.s 			page 10


 527 007a 84F83520 		strb	r2, [r4, #53]
 528 007e 4122     		movs	r2, #65
 529 0080 84F81F52 		strb	r5, [r4, #543]
 530 0084 050A     		lsrs	r5, r0, #8
 531 0086 84F83720 		strb	r2, [r4, #55]
 532 008a 84F81A22 		strb	r2, [r4, #538]
 533 008e 84F82002 		strb	r0, [r4, #544]
 534 0092 226A     		ldr	r2, [r4, #32]
 535 0094 84F82152 		strb	r5, [r4, #545]
 536 0098 050C     		lsrs	r5, r0, #16
 537 009a 000E     		lsrs	r0, r0, #24
 538 009c 0132     		adds	r2, r2, #1
 539 009e 84F81E62 		strb	r6, [r4, #542]
 540 00a2 84F82302 		strb	r0, [r4, #547]
 541 00a6 AA20     		movs	r0, #170
 542 00a8 2263     		str	r2, [r4, #48]
 543 00aa 84F83302 		strb	r0, [r4, #563]
 544 00ae 84F82252 		strb	r5, [r4, #546]
 545 00b2 6078     		ldrb	r0, [r4, #1]	@ zero_extendqisi2
 546 00b4 FFF7FEFF 		bl	disk_write
 547 00b8 0023     		movs	r3, #0
 548 00ba 2371     		strb	r3, [r4, #4]
 549 00bc A7E7     		b	.L134
 551 00be 00BF     		.section	.text.move_window.part.0,"ax",%progbits
 552              		.align	1
 553              		.p2align 2,,3
 554              		.syntax unified
 555              		.thumb
 556              		.thumb_func
 557              		.fpu fpv5-d16
 559              	move_window.part.0:
 560              		@ args = 0, pretend = 0, frame = 0
 561              		@ frame_needed = 0, uses_anonymous_args = 0
 562 0000 38B5     		push	{r3, r4, r5, lr}
 563 0002 C378     		ldrb	r3, [r0, #3]	@ zero_extendqisi2
 564 0004 0446     		mov	r4, r0
 565 0006 0D46     		mov	r5, r1
 566 0008 63B9     		cbnz	r3, .L144
 567              	.L146:
 568 000a 0123     		movs	r3, #1
 569 000c 2A46     		mov	r2, r5
 570 000e 04F13401 		add	r1, r4, #52
 571 0012 6078     		ldrb	r0, [r4, #1]	@ zero_extendqisi2
 572 0014 FFF7FEFF 		bl	disk_read
 573 0018 10B1     		cbz	r0, .L145
 574 001a 0120     		movs	r0, #1
 575 001c 4FF0FF35 		mov	r5, #-1
 576              	.L145:
 577 0020 2563     		str	r5, [r4, #48]
 578 0022 38BD     		pop	{r3, r4, r5, pc}
 579              	.L144:
 580 0024 FFF7FEFF 		bl	sync_window.part.0
 581 0028 0028     		cmp	r0, #0
 582 002a EED0     		beq	.L146
 583 002c 38BD     		pop	{r3, r4, r5, pc}
 585 002e 00BF     		.section	.text.check_fs,"ax",%progbits
 586              		.align	1
ARM GAS  /var/folders/sy/x1dkwsgj58j1lmy_hry3vpdm0000gn/T//cc0MFmUD.s 			page 11


 587              		.p2align 2,,3
 588              		.syntax unified
 589              		.thumb
 590              		.thumb_func
 591              		.fpu fpv5-d16
 593              	check_fs:
 594              		@ args = 0, pretend = 0, frame = 0
 595              		@ frame_needed = 0, uses_anonymous_args = 0
 596 0000 70B5     		push	{r4, r5, r6, lr}
 597 0002 4FF0FF36 		mov	r6, #-1
 598 0006 0023     		movs	r3, #0
 599 0008 0446     		mov	r4, r0
 600 000a B142     		cmp	r1, r6
 601 000c C370     		strb	r3, [r0, #3]
 602 000e 0663     		str	r6, [r0, #48]
 603 0010 0CD0     		beq	.L156
 604 0012 0D46     		mov	r5, r1
 605 0014 0A46     		mov	r2, r1
 606 0016 0123     		movs	r3, #1
 607 0018 00F13401 		add	r1, r0, #52
 608 001c 4078     		ldrb	r0, [r0, #1]	@ zero_extendqisi2
 609 001e FFF7FEFF 		bl	disk_read
 610 0022 10B1     		cbz	r0, .L171
 611 0024 0420     		movs	r0, #4
 612 0026 2663     		str	r6, [r4, #48]
 613 0028 70BD     		pop	{r4, r5, r6, pc}
 614              	.L171:
 615 002a 2563     		str	r5, [r4, #48]
 616              	.L156:
 617 002c 4AF65523 		movw	r3, #43605
 618 0030 B4F83222 		ldrh	r2, [r4, #562]	@ unaligned
 619 0034 9A42     		cmp	r2, r3
 620 0036 1AD1     		bne	.L160
 621 0038 94F83430 		ldrb	r3, [r4, #52]	@ zero_extendqisi2
 622 003c E92B     		cmp	r3, #233
 623 003e 07D0     		beq	.L159
 624 0040 636B     		ldr	r3, [r4, #52]
 625 0042 0D4A     		ldr	r2, .L172
 626 0044 03F0FF13 		and	r3, r3, #16711935
 627 0048 9342     		cmp	r3, r2
 628 004a 01D0     		beq	.L159
 629 004c 0220     		movs	r0, #2
 630 004e 70BD     		pop	{r4, r5, r6, pc}
 631              	.L159:
 632 0050 D4F86A30 		ldr	r3, [r4, #106]	@ unaligned
 633 0054 094A     		ldr	r2, .L172+4
 634 0056 23F07F43 		bic	r3, r3, #-16777216
 635 005a 9342     		cmp	r3, r2
 636 005c 09D0     		beq	.L162
 637 005e D4F88600 		ldr	r0, [r4, #134]	@ unaligned
 638 0062 074B     		ldr	r3, .L172+8
 639 0064 9842     		cmp	r0, r3
 640 0066 14BF     		ite	ne
 641 0068 0220     		movne	r0, #2
 642 006a 0020     		moveq	r0, #0
 643 006c 70BD     		pop	{r4, r5, r6, pc}
 644              	.L160:
ARM GAS  /var/folders/sy/x1dkwsgj58j1lmy_hry3vpdm0000gn/T//cc0MFmUD.s 			page 12


 645 006e 0320     		movs	r0, #3
 646 0070 70BD     		pop	{r4, r5, r6, pc}
 647              	.L162:
 648 0072 0020     		movs	r0, #0
 649 0074 70BD     		pop	{r4, r5, r6, pc}
 650              	.L173:
 651 0076 00BF     		.align	2
 652              	.L172:
 653 0078 EB009000 		.word	9437419
 654 007c 46415400 		.word	5521734
 655 0080 46415433 		.word	861159750
 657              		.section	.text.find_volume,"ax",%progbits
 658              		.align	1
 659              		.p2align 2,,3
 660              		.syntax unified
 661              		.thumb
 662              		.thumb_func
 663              		.fpu fpv5-d16
 665              	find_volume:
 666              		@ args = 0, pretend = 0, frame = 16
 667              		@ frame_needed = 0, uses_anonymous_args = 0
 668 0000 0023     		movs	r3, #0
 669 0002 F0B5     		push	{r4, r5, r6, r7, lr}
 670 0004 0B60     		str	r3, [r1]
 671 0006 85B0     		sub	sp, sp, #20
 672 0008 0E46     		mov	r6, r1
 673 000a 1446     		mov	r4, r2
 674 000c FFF7FEFF 		bl	get_ldnumber
 675 0010 051E     		subs	r5, r0, #0
 676 0012 C0F2C180 		blt	.L203
 677 0016 924B     		ldr	r3, .L253
 678 0018 53F82570 		ldr	r7, [r3, r5, lsl #2]
 679 001c 002F     		cmp	r7, #0
 680 001e 00F0C880 		beq	.L204
 681 0022 3760     		str	r7, [r6]
 682 0024 04F0FE04 		and	r4, r4, #254
 683 0028 3B78     		ldrb	r3, [r7]	@ zero_extendqisi2
 684 002a 7BB1     		cbz	r3, .L176
 685 002c 7878     		ldrb	r0, [r7, #1]	@ zero_extendqisi2
 686 002e FFF7FEFF 		bl	disk_status
 687 0032 C607     		lsls	r6, r0, #31
 688 0034 0AD4     		bmi	.L176
 689 0036 002C     		cmp	r4, #0
 690 0038 00F0A780 		beq	.L212
 691 003c 10F00404 		ands	r4, r0, #4
 692 0040 00F0A380 		beq	.L212
 693              	.L178:
 694 0044 0A24     		movs	r4, #10
 695 0046 2046     		mov	r0, r4
 696 0048 05B0     		add	sp, sp, #20
 697              		@ sp needed
 698 004a F0BD     		pop	{r4, r5, r6, r7, pc}
 699              	.L176:
 700 004c E8B2     		uxtb	r0, r5
 701 004e 0023     		movs	r3, #0
 702 0050 7870     		strb	r0, [r7, #1]
 703 0052 3B70     		strb	r3, [r7]
ARM GAS  /var/folders/sy/x1dkwsgj58j1lmy_hry3vpdm0000gn/T//cc0MFmUD.s 			page 13


 704 0054 FFF7FEFF 		bl	disk_initialize
 705 0058 C507     		lsls	r5, r0, #31
 706 005a 00F19980 		bmi	.L205
 707 005e 0CB1     		cbz	r4, .L177
 708 0060 4407     		lsls	r4, r0, #29
 709 0062 EFD4     		bmi	.L178
 710              	.L177:
 711 0064 0021     		movs	r1, #0
 712 0066 3846     		mov	r0, r7
 713 0068 FFF7FEFF 		bl	check_fs
 714 006c 0228     		cmp	r0, #2
 715 006e 72D0     		beq	.L248
 716 0070 0428     		cmp	r0, #4
 717 0072 00F09580 		beq	.L211
 718 0076 0128     		cmp	r0, #1
 719 0078 00F28680 		bhi	.L186
 720 007c 0025     		movs	r5, #0
 721              	.L183:
 722 007e B7F83F30 		ldrh	r3, [r7, #63]	@ unaligned
 723 0082 B3F5007F 		cmp	r3, #512
 724 0086 7FD1     		bne	.L186
 725 0088 B7F84A20 		ldrh	r2, [r7, #74]	@ unaligned
 726 008c 02B9     		cbnz	r2, .L187
 727 008e BA6D     		ldr	r2, [r7, #88]	@ unaligned
 728              	.L187:
 729 0090 97F84430 		ldrb	r3, [r7, #68]	@ zero_extendqisi2
 730 0094 FA61     		str	r2, [r7, #28]
 731 0096 591E     		subs	r1, r3, #1
 732 0098 BB70     		strb	r3, [r7, #2]
 733 009a 0129     		cmp	r1, #1
 734 009c 74D8     		bhi	.L186
 735 009e 97F84110 		ldrb	r1, [r7, #65]	@ zero_extendqisi2
 736 00a2 88B2     		uxth	r0, r1
 737 00a4 7881     		strh	r0, [r7, #10]	@ movhi
 738 00a6 0028     		cmp	r0, #0
 739 00a8 6ED0     		beq	.L186
 740 00aa 481E     		subs	r0, r1, #1
 741 00ac 0842     		tst	r0, r1
 742 00ae 6BD1     		bne	.L186
 743 00b0 B7F84560 		ldrh	r6, [r7, #69]	@ unaligned
 744 00b4 3007     		lsls	r0, r6, #28
 745 00b6 3E81     		strh	r6, [r7, #8]	@ movhi
 746 00b8 66D1     		bne	.L186
 747 00ba B7F84700 		ldrh	r0, [r7, #71]	@ unaligned
 748 00be 00B9     		cbnz	r0, .L188
 749 00c0 786D     		ldr	r0, [r7, #84]	@ unaligned
 750              	.L188:
 751 00c2 B7F842E0 		ldrh	lr, [r7, #66]	@ unaligned
 752 00c6 BEF1000F 		cmp	lr, #0
 753 00ca 5DD0     		beq	.L186
 754 00cc 02FB03F3 		mul	r3, r2, r3
 755 00d0 0EEB1614 		add	r4, lr, r6, lsr #4
 756 00d4 1C44     		add	r4, r4, r3
 757 00d6 A042     		cmp	r0, r4
 758 00d8 56D3     		bcc	.L186
 759 00da 001B     		subs	r0, r0, r4
 760 00dc 8842     		cmp	r0, r1
ARM GAS  /var/folders/sy/x1dkwsgj58j1lmy_hry3vpdm0000gn/T//cc0MFmUD.s 			page 14


 761 00de B0FBF1FC 		udiv	ip, r0, r1
 762 00e2 51D3     		bcc	.L186
 763 00e4 4FF6F571 		movw	r1, #65525
 764 00e8 8C45     		cmp	ip, r1
 765 00ea 64D8     		bhi	.L189
 766 00ec 40F6F571 		movw	r1, #4085
 767 00f0 0EEB0500 		add	r0, lr, r5
 768 00f4 2C44     		add	r4, r4, r5
 769 00f6 3D62     		str	r5, [r7, #32]
 770 00f8 8C45     		cmp	ip, r1
 771 00fa 0CF10201 		add	r1, ip, #2
 772 00fe FC62     		str	r4, [r7, #44]
 773 0100 B961     		str	r1, [r7, #24]
 774 0102 7862     		str	r0, [r7, #36]
 775 0104 7FD8     		bhi	.L190
 776 0106 002E     		cmp	r6, #0
 777 0108 3ED0     		beq	.L186
 778 010a 0344     		add	r3, r3, r0
 779 010c 01EB4100 		add	r0, r1, r1, lsl #1
 780 0110 01F00101 		and	r1, r1, #1
 781 0114 BB62     		str	r3, [r7, #40]
 782 0116 01EB5001 		add	r1, r1, r0, lsr #1
 783 011a 0120     		movs	r0, #1
 784              	.L202:
 785 011c 01F2FF11 		addw	r1, r1, #511
 786 0120 B2EB512F 		cmp	r2, r1, lsr #9
 787 0124 30D3     		bcc	.L186
 788 0126 4FF0FF33 		mov	r3, #-1
 789 012a 8022     		movs	r2, #128
 790 012c C7E90433 		strd	r3, r3, [r7, #16]
 791 0130 3A71     		strb	r2, [r7, #4]
 792              	.L198:
 793 0132 4C49     		ldr	r1, .L253+4
 794 0134 4C4A     		ldr	r2, .L253+8
 795 0136 0B88     		ldrh	r3, [r1]
 796 0138 3870     		strb	r0, [r7]
 797 013a 0133     		adds	r3, r3, #1
 798 013c 1068     		ldr	r0, [r2]
 799 013e 4B4C     		ldr	r4, .L253+12
 800 0140 9BB2     		uxth	r3, r3
 801 0142 8742     		cmp	r7, r0
 802 0144 FC60     		str	r4, [r7, #12]
 803 0146 0B80     		strh	r3, [r1]	@ movhi
 804 0148 FB80     		strh	r3, [r7, #6]	@ movhi
 805 014a 59D0     		beq	.L249
 806              	.L199:
 807 014c 1369     		ldr	r3, [r2, #16]
 808 014e 9F42     		cmp	r7, r3
 809 0150 52D0     		beq	.L250
 810 0152 0024     		movs	r4, #0
 811 0154 19E0     		b	.L212
 812              	.L248:
 813 0156 6C46     		mov	r4, sp
 814 0158 07F5F973 		add	r3, r7, #498
 815 015c 07F23225 		addw	r5, r7, #562
 816 0160 2046     		mov	r0, r4
 817              	.L181:
ARM GAS  /var/folders/sy/x1dkwsgj58j1lmy_hry3vpdm0000gn/T//cc0MFmUD.s 			page 15


 818 0162 1A79     		ldrb	r2, [r3, #4]	@ zero_extendqisi2
 819 0164 1146     		mov	r1, r2
 820 0166 02B1     		cbz	r2, .L180
 821 0168 9968     		ldr	r1, [r3, #8]	@ unaligned
 822              	.L180:
 823 016a 1033     		adds	r3, r3, #16
 824 016c 40F8041B 		str	r1, [r0], #4
 825 0170 9D42     		cmp	r5, r3
 826 0172 F6D1     		bne	.L181
 827 0174 04F11006 		add	r6, r4, #16
 828              	.L184:
 829 0178 54F8045B 		ldr	r5, [r4], #4
 830 017c 0320     		movs	r0, #3
 831 017e 8DB9     		cbnz	r5, .L251
 832              	.L182:
 833 0180 B442     		cmp	r4, r6
 834 0182 F9D1     		bne	.L184
 835 0184 0428     		cmp	r0, #4
 836 0186 0BD0     		beq	.L211
 837              	.L186:
 838 0188 0D24     		movs	r4, #13
 839              	.L212:
 840 018a 2046     		mov	r0, r4
 841 018c 05B0     		add	sp, sp, #20
 842              		@ sp needed
 843 018e F0BD     		pop	{r4, r5, r6, r7, pc}
 844              	.L205:
 845 0190 0324     		movs	r4, #3
 846 0192 2046     		mov	r0, r4
 847 0194 05B0     		add	sp, sp, #20
 848              		@ sp needed
 849 0196 F0BD     		pop	{r4, r5, r6, r7, pc}
 850              	.L203:
 851 0198 0B24     		movs	r4, #11
 852 019a 2046     		mov	r0, r4
 853 019c 05B0     		add	sp, sp, #20
 854              		@ sp needed
 855 019e F0BD     		pop	{r4, r5, r6, r7, pc}
 856              	.L211:
 857 01a0 0124     		movs	r4, #1
 858 01a2 F2E7     		b	.L212
 859              	.L251:
 860 01a4 2946     		mov	r1, r5
 861 01a6 3846     		mov	r0, r7
 862 01a8 FFF7FEFF 		bl	check_fs
 863 01ac 0128     		cmp	r0, #1
 864 01ae E7D8     		bhi	.L182
 865 01b0 65E7     		b	.L183
 866              	.L204:
 867 01b2 0C24     		movs	r4, #12
 868 01b4 E9E7     		b	.L212
 869              	.L189:
 870 01b6 0EEB0501 		add	r1, lr, r5
 871 01ba 0CF10203 		add	r3, ip, #2
 872 01be 2C44     		add	r4, r4, r5
 873 01c0 3D62     		str	r5, [r7, #32]
 874 01c2 7962     		str	r1, [r7, #36]
ARM GAS  /var/folders/sy/x1dkwsgj58j1lmy_hry3vpdm0000gn/T//cc0MFmUD.s 			page 16


 875 01c4 B7F85E10 		ldrh	r1, [r7, #94]	@ unaligned
 876 01c8 FC62     		str	r4, [r7, #44]
 877 01ca 3143     		orrs	r1, r1, r6
 878 01cc BB61     		str	r3, [r7, #24]
 879 01ce DBD1     		bne	.L186
 880 01d0 9B00     		lsls	r3, r3, #2
 881 01d2 396E     		ldr	r1, [r7, #96]	@ unaligned
 882 01d4 03F2FF13 		addw	r3, r3, #511
 883 01d8 B962     		str	r1, [r7, #40]
 884 01da B2EB532F 		cmp	r2, r3, lsr #9
 885 01de D3D3     		bcc	.L186
 886 01e0 B7F86420 		ldrh	r2, [r7, #100]	@ unaligned
 887 01e4 4FF0FF33 		mov	r3, #-1
 888 01e8 8021     		movs	r1, #128
 889 01ea 012A     		cmp	r2, #1
 890 01ec 3971     		strb	r1, [r7, #4]
 891 01ee C7E90433 		strd	r3, r3, [r7, #16]
 892 01f2 0FD0     		beq	.L252
 893              	.L196:
 894 01f4 0320     		movs	r0, #3
 895 01f6 9CE7     		b	.L198
 896              	.L250:
 897 01f8 0023     		movs	r3, #0
 898 01fa 1C46     		mov	r4, r3
 899 01fc 1361     		str	r3, [r2, #16]
 900 01fe C4E7     		b	.L212
 901              	.L249:
 902 0200 0023     		movs	r3, #0
 903 0202 1360     		str	r3, [r2]
 904 0204 A2E7     		b	.L199
 905              	.L190:
 906 0206 002E     		cmp	r6, #0
 907 0208 BED0     		beq	.L186
 908 020a 0344     		add	r3, r3, r0
 909 020c 4900     		lsls	r1, r1, #1
 910 020e 0220     		movs	r0, #2
 911 0210 BB62     		str	r3, [r7, #40]
 912 0212 83E7     		b	.L202
 913              	.L252:
 914 0214 691C     		adds	r1, r5, #1
 915 0216 3B6B     		ldr	r3, [r7, #48]
 916 0218 9942     		cmp	r1, r3
 917 021a 04D0     		beq	.L197
 918 021c 3846     		mov	r0, r7
 919 021e FFF7FEFF 		bl	move_window.part.0
 920 0222 0028     		cmp	r0, #0
 921 0224 E6D1     		bne	.L196
 922              	.L197:
 923 0226 4AF65523 		movw	r3, #43605
 924 022a B7F83222 		ldrh	r2, [r7, #562]	@ unaligned
 925 022e 0021     		movs	r1, #0
 926 0230 9A42     		cmp	r2, r3
 927 0232 3971     		strb	r1, [r7, #4]
 928 0234 DED1     		bne	.L196
 929 0236 7A6B     		ldr	r2, [r7, #52]	@ unaligned
 930 0238 0D4B     		ldr	r3, .L253+16
 931 023a 9A42     		cmp	r2, r3
ARM GAS  /var/folders/sy/x1dkwsgj58j1lmy_hry3vpdm0000gn/T//cc0MFmUD.s 			page 17


 932 023c DAD1     		bne	.L196
 933 023e 03F1FF53 		add	r3, r3, #534773760
 934 0242 D7F81822 		ldr	r2, [r7, #536]	@ unaligned
 935 0246 03F50053 		add	r3, r3, #8192
 936 024a 2033     		adds	r3, r3, #32
 937 024c 9A42     		cmp	r2, r3
 938 024e D1D1     		bne	.L196
 939 0250 D7F81C22 		ldr	r2, [r7, #540]	@ unaligned
 940 0254 0320     		movs	r0, #3
 941 0256 D7F82032 		ldr	r3, [r7, #544]	@ unaligned
 942 025a C7E90432 		strd	r3, r2, [r7, #16]
 943 025e 68E7     		b	.L198
 944              	.L254:
 945              		.align	2
 946              	.L253:
 947 0260 00000000 		.word	.LANCHOR1
 948 0264 00000000 		.word	.LANCHOR2
 949 0268 00000000 		.word	.LANCHOR0
 950 026c 00000000 		.word	.LANCHOR3
 951 0270 52526141 		.word	1096897106
 953              		.section	.text.put_fat.part.0,"ax",%progbits
 954              		.align	1
 955              		.p2align 2,,3
 956              		.syntax unified
 957              		.thumb
 958              		.thumb_func
 959              		.fpu fpv5-d16
 961              	put_fat.part.0:
 962              		@ args = 0, pretend = 0, frame = 0
 963              		@ frame_needed = 0, uses_anonymous_args = 0
 964 0000 2DE9F843 		push	{r3, r4, r5, r6, r7, r8, r9, lr}
 965 0004 0378     		ldrb	r3, [r0]	@ zero_extendqisi2
 966 0006 0446     		mov	r4, r0
 967 0008 0D46     		mov	r5, r1
 968 000a 1646     		mov	r6, r2
 969 000c 022B     		cmp	r3, #2
 970 000e 06D0     		beq	.L256
 971 0010 032B     		cmp	r3, #3
 972 0012 6AD0     		beq	.L257
 973 0014 012B     		cmp	r3, #1
 974 0016 27D0     		beq	.L301
 975 0018 0220     		movs	r0, #2
 976              	.L283:
 977 001a BDE8F883 		pop	{r3, r4, r5, r6, r7, r8, r9, pc}
 978              	.L256:
 979 001e 476A     		ldr	r7, [r0, #36]
 980 0020 036B     		ldr	r3, [r0, #48]
 981 0022 07EB1127 		add	r7, r7, r1, lsr #8
 982 0026 9F42     		cmp	r7, r3
 983 0028 00F09080 		beq	.L302
 984 002c C378     		ldrb	r3, [r0, #3]	@ zero_extendqisi2
 985 002e 002B     		cmp	r3, #0
 986 0030 40F0B680 		bne	.L273
 987              	.L275:
 988 0034 04F13408 		add	r8, r4, #52
 989 0038 0123     		movs	r3, #1
 990 003a 3A46     		mov	r2, r7
ARM GAS  /var/folders/sy/x1dkwsgj58j1lmy_hry3vpdm0000gn/T//cc0MFmUD.s 			page 18


 991 003c 6078     		ldrb	r0, [r4, #1]	@ zero_extendqisi2
 992 003e 4146     		mov	r1, r8
 993 0040 FFF7FEFF 		bl	disk_read
 994 0044 0028     		cmp	r0, #0
 995 0046 4AD1     		bne	.L262
 996 0048 2763     		str	r7, [r4, #48]
 997              	.L272:
 998 004a 6D00     		lsls	r5, r5, #1
 999 004c C6F30722 		ubfx	r2, r6, #8, #8
 1000 0050 0123     		movs	r3, #1
 1001 0052 0020     		movs	r0, #0
 1002 0054 05F4FF75 		and	r5, r5, #510
 1003 0058 08EB0501 		add	r1, r8, r5
 1004 005c 08F80560 		strb	r6, [r8, r5]
 1005 0060 4A70     		strb	r2, [r1, #1]
 1006 0062 E370     		strb	r3, [r4, #3]
 1007 0064 BDE8F883 		pop	{r3, r4, r5, r6, r7, r8, r9, pc}
 1008              	.L301:
 1009 0068 01EB5107 		add	r7, r1, r1, lsr #1
 1010 006c 426A     		ldr	r2, [r0, #36]
 1011 006e 036B     		ldr	r3, [r0, #48]
 1012 0070 02EB5728 		add	r8, r2, r7, lsr #9
 1013 0074 9845     		cmp	r8, r3
 1014 0076 63D0     		beq	.L303
 1015 0078 C378     		ldrb	r3, [r0, #3]	@ zero_extendqisi2
 1016 007a 002B     		cmp	r3, #0
 1017 007c 40F08A80 		bne	.L261
 1018              	.L264:
 1019 0080 04F13409 		add	r9, r4, #52
 1020 0084 0123     		movs	r3, #1
 1021 0086 4246     		mov	r2, r8
 1022 0088 6078     		ldrb	r0, [r4, #1]	@ zero_extendqisi2
 1023 008a 4946     		mov	r1, r9
 1024 008c FFF7FEFF 		bl	disk_read
 1025 0090 28BB     		cbnz	r0, .L262
 1026 0092 C4F83080 		str	r8, [r4, #48]
 1027              	.L260:
 1028 0096 15F00105 		ands	r5, r5, #1
 1029 009a 07F10108 		add	r8, r7, #1
 1030 009e C7F30807 		ubfx	r7, r7, #0, #9
 1031 00a2 5ED0     		beq	.L265
 1032 00a4 19F80730 		ldrb	r3, [r9, r7]	@ zero_extendqisi2
 1033 00a8 03F00F03 		and	r3, r3, #15
 1034 00ac 43EA0613 		orr	r3, r3, r6, lsl #4
 1035 00b0 09F80730 		strb	r3, [r9, r7]
 1036 00b4 0123     		movs	r3, #1
 1037 00b6 676A     		ldr	r7, [r4, #36]
 1038 00b8 E370     		strb	r3, [r4, #3]
 1039 00ba 07EB5827 		add	r7, r7, r8, lsr #9
 1040 00be 236B     		ldr	r3, [r4, #48]
 1041 00c0 9F42     		cmp	r7, r3
 1042 00c2 78D0     		beq	.L304
 1043              	.L266:
 1044 00c4 2046     		mov	r0, r4
 1045 00c6 FFF7FEFF 		bl	sync_window.part.0
 1046 00ca 0028     		cmp	r0, #0
 1047 00cc A5D1     		bne	.L283
ARM GAS  /var/folders/sy/x1dkwsgj58j1lmy_hry3vpdm0000gn/T//cc0MFmUD.s 			page 19


 1048 00ce 0123     		movs	r3, #1
 1049 00d0 3A46     		mov	r2, r7
 1050 00d2 4946     		mov	r1, r9
 1051 00d4 6078     		ldrb	r0, [r4, #1]	@ zero_extendqisi2
 1052 00d6 FFF7FEFF 		bl	disk_read
 1053 00da 0028     		cmp	r0, #0
 1054 00dc 39D0     		beq	.L305
 1055              	.L262:
 1056 00de 4FF0FF33 		mov	r3, #-1
 1057 00e2 0120     		movs	r0, #1
 1058 00e4 2363     		str	r3, [r4, #48]
 1059 00e6 BDE8F883 		pop	{r3, r4, r5, r6, r7, r8, r9, pc}
 1060              	.L257:
 1061 00ea 426A     		ldr	r2, [r0, #36]
 1062 00ec 036B     		ldr	r3, [r0, #48]
 1063 00ee 02EBD118 		add	r8, r2, r1, lsr #7
 1064 00f2 9845     		cmp	r8, r3
 1065 00f4 27D0     		beq	.L306
 1066 00f6 C378     		ldrb	r3, [r0, #3]	@ zero_extendqisi2
 1067 00f8 002B     		cmp	r3, #0
 1068 00fa 57D1     		bne	.L278
 1069              	.L280:
 1070 00fc 04F13407 		add	r7, r4, #52
 1071 0100 0123     		movs	r3, #1
 1072 0102 4246     		mov	r2, r8
 1073 0104 6078     		ldrb	r0, [r4, #1]	@ zero_extendqisi2
 1074 0106 3946     		mov	r1, r7
 1075 0108 FFF7FEFF 		bl	disk_read
 1076 010c 0028     		cmp	r0, #0
 1077 010e E6D1     		bne	.L262
 1078 0110 C4F83080 		str	r8, [r4, #48]
 1079              	.L277:
 1080 0114 AD00     		lsls	r5, r5, #2
 1081 0116 26F07042 		bic	r2, r6, #-268435456
 1082 011a 05F4FE75 		and	r5, r5, #508
 1083 011e 7B59     		ldr	r3, [r7, r5]	@ unaligned
 1084 0120 7919     		adds	r1, r7, r5
 1085 0122 03F07043 		and	r3, r3, #-268435456
 1086 0126 1A43     		orrs	r2, r2, r3
 1087 0128 130C     		lsrs	r3, r2, #16
 1088 012a 7A55     		strb	r2, [r7, r5]
 1089 012c 100A     		lsrs	r0, r2, #8
 1090 012e 8B70     		strb	r3, [r1, #2]
 1091 0130 120E     		lsrs	r2, r2, #24
 1092 0132 0123     		movs	r3, #1
 1093 0134 4870     		strb	r0, [r1, #1]
 1094 0136 CA70     		strb	r2, [r1, #3]
 1095 0138 0020     		movs	r0, #0
 1096 013a E370     		strb	r3, [r4, #3]
 1097 013c BDE8F883 		pop	{r3, r4, r5, r6, r7, r8, r9, pc}
 1098              	.L303:
 1099 0140 00F13409 		add	r9, r0, #52
 1100 0144 A7E7     		b	.L260
 1101              	.L306:
 1102 0146 00F13407 		add	r7, r0, #52
 1103 014a E3E7     		b	.L277
 1104              	.L302:
ARM GAS  /var/folders/sy/x1dkwsgj58j1lmy_hry3vpdm0000gn/T//cc0MFmUD.s 			page 20


 1105 014c 00F13408 		add	r8, r0, #52
 1106 0150 7BE7     		b	.L272
 1107              	.L305:
 1108 0152 C8F30801 		ubfx	r1, r8, #0, #9
 1109 0156 2763     		str	r7, [r4, #48]
 1110 0158 4944     		add	r1, r1, r9
 1111 015a 7DB1     		cbz	r5, .L269
 1112              	.L281:
 1113 015c C6F30712 		ubfx	r2, r6, #4, #8
 1114 0160 12E0     		b	.L270
 1115              	.L265:
 1116 0162 09F80760 		strb	r6, [r9, r7]
 1117 0166 0123     		movs	r3, #1
 1118 0168 676A     		ldr	r7, [r4, #36]
 1119 016a E370     		strb	r3, [r4, #3]
 1120 016c 07EB5827 		add	r7, r7, r8, lsr #9
 1121 0170 236B     		ldr	r3, [r4, #48]
 1122 0172 9F42     		cmp	r7, r3
 1123 0174 A6D1     		bne	.L266
 1124 0176 C8F30801 		ubfx	r1, r8, #0, #9
 1125 017a 4944     		add	r1, r1, r9
 1126              	.L269:
 1127 017c 0B78     		ldrb	r3, [r1]	@ zero_extendqisi2
 1128 017e C6F30322 		ubfx	r2, r6, #8, #4
 1129 0182 23F00F06 		bic	r6, r3, #15
 1130 0186 3243     		orrs	r2, r2, r6
 1131              	.L270:
 1132 0188 0123     		movs	r3, #1
 1133 018a 0A70     		strb	r2, [r1]
 1134 018c 0020     		movs	r0, #0
 1135 018e E370     		strb	r3, [r4, #3]
 1136 0190 BDE8F883 		pop	{r3, r4, r5, r6, r7, r8, r9, pc}
 1137              	.L261:
 1138 0194 FFF7FEFF 		bl	sync_window.part.0
 1139 0198 0028     		cmp	r0, #0
 1140 019a 3FF471AF 		beq	.L264
 1141 019e 3CE7     		b	.L283
 1142              	.L273:
 1143 01a0 FFF7FEFF 		bl	sync_window.part.0
 1144 01a4 0028     		cmp	r0, #0
 1145 01a6 3FF445AF 		beq	.L275
 1146 01aa 36E7     		b	.L283
 1147              	.L278:
 1148 01ac FFF7FEFF 		bl	sync_window.part.0
 1149 01b0 0028     		cmp	r0, #0
 1150 01b2 A3D0     		beq	.L280
 1151 01b4 31E7     		b	.L283
 1152              	.L304:
 1153 01b6 C8F30803 		ubfx	r3, r8, #0, #9
 1154 01ba 09EB0301 		add	r1, r9, r3
 1155 01be CDE7     		b	.L281
 1157              		.section	.text.get_fat.isra.0,"ax",%progbits
 1158              		.align	1
 1159              		.p2align 2,,3
 1160              		.syntax unified
 1161              		.thumb
 1162              		.thumb_func
ARM GAS  /var/folders/sy/x1dkwsgj58j1lmy_hry3vpdm0000gn/T//cc0MFmUD.s 			page 21


 1163              		.fpu fpv5-d16
 1165              	get_fat.isra.0:
 1166              		@ args = 0, pretend = 0, frame = 0
 1167              		@ frame_needed = 0, uses_anonymous_args = 0
 1168 0000 0129     		cmp	r1, #1
 1169 0002 4CD9     		bls	.L332
 1170 0004 8369     		ldr	r3, [r0, #24]
 1171 0006 9942     		cmp	r1, r3
 1172 0008 2DE9F041 		push	{r4, r5, r6, r7, r8, lr}
 1173 000c 0C46     		mov	r4, r1
 1174 000e 0546     		mov	r5, r0
 1175 0010 02D3     		bcc	.L355
 1176              	.L334:
 1177 0012 0120     		movs	r0, #1
 1178              	.L307:
 1179 0014 BDE8F081 		pop	{r4, r5, r6, r7, r8, pc}
 1180              	.L355:
 1181 0018 0378     		ldrb	r3, [r0]	@ zero_extendqisi2
 1182 001a 022B     		cmp	r3, #2
 1183 001c 5AD0     		beq	.L309
 1184 001e 032B     		cmp	r3, #3
 1185 0020 3FD0     		beq	.L310
 1186 0022 012B     		cmp	r3, #1
 1187 0024 F5D1     		bne	.L334
 1188 0026 01EB5106 		add	r6, r1, r1, lsr #1
 1189 002a 426A     		ldr	r2, [r0, #36]
 1190 002c 036B     		ldr	r3, [r0, #48]
 1191 002e 02EB5627 		add	r7, r2, r6, lsr #9
 1192 0032 9F42     		cmp	r7, r3
 1193 0034 0ED0     		beq	.L311
 1194 0036 C378     		ldrb	r3, [r0, #3]	@ zero_extendqisi2
 1195 0038 002B     		cmp	r3, #0
 1196 003a 79D1     		bne	.L312
 1197              	.L315:
 1198 003c 0123     		movs	r3, #1
 1199 003e 3A46     		mov	r2, r7
 1200 0040 05F13401 		add	r1, r5, #52
 1201 0044 6878     		ldrb	r0, [r5, #1]	@ zero_extendqisi2
 1202 0046 FFF7FEFF 		bl	disk_read
 1203 004a 0028     		cmp	r0, #0
 1204 004c 5FD1     		bne	.L313
 1205 004e 6A6A     		ldr	r2, [r5, #36]
 1206 0050 3B46     		mov	r3, r7
 1207 0052 2F63     		str	r7, [r5, #48]
 1208              	.L311:
 1209 0054 771C     		adds	r7, r6, #1
 1210 0056 C6F30806 		ubfx	r6, r6, #0, #9
 1211 005a 02EB5728 		add	r8, r2, r7, lsr #9
 1212 005e 2E44     		add	r6, r6, r5
 1213 0060 4345     		cmp	r3, r8
 1214 0062 96F83460 		ldrb	r6, [r6, #52]	@ zero_extendqisi2
 1215 0066 0DD0     		beq	.L316
 1216 0068 EB78     		ldrb	r3, [r5, #3]	@ zero_extendqisi2
 1217 006a 002B     		cmp	r3, #0
 1218 006c 65D1     		bne	.L317
 1219              	.L319:
 1220 006e 0123     		movs	r3, #1
ARM GAS  /var/folders/sy/x1dkwsgj58j1lmy_hry3vpdm0000gn/T//cc0MFmUD.s 			page 22


 1221 0070 4246     		mov	r2, r8
 1222 0072 05F13401 		add	r1, r5, #52
 1223 0076 6878     		ldrb	r0, [r5, #1]	@ zero_extendqisi2
 1224 0078 FFF7FEFF 		bl	disk_read
 1225 007c 0028     		cmp	r0, #0
 1226 007e 46D1     		bne	.L313
 1227 0080 C5F83080 		str	r8, [r5, #48]
 1228              	.L316:
 1229 0084 C7F30807 		ubfx	r7, r7, #0, #9
 1230 0088 E307     		lsls	r3, r4, #31
 1231 008a 3D44     		add	r5, r5, r7
 1232 008c 95F83400 		ldrb	r0, [r5, #52]	@ zero_extendqisi2
 1233 0090 46EA0020 		orr	r0, r6, r0, lsl #8
 1234 0094 4CBF     		ite	mi
 1235 0096 0009     		lsrmi	r0, r0, #4
 1236 0098 C0F30B00 		ubfxpl	r0, r0, #0, #12
 1237 009c BAE7     		b	.L307
 1238              	.L332:
 1239 009e 0120     		movs	r0, #1
 1240 00a0 7047     		bx	lr
 1241              	.L310:
 1242 00a2 466A     		ldr	r6, [r0, #36]
 1243 00a4 036B     		ldr	r3, [r0, #48]
 1244 00a6 06EBD116 		add	r6, r6, r1, lsr #7
 1245 00aa 9E42     		cmp	r6, r3
 1246 00ac 29D0     		beq	.L356
 1247 00ae C378     		ldrb	r3, [r0, #3]	@ zero_extendqisi2
 1248 00b0 93BB     		cbnz	r3, .L329
 1249              	.L331:
 1250 00b2 05F13407 		add	r7, r5, #52
 1251 00b6 0123     		movs	r3, #1
 1252 00b8 3246     		mov	r2, r6
 1253 00ba 6878     		ldrb	r0, [r5, #1]	@ zero_extendqisi2
 1254 00bc 3946     		mov	r1, r7
 1255 00be FFF7FEFF 		bl	disk_read
 1256 00c2 20BB     		cbnz	r0, .L313
 1257 00c4 2E63     		str	r6, [r5, #48]
 1258              	.L328:
 1259 00c6 A400     		lsls	r4, r4, #2
 1260 00c8 04F4FE74 		and	r4, r4, #508
 1261 00cc 3859     		ldr	r0, [r7, r4]	@ unaligned
 1262 00ce 20F07040 		bic	r0, r0, #-268435456
 1263 00d2 9FE7     		b	.L307
 1264              	.L309:
 1265 00d4 466A     		ldr	r6, [r0, #36]
 1266 00d6 036B     		ldr	r3, [r0, #48]
 1267 00d8 06EB1126 		add	r6, r6, r1, lsr #8
 1268 00dc 9E42     		cmp	r6, r3
 1269 00de 13D0     		beq	.L357
 1270 00e0 C378     		ldrb	r3, [r0, #3]	@ zero_extendqisi2
 1271 00e2 03BB     		cbnz	r3, .L324
 1272              	.L326:
 1273 00e4 05F13407 		add	r7, r5, #52
 1274 00e8 0123     		movs	r3, #1
 1275 00ea 3246     		mov	r2, r6
 1276 00ec 6878     		ldrb	r0, [r5, #1]	@ zero_extendqisi2
 1277 00ee 3946     		mov	r1, r7
ARM GAS  /var/folders/sy/x1dkwsgj58j1lmy_hry3vpdm0000gn/T//cc0MFmUD.s 			page 23


 1278 00f0 FFF7FEFF 		bl	disk_read
 1279 00f4 58B9     		cbnz	r0, .L313
 1280 00f6 2E63     		str	r6, [r5, #48]
 1281              	.L323:
 1282 00f8 6400     		lsls	r4, r4, #1
 1283 00fa 04F4FF74 		and	r4, r4, #510
 1284 00fe 385B     		ldrh	r0, [r7, r4]	@ unaligned
 1285 0100 88E7     		b	.L307
 1286              	.L356:
 1287 0102 00F13407 		add	r7, r0, #52
 1288 0106 DEE7     		b	.L328
 1289              	.L357:
 1290 0108 00F13407 		add	r7, r0, #52
 1291 010c F4E7     		b	.L323
 1292              	.L313:
 1293 010e 4FF0FF33 		mov	r3, #-1
 1294 0112 1846     		mov	r0, r3
 1295 0114 2B63     		str	r3, [r5, #48]
 1296 0116 7DE7     		b	.L307
 1297              	.L329:
 1298 0118 FFF7FEFF 		bl	sync_window.part.0
 1299 011c 0028     		cmp	r0, #0
 1300 011e C8D0     		beq	.L331
 1301              	.L320:
 1302 0120 4FF0FF30 		mov	r0, #-1
 1303 0124 76E7     		b	.L307
 1304              	.L324:
 1305 0126 FFF7FEFF 		bl	sync_window.part.0
 1306 012a 0028     		cmp	r0, #0
 1307 012c DAD0     		beq	.L326
 1308 012e F7E7     		b	.L320
 1309              	.L312:
 1310 0130 FFF7FEFF 		bl	sync_window.part.0
 1311 0134 0028     		cmp	r0, #0
 1312 0136 81D0     		beq	.L315
 1313 0138 F2E7     		b	.L320
 1314              	.L317:
 1315 013a 2846     		mov	r0, r5
 1316 013c FFF7FEFF 		bl	sync_window.part.0
 1317 0140 0028     		cmp	r0, #0
 1318 0142 94D0     		beq	.L319
 1319 0144 ECE7     		b	.L320
 1321 0146 00BF     		.section	.text.remove_chain.isra.0,"ax",%progbits
 1322              		.align	1
 1323              		.p2align 2,,3
 1324              		.syntax unified
 1325              		.thumb
 1326              		.thumb_func
 1327              		.fpu fpv5-d16
 1329              	remove_chain.isra.0:
 1330              		@ args = 0, pretend = 0, frame = 0
 1331              		@ frame_needed = 0, uses_anonymous_args = 0
 1332 0000 0129     		cmp	r1, #1
 1333 0002 70B5     		push	{r4, r5, r6, lr}
 1334 0004 0C46     		mov	r4, r1
 1335 0006 34D9     		bls	.L359
 1336 0008 8369     		ldr	r3, [r0, #24]
ARM GAS  /var/folders/sy/x1dkwsgj58j1lmy_hry3vpdm0000gn/T//cc0MFmUD.s 			page 24


 1337 000a 0546     		mov	r5, r0
 1338 000c 9942     		cmp	r1, r3
 1339 000e 30D2     		bcs	.L359
 1340 0010 1146     		mov	r1, r2
 1341 0012 EAB1     		cbz	r2, .L361
 1342 0014 9342     		cmp	r3, r2
 1343 0016 2CD9     		bls	.L359
 1344 0018 012A     		cmp	r2, #1
 1345 001a 2AD0     		beq	.L359
 1346 001c 4FF0FF32 		mov	r2, #-1
 1347 0020 FFF7FEFF 		bl	put_fat.part.0
 1348 0024 A0B1     		cbz	r0, .L361
 1349              	.L362:
 1350 0026 70BD     		pop	{r4, r5, r6, pc}
 1351              	.L379:
 1352 0028 AE69     		ldr	r6, [r5, #24]
 1353 002a B342     		cmp	r3, r6
 1354 002c 21D2     		bcs	.L359
 1355 002e FFF7FEFF 		bl	put_fat.part.0
 1356 0032 0028     		cmp	r0, #0
 1357 0034 F7D1     		bne	.L362
 1358 0036 D5E90523 		ldrd	r2, r3, [r5, #20]
 1359 003a 991E     		subs	r1, r3, #2
 1360 003c 501C     		adds	r0, r2, #1
 1361 003e 8A42     		cmp	r2, r1
 1362 0040 04D2     		bcs	.L365
 1363 0042 2A79     		ldrb	r2, [r5, #4]	@ zero_extendqisi2
 1364 0044 6861     		str	r0, [r5, #20]
 1365 0046 42F00102 		orr	r2, r2, #1
 1366 004a 2A71     		strb	r2, [r5, #4]
 1367              	.L365:
 1368 004c 9C42     		cmp	r4, r3
 1369 004e 12D2     		bcs	.L366
 1370              	.L361:
 1371 0050 2146     		mov	r1, r4
 1372 0052 2846     		mov	r0, r5
 1373 0054 FFF7FEFF 		bl	get_fat.isra.0
 1374 0058 0146     		mov	r1, r0
 1375 005a 2346     		mov	r3, r4
 1376 005c 0022     		movs	r2, #0
 1377 005e 2846     		mov	r0, r5
 1378 0060 0C46     		mov	r4, r1
 1379 0062 41B1     		cbz	r1, .L366
 1380 0064 012C     		cmp	r4, #1
 1381 0066 1946     		mov	r1, r3
 1382 0068 03D0     		beq	.L359
 1383 006a 661C     		adds	r6, r4, #1
 1384 006c 05D0     		beq	.L367
 1385 006e 012B     		cmp	r3, #1
 1386 0070 DAD8     		bhi	.L379
 1387              	.L359:
 1388 0072 0220     		movs	r0, #2
 1389 0074 70BD     		pop	{r4, r5, r6, pc}
 1390              	.L366:
 1391 0076 0020     		movs	r0, #0
 1392 0078 70BD     		pop	{r4, r5, r6, pc}
 1393              	.L367:
ARM GAS  /var/folders/sy/x1dkwsgj58j1lmy_hry3vpdm0000gn/T//cc0MFmUD.s 			page 25


 1394 007a 0120     		movs	r0, #1
 1395 007c 70BD     		pop	{r4, r5, r6, pc}
 1397 007e 00BF     		.section	.text.create_chain.isra.0,"ax",%progbits
 1398              		.align	1
 1399              		.p2align 2,,3
 1400              		.syntax unified
 1401              		.thumb
 1402              		.thumb_func
 1403              		.fpu fpv5-d16
 1405              	create_chain.isra.0:
 1406              		@ args = 0, pretend = 0, frame = 0
 1407              		@ frame_needed = 0, uses_anonymous_args = 0
 1408 0000 F8B5     		push	{r3, r4, r5, r6, r7, lr}
 1409 0002 0546     		mov	r5, r0
 1410 0004 0F46     		mov	r7, r1
 1411 0006 0029     		cmp	r1, #0
 1412 0008 42D1     		bne	.L381
 1413 000a 0669     		ldr	r6, [r0, #16]
 1414 000c 8369     		ldr	r3, [r0, #24]
 1415 000e 96BB     		cbnz	r6, .L382
 1416 0010 0126     		movs	r6, #1
 1417              	.L383:
 1418 0012 3446     		mov	r4, r6
 1419 0014 06E0     		b	.L390
 1420              	.L406:
 1421 0016 0128     		cmp	r0, #1
 1422 0018 2CD0     		beq	.L380
 1423 001a 431C     		adds	r3, r0, #1
 1424 001c 2AD0     		beq	.L380
 1425 001e A642     		cmp	r6, r4
 1426 0020 34D0     		beq	.L389
 1427 0022 AB69     		ldr	r3, [r5, #24]
 1428              	.L390:
 1429 0024 0134     		adds	r4, r4, #1
 1430 0026 2846     		mov	r0, r5
 1431 0028 9C42     		cmp	r4, r3
 1432 002a 03D3     		bcc	.L387
 1433 002c 012E     		cmp	r6, #1
 1434 002e 4FF00204 		mov	r4, #2
 1435 0032 2BD9     		bls	.L389
 1436              	.L387:
 1437 0034 2146     		mov	r1, r4
 1438 0036 FFF7FEFF 		bl	get_fat.isra.0
 1439 003a 0028     		cmp	r0, #0
 1440 003c EBD1     		bne	.L406
 1441 003e 012C     		cmp	r4, #1
 1442 0040 22D9     		bls	.L391
 1443 0042 AB69     		ldr	r3, [r5, #24]
 1444 0044 9C42     		cmp	r4, r3
 1445 0046 1FD2     		bcs	.L391
 1446 0048 4FF0FF32 		mov	r2, #-1
 1447 004c 2146     		mov	r1, r4
 1448 004e 2846     		mov	r0, r5
 1449 0050 FFF7FEFF 		bl	put_fat.part.0
 1450 0054 00B9     		cbnz	r0, .L394
 1451 0056 97B9     		cbnz	r7, .L407
 1452              	.L394:
ARM GAS  /var/folders/sy/x1dkwsgj58j1lmy_hry3vpdm0000gn/T//cc0MFmUD.s 			page 26


 1453 0058 28BB     		cbnz	r0, .L395
 1454 005a 2C61     		str	r4, [r5, #16]
 1455 005c D5E90523 		ldrd	r2, r3, [r5, #20]
 1456 0060 023B     		subs	r3, r3, #2
 1457 0062 9A42     		cmp	r2, r3
 1458 0064 01D8     		bhi	.L396
 1459 0066 013A     		subs	r2, r2, #1
 1460 0068 6A61     		str	r2, [r5, #20]
 1461              	.L396:
 1462 006a 2B79     		ldrb	r3, [r5, #4]	@ zero_extendqisi2
 1463 006c 2046     		mov	r0, r4
 1464 006e 43F00103 		orr	r3, r3, #1
 1465 0072 2B71     		strb	r3, [r5, #4]
 1466              	.L380:
 1467 0074 F8BD     		pop	{r3, r4, r5, r6, r7, pc}
 1468              	.L382:
 1469 0076 9E42     		cmp	r6, r3
 1470 0078 28BF     		it	cs
 1471 007a 0126     		movcs	r6, #1
 1472 007c C9E7     		b	.L383
 1473              	.L407:
 1474 007e 012F     		cmp	r7, #1
 1475 0080 02D0     		beq	.L391
 1476 0082 AB69     		ldr	r3, [r5, #24]
 1477 0084 9F42     		cmp	r7, r3
 1478 0086 13D3     		bcc	.L408
 1479              	.L391:
 1480 0088 0120     		movs	r0, #1
 1481 008a F8BD     		pop	{r3, r4, r5, r6, r7, pc}
 1482              	.L389:
 1483 008c 0020     		movs	r0, #0
 1484 008e F8BD     		pop	{r3, r4, r5, r6, r7, pc}
 1485              	.L381:
 1486 0090 FFF7FEFF 		bl	get_fat.isra.0
 1487 0094 0128     		cmp	r0, #1
 1488 0096 F7D9     		bls	.L391
 1489 0098 421C     		adds	r2, r0, #1
 1490 009a 06D0     		beq	.L386
 1491 009c AB69     		ldr	r3, [r5, #24]
 1492 009e 9842     		cmp	r0, r3
 1493 00a0 E8D3     		bcc	.L380
 1494 00a2 3E46     		mov	r6, r7
 1495 00a4 B5E7     		b	.L383
 1496              	.L395:
 1497 00a6 0128     		cmp	r0, #1
 1498 00a8 EED1     		bne	.L391
 1499              	.L386:
 1500 00aa 4FF0FF30 		mov	r0, #-1
 1501 00ae F8BD     		pop	{r3, r4, r5, r6, r7, pc}
 1502              	.L408:
 1503 00b0 2246     		mov	r2, r4
 1504 00b2 3946     		mov	r1, r7
 1505 00b4 2846     		mov	r0, r5
 1506 00b6 FFF7FEFF 		bl	put_fat.part.0
 1507 00ba CDE7     		b	.L394
 1509              		.section	.text.dir_next,"ax",%progbits
 1510              		.align	1
ARM GAS  /var/folders/sy/x1dkwsgj58j1lmy_hry3vpdm0000gn/T//cc0MFmUD.s 			page 27


 1511              		.p2align 2,,3
 1512              		.syntax unified
 1513              		.thumb
 1514              		.thumb_func
 1515              		.fpu fpv5-d16
 1517              	dir_next:
 1518              		@ args = 0, pretend = 0, frame = 8
 1519              		@ frame_needed = 0, uses_anonymous_args = 0
 1520 0000 2DE9F04F 		push	{r4, r5, r6, r7, r8, r9, r10, fp, lr}
 1521 0004 4569     		ldr	r5, [r0, #20]
 1522 0006 83B0     		sub	sp, sp, #12
 1523 0008 C369     		ldr	r3, [r0, #28]
 1524 000a 2035     		adds	r5, r5, #32
 1525 000c B5F5001F 		cmp	r5, #2097152
 1526 0010 3BD2     		bcs	.L430
 1527 0012 002B     		cmp	r3, #0
 1528 0014 39D0     		beq	.L430
 1529 0016 C5F30808 		ubfx	r8, r5, #0, #9
 1530 001a 0446     		mov	r4, r0
 1531 001c 0768     		ldr	r7, [r0]
 1532 001e B8F1000F 		cmp	r8, #0
 1533 0022 08D0     		beq	.L411
 1534              	.L445:
 1535 0024 07F13406 		add	r6, r7, #52
 1536              	.L412:
 1537 0028 4644     		add	r6, r6, r8
 1538 002a 0020     		movs	r0, #0
 1539 002c 6561     		str	r5, [r4, #20]
 1540 002e 2662     		str	r6, [r4, #32]
 1541              	.L410:
 1542 0030 03B0     		add	sp, sp, #12
 1543              		@ sp needed
 1544 0032 BDE8F08F 		pop	{r4, r5, r6, r7, r8, r9, r10, fp, pc}
 1545              	.L411:
 1546 0036 0E46     		mov	r6, r1
 1547 0038 0133     		adds	r3, r3, #1
 1548 003a 8169     		ldr	r1, [r0, #24]
 1549 003c C361     		str	r3, [r0, #28]
 1550 003e 41B3     		cbz	r1, .L446
 1551 0040 B7F80A90 		ldrh	r9, [r7, #10]
 1552 0044 09F1FF39 		add	r9, r9, #-1
 1553 0048 19EA5529 		ands	r9, r9, r5, lsr #9
 1554 004c EAD1     		bne	.L445
 1555 004e 3846     		mov	r0, r7
 1556 0050 FFF7FEFF 		bl	get_fat.isra.0
 1557 0054 0128     		cmp	r0, #1
 1558 0056 8346     		mov	fp, r0
 1559 0058 23D9     		bls	.L420
 1560 005a B0F1FF3F 		cmp	r0, #-1
 1561 005e 5DD0     		beq	.L421
 1562 0060 BA69     		ldr	r2, [r7, #24]
 1563 0062 8242     		cmp	r2, r0
 1564 0064 1FD9     		bls	.L418
 1565 0066 831E     		subs	r3, r0, #2
 1566 0068 07F13406 		add	r6, r7, #52
 1567 006c 0193     		str	r3, [sp, #4]
 1568              	.L419:
ARM GAS  /var/folders/sy/x1dkwsgj58j1lmy_hry3vpdm0000gn/T//cc0MFmUD.s 			page 28


 1569 006e 023A     		subs	r2, r2, #2
 1570 0070 0199     		ldr	r1, [sp, #4]
 1571 0072 C4F818B0 		str	fp, [r4, #24]
 1572 0076 8A42     		cmp	r2, r1
 1573 0078 04D9     		bls	.L429
 1574 007a B7F80A90 		ldrh	r9, [r7, #10]
 1575 007e FB6A     		ldr	r3, [r7, #44]
 1576 0080 01FB0939 		mla	r9, r1, r9, r3
 1577              	.L429:
 1578 0084 C4F81C90 		str	r9, [r4, #28]
 1579 0088 CEE7     		b	.L412
 1580              	.L430:
 1581 008a 0420     		movs	r0, #4
 1582 008c 03B0     		add	sp, sp, #12
 1583              		@ sp needed
 1584 008e BDE8F08F 		pop	{r4, r5, r6, r7, r8, r9, r10, fp, pc}
 1585              	.L446:
 1586 0092 3B89     		ldrh	r3, [r7, #8]
 1587 0094 B3EB551F 		cmp	r3, r5, lsr #5
 1588 0098 C4D8     		bhi	.L445
 1589              	.L414:
 1590 009a 0023     		movs	r3, #0
 1591 009c 0420     		movs	r0, #4
 1592 009e E361     		str	r3, [r4, #28]
 1593 00a0 C6E7     		b	.L410
 1594              	.L420:
 1595 00a2 0220     		movs	r0, #2
 1596 00a4 C4E7     		b	.L410
 1597              	.L418:
 1598 00a6 002E     		cmp	r6, #0
 1599 00a8 F7D0     		beq	.L414
 1600 00aa A169     		ldr	r1, [r4, #24]
 1601 00ac 2068     		ldr	r0, [r4]
 1602 00ae FFF7FEFF 		bl	create_chain.isra.0
 1603 00b2 8346     		mov	fp, r0
 1604 00b4 0028     		cmp	r0, #0
 1605 00b6 39D0     		beq	.L431
 1606 00b8 0128     		cmp	r0, #1
 1607 00ba F2D0     		beq	.L420
 1608 00bc B0F1FF3F 		cmp	r0, #-1
 1609 00c0 2CD0     		beq	.L421
 1610 00c2 FA78     		ldrb	r2, [r7, #3]	@ zero_extendqisi2
 1611 00c4 002A     		cmp	r2, #0
 1612 00c6 33D1     		bne	.L422
 1613              	.L425:
 1614 00c8 07F13406 		add	r6, r7, #52
 1615 00cc ABF10203 		sub	r3, fp, #2
 1616 00d0 4FF40072 		mov	r2, #512
 1617 00d4 0021     		movs	r1, #0
 1618 00d6 3046     		mov	r0, r6
 1619 00d8 0193     		str	r3, [sp, #4]
 1620 00da FFF7FEFF 		bl	memset
 1621 00de B869     		ldr	r0, [r7, #24]
 1622 00e0 019B     		ldr	r3, [sp, #4]
 1623 00e2 821E     		subs	r2, r0, #2
 1624 00e4 9342     		cmp	r3, r2
 1625 00e6 29D2     		bcs	.L447
ARM GAS  /var/folders/sy/x1dkwsgj58j1lmy_hry3vpdm0000gn/T//cc0MFmUD.s 			page 29


 1626 00e8 7989     		ldrh	r1, [r7, #10]
 1627 00ea FA6A     		ldr	r2, [r7, #44]
 1628 00ec 019B     		ldr	r3, [sp, #4]
 1629 00ee 03FB0122 		mla	r2, r3, r1, r2
 1630              	.L426:
 1631 00f2 3A63     		str	r2, [r7, #48]
 1632 00f4 29B3     		cbz	r1, .L432
 1633 00f6 4FF0000A 		mov	r10, #0
 1634 00fa 05E0     		b	.L428
 1635              	.L449:
 1636 00fc 3A6B     		ldr	r2, [r7, #48]
 1637 00fe 7889     		ldrh	r0, [r7, #10]
 1638 0100 0132     		adds	r2, r2, #1
 1639 0102 5045     		cmp	r0, r10
 1640 0104 3A63     		str	r2, [r7, #48]
 1641 0106 0BD9     		bls	.L448
 1642              	.L428:
 1643 0108 4FF00103 		mov	r3, #1
 1644 010c 3846     		mov	r0, r7
 1645 010e 0AF1010A 		add	r10, r10, #1
 1646 0112 FB70     		strb	r3, [r7, #3]
 1647 0114 FFF7FEFF 		bl	sync_window.part.0
 1648 0118 0028     		cmp	r0, #0
 1649 011a EFD0     		beq	.L449
 1650              	.L421:
 1651 011c 0120     		movs	r0, #1
 1652 011e 87E7     		b	.L410
 1653              	.L448:
 1654 0120 B869     		ldr	r0, [r7, #24]
 1655              	.L427:
 1656 0122 A2EB0A02 		sub	r2, r2, r10
 1657 0126 3A63     		str	r2, [r7, #48]
 1658 0128 0246     		mov	r2, r0
 1659 012a A0E7     		b	.L419
 1660              	.L431:
 1661 012c 0720     		movs	r0, #7
 1662 012e 7FE7     		b	.L410
 1663              	.L422:
 1664 0130 3846     		mov	r0, r7
 1665 0132 FFF7FEFF 		bl	sync_window.part.0
 1666 0136 0028     		cmp	r0, #0
 1667 0138 C6D0     		beq	.L425
 1668 013a EFE7     		b	.L421
 1669              	.L447:
 1670 013c 7989     		ldrh	r1, [r7, #10]
 1671 013e 0022     		movs	r2, #0
 1672 0140 D7E7     		b	.L426
 1673              	.L432:
 1674 0142 8A46     		mov	r10, r1
 1675 0144 EDE7     		b	.L427
 1677 0146 00BF     		.section	.text.dir_read.constprop.0,"ax",%progbits
 1678              		.align	1
 1679              		.p2align 2,,3
 1680              		.syntax unified
 1681              		.thumb
 1682              		.thumb_func
 1683              		.fpu fpv5-d16
ARM GAS  /var/folders/sy/x1dkwsgj58j1lmy_hry3vpdm0000gn/T//cc0MFmUD.s 			page 30


 1685              	dir_read.constprop.0:
 1686              		@ args = 0, pretend = 0, frame = 0
 1687              		@ frame_needed = 0, uses_anonymous_args = 0
 1688 0000 2DE9F047 		push	{r4, r5, r6, r7, r8, r9, r10, lr}
 1689 0004 0446     		mov	r4, r0
 1690 0006 4FF0FF08 		mov	r8, #255
 1691 000a 0420     		movs	r0, #4
 1692 000c 2568     		ldr	r5, [r4]
 1693 000e 4646     		mov	r6, r8
 1694 0010 D4F81C90 		ldr	r9, [r4, #28]
 1695 0014 05F13407 		add	r7, r5, #52
 1696 0018 B9F1000F 		cmp	r9, #0
 1697 001c 32D0     		beq	.L494
 1698              	.L470:
 1699 001e 2B6B     		ldr	r3, [r5, #48]
 1700 0020 4B45     		cmp	r3, r9
 1701 0022 13D0     		beq	.L452
 1702 0024 EB78     		ldrb	r3, [r5, #3]	@ zero_extendqisi2
 1703 0026 002B     		cmp	r3, #0
 1704 0028 64D1     		bne	.L453
 1705              	.L456:
 1706 002a 0123     		movs	r3, #1
 1707 002c 4A46     		mov	r2, r9
 1708 002e 3946     		mov	r1, r7
 1709 0030 6878     		ldrb	r0, [r5, #1]	@ zero_extendqisi2
 1710 0032 FFF7FEFF 		bl	disk_read
 1711 0036 38B1     		cbz	r0, .L495
 1712 0038 4FF0FF33 		mov	r3, #-1
 1713 003c 0120     		movs	r0, #1
 1714 003e 2B63     		str	r3, [r5, #48]
 1715              	.L457:
 1716 0040 0023     		movs	r3, #0
 1717 0042 E361     		str	r3, [r4, #28]
 1718              	.L469:
 1719 0044 BDE8F087 		pop	{r4, r5, r6, r7, r8, r9, r10, pc}
 1720              	.L495:
 1721 0048 C5F83090 		str	r9, [r5, #48]
 1722              	.L452:
 1723 004c 216A     		ldr	r1, [r4, #32]
 1724 004e 0A78     		ldrb	r2, [r1]	@ zero_extendqisi2
 1725 0050 002A     		cmp	r2, #0
 1726 0052 58D0     		beq	.L472
 1727 0054 CB7A     		ldrb	r3, [r1, #11]	@ zero_extendqisi2
 1728 0056 E52A     		cmp	r2, #229
 1729 0058 03F03F03 		and	r3, r3, #63
 1730 005c A371     		strb	r3, [r4, #6]
 1731 005e 05D0     		beq	.L480
 1732 0060 2E2A     		cmp	r2, #46
 1733 0062 03D0     		beq	.L480
 1734 0064 23F02000 		bic	r0, r3, #32
 1735 0068 0828     		cmp	r0, #8
 1736 006a 10D1     		bne	.L496
 1737              	.L480:
 1738 006c FF26     		movs	r6, #255
 1739              	.L458:
 1740 006e 0021     		movs	r1, #0
 1741 0070 2046     		mov	r0, r4
ARM GAS  /var/folders/sy/x1dkwsgj58j1lmy_hry3vpdm0000gn/T//cc0MFmUD.s 			page 31


 1742 0072 FFF7FEFF 		bl	dir_next
 1743 0076 0028     		cmp	r0, #0
 1744 0078 E2D1     		bne	.L457
 1745 007a D4F81C90 		ldr	r9, [r4, #28]
 1746 007e B9F1000F 		cmp	r9, #0
 1747 0082 CCD1     		bne	.L470
 1748              	.L494:
 1749 0084 0028     		cmp	r0, #0
 1750 0086 DBD1     		bne	.L457
 1751              	.L471:
 1752 0088 0020     		movs	r0, #0
 1753 008a BDE8F087 		pop	{r4, r5, r6, r7, r8, r9, r10, pc}
 1754              	.L496:
 1755 008e 0F2B     		cmp	r3, #15
 1756 0090 46D1     		bne	.L459
 1757 0092 5006     		lsls	r0, r2, #25
 1758 0094 34D5     		bpl	.L460
 1759 0096 6369     		ldr	r3, [r4, #20]
 1760 0098 02F0BF06 		and	r6, r2, #191
 1761 009c 91F80D80 		ldrb	r8, [r1, #13]	@ zero_extendqisi2
 1762 00a0 2363     		str	r3, [r4, #48]
 1763              	.L461:
 1764 00a2 4B7B     		ldrb	r3, [r1, #13]	@ zero_extendqisi2
 1765 00a4 4345     		cmp	r3, r8
 1766 00a6 E1D1     		bne	.L480
 1767 00a8 4B8B     		ldrh	r3, [r1, #26]	@ unaligned
 1768 00aa 002B     		cmp	r3, #0
 1769 00ac DED1     		bne	.L480
 1770 00ae 0B78     		ldrb	r3, [r1]	@ zero_extendqisi2
 1771 00b0 0122     		movs	r2, #1
 1772 00b2 DFF894E0 		ldr	lr, .L498
 1773 00b6 4FF6FF7A 		movw	r10, #65535
 1774 00ba 23F04003 		bic	r3, r3, #64
 1775 00be D5F80C90 		ldr	r9, [r5, #12]
 1776 00c2 0EF10C0C 		add	ip, lr, #12
 1777 00c6 013B     		subs	r3, r3, #1
 1778 00c8 03EB4300 		add	r0, r3, r3, lsl #1
 1779 00cc 03EB8003 		add	r3, r3, r0, lsl #2
 1780 00d0 1046     		mov	r0, r2
 1781 00d2 09E0     		b	.L465
 1782              	.L497:
 1783 00d4 FE2B     		cmp	r3, #254
 1784 00d6 1046     		mov	r0, r2
 1785 00d8 C8D8     		bhi	.L480
 1786 00da 29F81320 		strh	r2, [r9, r3, lsl #1]	@ movhi
 1787 00de 0133     		adds	r3, r3, #1
 1788              	.L463:
 1789 00e0 E645     		cmp	lr, ip
 1790 00e2 12D0     		beq	.L464
 1791 00e4 1EF8012F 		ldrb	r2, [lr, #1]!	@ zero_extendqisi2
 1792              	.L465:
 1793 00e8 8A5A     		ldrh	r2, [r1, r2]	@ unaligned
 1794 00ea 0028     		cmp	r0, #0
 1795 00ec F2D1     		bne	.L497
 1796 00ee 5245     		cmp	r2, r10
 1797 00f0 F6D0     		beq	.L463
 1798 00f2 BBE7     		b	.L480
ARM GAS  /var/folders/sy/x1dkwsgj58j1lmy_hry3vpdm0000gn/T//cc0MFmUD.s 			page 32


 1799              	.L453:
 1800 00f4 2846     		mov	r0, r5
 1801 00f6 FFF7FEFF 		bl	sync_window.part.0
 1802 00fa 0028     		cmp	r0, #0
 1803 00fc 95D0     		beq	.L456
 1804 00fe 9FE7     		b	.L457
 1805              	.L460:
 1806 0100 B242     		cmp	r2, r6
 1807 0102 B3D1     		bne	.L480
 1808 0104 CDE7     		b	.L461
 1809              	.L472:
 1810 0106 0420     		movs	r0, #4
 1811 0108 9AE7     		b	.L457
 1812              	.L464:
 1813 010a 0A78     		ldrb	r2, [r1]	@ zero_extendqisi2
 1814 010c 5206     		lsls	r2, r2, #25
 1815 010e 04D5     		bpl	.L466
 1816 0110 FE2B     		cmp	r3, #254
 1817 0112 ABD8     		bhi	.L480
 1818 0114 0022     		movs	r2, #0
 1819 0116 29F81320 		strh	r2, [r9, r3, lsl #1]	@ movhi
 1820              	.L466:
 1821 011a 013E     		subs	r6, r6, #1
 1822 011c F6B2     		uxtb	r6, r6
 1823 011e A6E7     		b	.L458
 1824              	.L459:
 1825 0120 6EB9     		cbnz	r6, .L467
 1826 0122 01F10B02 		add	r2, r1, #11
 1827              	.L468:
 1828 0126 F301     		lsls	r3, r6, #7
 1829 0128 43EA5606 		orr	r6, r3, r6, lsr #1
 1830 012c 11F8013B 		ldrb	r3, [r1], #1	@ zero_extendqisi2
 1831 0130 53FA86F6 		uxtab	r6, r3, r6
 1832 0134 9142     		cmp	r1, r2
 1833 0136 F6B2     		uxtb	r6, r6
 1834 0138 F5D1     		bne	.L468
 1835 013a 4645     		cmp	r6, r8
 1836 013c A4D0     		beq	.L471
 1837              	.L467:
 1838 013e 4FF0FF33 		mov	r3, #-1
 1839 0142 0020     		movs	r0, #0
 1840 0144 2363     		str	r3, [r4, #48]
 1841 0146 7DE7     		b	.L469
 1842              	.L499:
 1843              		.align	2
 1844              	.L498:
 1845 0148 00000000 		.word	.LANCHOR4
 1847              		.section	.text.dir_sdi,"ax",%progbits
 1848              		.align	1
 1849              		.p2align 2,,3
 1850              		.syntax unified
 1851              		.thumb
 1852              		.thumb_func
 1853              		.fpu fpv5-d16
 1855              	dir_sdi:
 1856              		@ args = 0, pretend = 0, frame = 0
 1857              		@ frame_needed = 0, uses_anonymous_args = 0
ARM GAS  /var/folders/sy/x1dkwsgj58j1lmy_hry3vpdm0000gn/T//cc0MFmUD.s 			page 33


 1858 0000 B1F5001F 		cmp	r1, #2097152
 1859 0004 42D2     		bcs	.L519
 1860 0006 CA06     		lsls	r2, r1, #27
 1861 0008 F8B5     		push	{r3, r4, r5, r6, r7, lr}
 1862 000a 0D46     		mov	r5, r1
 1863 000c 20D1     		bne	.L503
 1864 000e 8168     		ldr	r1, [r0, #8]
 1865 0010 0646     		mov	r6, r0
 1866 0012 0768     		ldr	r7, [r0]
 1867 0014 4561     		str	r5, [r0, #20]
 1868 0016 E9B1     		cbz	r1, .L520
 1869              	.L504:
 1870 0018 7B89     		ldrh	r3, [r7, #10]
 1871 001a B5EB432F 		cmp	r5, r3, lsl #9
 1872 001e 4FEA4324 		lsl	r4, r3, #9
 1873 0022 35D3     		bcc	.L507
 1874 0024 3846     		mov	r0, r7
 1875 0026 07E0     		b	.L509
 1876              	.L521:
 1877 0028 0128     		cmp	r0, #1
 1878 002a 11D9     		bls	.L503
 1879 002c BB69     		ldr	r3, [r7, #24]
 1880 002e 8342     		cmp	r3, r0
 1881 0030 0ED9     		bls	.L503
 1882 0032 AC42     		cmp	r4, r5
 1883 0034 2DD8     		bhi	.L508
 1884 0036 3068     		ldr	r0, [r6]
 1885              	.L509:
 1886 0038 FFF7FEFF 		bl	get_fat.isra.0
 1887 003c 431C     		adds	r3, r0, #1
 1888 003e A5EB0405 		sub	r5, r5, r4
 1889 0042 0146     		mov	r1, r0
 1890 0044 F0D1     		bne	.L521
 1891 0046 0120     		movs	r0, #1
 1892 0048 F8BD     		pop	{r3, r4, r5, r6, r7, pc}
 1893              	.L523:
 1894 004a 0023     		movs	r3, #0
 1895 004c C6E90613 		strd	r1, r3, [r6, #24]
 1896              	.L503:
 1897 0050 0220     		movs	r0, #2
 1898 0052 F8BD     		pop	{r3, r4, r5, r6, r7, pc}
 1899              	.L520:
 1900 0054 3B78     		ldrb	r3, [r7]	@ zero_extendqisi2
 1901 0056 022B     		cmp	r3, #2
 1902 0058 13D8     		bhi	.L522
 1903              	.L505:
 1904 005a 3B89     		ldrh	r3, [r7, #8]
 1905 005c B3EB551F 		cmp	r3, r5, lsr #5
 1906 0060 F6D9     		bls	.L503
 1907 0062 BA6A     		ldr	r2, [r7, #40]
 1908 0064 F261     		str	r2, [r6, #28]
 1909              	.L506:
 1910 0066 B161     		str	r1, [r6, #24]
 1911 0068 002A     		cmp	r2, #0
 1912 006a F1D0     		beq	.L503
 1913 006c 07F13403 		add	r3, r7, #52
 1914 0070 C5F30801 		ubfx	r1, r5, #0, #9
ARM GAS  /var/folders/sy/x1dkwsgj58j1lmy_hry3vpdm0000gn/T//cc0MFmUD.s 			page 34


 1915 0074 02EB5522 		add	r2, r2, r5, lsr #9
 1916 0078 0020     		movs	r0, #0
 1917 007a 0B44     		add	r3, r3, r1
 1918 007c C6E90723 		strd	r2, r3, [r6, #28]
 1919 0080 F8BD     		pop	{r3, r4, r5, r6, r7, pc}
 1920              	.L522:
 1921 0082 BB6A     		ldr	r3, [r7, #40]
 1922 0084 002B     		cmp	r3, #0
 1923 0086 E8D0     		beq	.L505
 1924 0088 1946     		mov	r1, r3
 1925 008a C5E7     		b	.L504
 1926              	.L519:
 1927 008c 0220     		movs	r0, #2
 1928 008e 7047     		bx	lr
 1929              	.L507:
 1930 0090 BB69     		ldr	r3, [r7, #24]
 1931              	.L508:
 1932 0092 023B     		subs	r3, r3, #2
 1933 0094 881E     		subs	r0, r1, #2
 1934 0096 9842     		cmp	r0, r3
 1935 0098 D7D2     		bcs	.L523
 1936 009a 7B89     		ldrh	r3, [r7, #10]
 1937 009c FA6A     		ldr	r2, [r7, #44]
 1938 009e 00FB0322 		mla	r2, r0, r3, r2
 1939 00a2 F261     		str	r2, [r6, #28]
 1940 00a4 DFE7     		b	.L506
 1942 00a6 00BF     		.section	.text.dir_remove,"ax",%progbits
 1943              		.align	1
 1944              		.p2align 2,,3
 1945              		.syntax unified
 1946              		.thumb
 1947              		.thumb_func
 1948              		.fpu fpv5-d16
 1950              	dir_remove:
 1951              		@ args = 0, pretend = 0, frame = 0
 1952              		@ frame_needed = 0, uses_anonymous_args = 0
 1953 0000 016B     		ldr	r1, [r0, #48]
 1954 0002 4B1C     		adds	r3, r1, #1
 1955 0004 2DE9F047 		push	{r4, r5, r6, r7, r8, r9, r10, lr}
 1956 0008 0446     		mov	r4, r0
 1957 000a 0568     		ldr	r5, [r0]
 1958 000c 4669     		ldr	r6, [r0, #20]
 1959 000e 32D1     		bne	.L525
 1960              	.L527:
 1961 0010 05F13409 		add	r9, r5, #52
 1962 0014 4FF00108 		mov	r8, #1
 1963 0018 E527     		movs	r7, #229
 1964              	.L526:
 1965 001a D4F81CA0 		ldr	r10, [r4, #28]
 1966 001e 2B6B     		ldr	r3, [r5, #48]
 1967 0020 9A45     		cmp	r10, r3
 1968 0022 10D0     		beq	.L529
 1969 0024 EB78     		ldrb	r3, [r5, #3]	@ zero_extendqisi2
 1970 0026 E3B9     		cbnz	r3, .L530
 1971              	.L533:
 1972 0028 0123     		movs	r3, #1
 1973 002a 5246     		mov	r2, r10
ARM GAS  /var/folders/sy/x1dkwsgj58j1lmy_hry3vpdm0000gn/T//cc0MFmUD.s 			page 35


 1974 002c 4946     		mov	r1, r9
 1975 002e 6878     		ldrb	r0, [r5, #1]	@ zero_extendqisi2
 1976 0030 FFF7FEFF 		bl	disk_read
 1977 0034 28B1     		cbz	r0, .L546
 1978 0036 4FF0FF33 		mov	r3, #-1
 1979 003a 0120     		movs	r0, #1
 1980 003c 2B63     		str	r3, [r5, #48]
 1981 003e BDE8F087 		pop	{r4, r5, r6, r7, r8, r9, r10, pc}
 1982              	.L546:
 1983 0042 C5F830A0 		str	r10, [r5, #48]
 1984              	.L529:
 1985 0046 236A     		ldr	r3, [r4, #32]
 1986 0048 0021     		movs	r1, #0
 1987 004a 2046     		mov	r0, r4
 1988 004c 1F70     		strb	r7, [r3]
 1989 004e 85F80380 		strb	r8, [r5, #3]
 1990 0052 6369     		ldr	r3, [r4, #20]
 1991 0054 B342     		cmp	r3, r6
 1992 0056 14D2     		bcs	.L535
 1993 0058 FFF7FEFF 		bl	dir_next
 1994 005c 0028     		cmp	r0, #0
 1995 005e DCD0     		beq	.L526
 1996 0060 04E0     		b	.L534
 1997              	.L530:
 1998 0062 2846     		mov	r0, r5
 1999 0064 FFF7FEFF 		bl	sync_window.part.0
 2000 0068 0028     		cmp	r0, #0
 2001 006a DDD0     		beq	.L533
 2002              	.L534:
 2003 006c 0428     		cmp	r0, #4
 2004 006e 08BF     		it	eq
 2005 0070 0220     		moveq	r0, #2
 2006 0072 BDE8F087 		pop	{r4, r5, r6, r7, r8, r9, r10, pc}
 2007              	.L525:
 2008 0076 FFF7FEFF 		bl	dir_sdi
 2009 007a 0028     		cmp	r0, #0
 2010 007c C8D0     		beq	.L527
 2011 007e BDE8F087 		pop	{r4, r5, r6, r7, r8, r9, r10, pc}
 2012              	.L535:
 2013 0082 0020     		movs	r0, #0
 2014 0084 BDE8F087 		pop	{r4, r5, r6, r7, r8, r9, r10, pc}
 2016              		.section	.text.dir_find,"ax",%progbits
 2017              		.align	1
 2018              		.p2align 2,,3
 2019              		.syntax unified
 2020              		.thumb
 2021              		.thumb_func
 2022              		.fpu fpv5-d16
 2024              	dir_find:
 2025              		@ args = 0, pretend = 0, frame = 16
 2026              		@ frame_needed = 0, uses_anonymous_args = 0
 2027 0000 2DE9F04F 		push	{r4, r5, r6, r7, r8, r9, r10, fp, lr}
 2028 0004 0021     		movs	r1, #0
 2029 0006 0546     		mov	r5, r0
 2030 0008 0768     		ldr	r7, [r0]
 2031 000a 2DED028B 		vpush.64	{d8}
 2032 000e 85B0     		sub	sp, sp, #20
ARM GAS  /var/folders/sy/x1dkwsgj58j1lmy_hry3vpdm0000gn/T//cc0MFmUD.s 			page 36


 2033 0010 FFF7FEFF 		bl	dir_sdi
 2034 0014 C8B9     		cbnz	r0, .L548
 2035 0016 4FF0FF09 		mov	r9, #255
 2036 001a 4FF0FF33 		mov	r3, #-1
 2037 001e 07F13408 		add	r8, r7, #52
 2038 0022 CA46     		mov	r10, r9
 2039 0024 2B63     		str	r3, [r5, #48]
 2040              	.L572:
 2041 0026 EC69     		ldr	r4, [r5, #28]
 2042 0028 3B6B     		ldr	r3, [r7, #48]
 2043 002a 9C42     		cmp	r4, r3
 2044 002c 13D0     		beq	.L549
 2045 002e FB78     		ldrb	r3, [r7, #3]	@ zero_extendqisi2
 2046 0030 002B     		cmp	r3, #0
 2047 0032 4FD1     		bne	.L550
 2048              	.L553:
 2049 0034 0123     		movs	r3, #1
 2050 0036 2246     		mov	r2, r4
 2051 0038 4146     		mov	r1, r8
 2052 003a 7878     		ldrb	r0, [r7, #1]	@ zero_extendqisi2
 2053 003c FFF7FEFF 		bl	disk_read
 2054 0040 40B1     		cbz	r0, .L607
 2055 0042 4FF0FF33 		mov	r3, #-1
 2056 0046 0120     		movs	r0, #1
 2057 0048 3B63     		str	r3, [r7, #48]
 2058              	.L548:
 2059 004a 05B0     		add	sp, sp, #20
 2060              		@ sp needed
 2061 004c BDEC028B 		vldm	sp!, {d8}
 2062 0050 BDE8F08F 		pop	{r4, r5, r6, r7, r8, r9, r10, fp, pc}
 2063              	.L607:
 2064 0054 3C63     		str	r4, [r7, #48]
 2065              	.L549:
 2066 0056 2C6A     		ldr	r4, [r5, #32]
 2067 0058 2678     		ldrb	r6, [r4]	@ zero_extendqisi2
 2068 005a 002E     		cmp	r6, #0
 2069 005c 00F0AB80 		beq	.L573
 2070 0060 E27A     		ldrb	r2, [r4, #11]	@ zero_extendqisi2
 2071 0062 E52E     		cmp	r6, #229
 2072 0064 02F03F03 		and	r3, r2, #63
 2073 0068 AB71     		strb	r3, [r5, #6]
 2074 006a 03D0     		beq	.L568
 2075 006c 1007     		lsls	r0, r2, #28
 2076 006e 11D5     		bpl	.L555
 2077 0070 0F2B     		cmp	r3, #15
 2078 0072 39D0     		beq	.L556
 2079              	.L568:
 2080 0074 4FF0FF33 		mov	r3, #-1
 2081 0078 4FF0FF0A 		mov	r10, #255
 2082 007c 2B63     		str	r3, [r5, #48]
 2083              	.L557:
 2084 007e 0021     		movs	r1, #0
 2085 0080 2846     		mov	r0, r5
 2086 0082 FFF7FEFF 		bl	dir_next
 2087 0086 0028     		cmp	r0, #0
 2088 0088 CDD0     		beq	.L572
 2089 008a 05B0     		add	sp, sp, #20
ARM GAS  /var/folders/sy/x1dkwsgj58j1lmy_hry3vpdm0000gn/T//cc0MFmUD.s 			page 37


 2090              		@ sp needed
 2091 008c BDEC028B 		vldm	sp!, {d8}
 2092 0090 BDE8F08F 		pop	{r4, r5, r6, r7, r8, r9, r10, fp, pc}
 2093              	.L555:
 2094 0094 0F2B     		cmp	r3, #15
 2095 0096 27D0     		beq	.L556
 2096 0098 BAF1000F 		cmp	r10, #0
 2097 009c 77D0     		beq	.L608
 2098              	.L566:
 2099 009e 95F82F00 		ldrb	r0, [r5, #47]	@ zero_extendqisi2
 2100 00a2 10F00100 		ands	r0, r0, #1
 2101 00a6 E5D1     		bne	.L568
 2102 00a8 95F82410 		ldrb	r1, [r5, #36]	@ zero_extendqisi2
 2103 00ac 05F12502 		add	r2, r5, #37
 2104 00b0 14F8013B 		ldrb	r3, [r4], #1	@ zero_extendqisi2
 2105 00b4 05F12F06 		add	r6, r5, #47
 2106 00b8 5B1A     		subs	r3, r3, r1
 2107              	.L569:
 2108 00ba 002B     		cmp	r3, #0
 2109 00bc DAD1     		bne	.L568
 2110 00be 12F8011B 		ldrb	r1, [r2], #1	@ zero_extendqisi2
 2111 00c2 14F8013B 		ldrb	r3, [r4], #1	@ zero_extendqisi2
 2112 00c6 B242     		cmp	r2, r6
 2113 00c8 A3EB0103 		sub	r3, r3, r1
 2114 00cc F5D1     		bne	.L569
 2115 00ce 002B     		cmp	r3, #0
 2116 00d0 D0D1     		bne	.L568
 2117 00d2 BAE7     		b	.L548
 2118              	.L550:
 2119 00d4 3846     		mov	r0, r7
 2120 00d6 FFF7FEFF 		bl	sync_window.part.0
 2121 00da 0028     		cmp	r0, #0
 2122 00dc AAD0     		beq	.L553
 2123 00de 05B0     		add	sp, sp, #20
 2124              		@ sp needed
 2125 00e0 BDEC028B 		vldm	sp!, {d8}
 2126 00e4 BDE8F08F 		pop	{r4, r5, r6, r7, r8, r9, r10, fp, pc}
 2127              	.L556:
 2128 00e8 95F82F30 		ldrb	r3, [r5, #47]	@ zero_extendqisi2
 2129 00ec 5906     		lsls	r1, r3, #25
 2130 00ee C6D4     		bmi	.L557
 2131 00f0 7206     		lsls	r2, r6, #25
 2132 00f2 47D5     		bpl	.L559
 2133 00f4 6B69     		ldr	r3, [r5, #20]
 2134 00f6 06F0BF06 		and	r6, r6, #191
 2135 00fa 94F80D90 		ldrb	r9, [r4, #13]	@ zero_extendqisi2
 2136 00fe 2B63     		str	r3, [r5, #48]
 2137              	.L560:
 2138 0100 637B     		ldrb	r3, [r4, #13]	@ zero_extendqisi2
 2139 0102 4B45     		cmp	r3, r9
 2140 0104 40D1     		bne	.L580
 2141 0106 638B     		ldrh	r3, [r4, #26]	@ unaligned
 2142 0108 002B     		cmp	r3, #0
 2143 010a 3DD1     		bne	.L580
 2144 010c 94F800A0 		ldrb	r10, [r4]	@ zero_extendqisi2
 2145 0110 0123     		movs	r3, #1
 2146 0112 F968     		ldr	r1, [r7, #12]
ARM GAS  /var/folders/sy/x1dkwsgj58j1lmy_hry3vpdm0000gn/T//cc0MFmUD.s 			page 38


 2147 0114 08EE108A 		vmov	s16, r8	@ int
 2148 0118 0AF03F0A 		and	r10, r10, #63
 2149 011c 0296     		str	r6, [sp, #8]
 2150 011e 0195     		str	r5, [sp, #4]
 2151 0120 0E46     		mov	r6, r1
 2152 0122 0AF1FF3A 		add	r10, r10, #-1
 2153 0126 DFF8C0B0 		ldr	fp, .L611+4
 2154 012a 1846     		mov	r0, r3
 2155 012c 2546     		mov	r5, r4
 2156 012e 0AEB4A02 		add	r2, r10, r10, lsl #1
 2157 0132 0391     		str	r1, [sp, #12]
 2158 0134 0097     		str	r7, [sp]
 2159 0136 0AEB820A 		add	r10, r10, r2, lsl #2
 2160 013a 13E0     		b	.L564
 2161              	.L609:
 2162 013c BAF1FE0F 		cmp	r10, #254
 2163 0140 2046     		mov	r0, r4
 2164 0142 18D8     		bhi	.L579
 2165 0144 FFF7FEFF 		bl	ff_wtoupper
 2166 0148 8046     		mov	r8, r0
 2167 014a 36F81A00 		ldrh	r0, [r6, r10, lsl #1]
 2168 014e BA46     		mov	r10, r7
 2169 0150 FFF7FEFF 		bl	ff_wtoupper
 2170 0154 8045     		cmp	r8, r0
 2171 0156 2046     		mov	r0, r4
 2172 0158 0DD1     		bne	.L579
 2173              	.L562:
 2174 015a 224B     		ldr	r3, .L611
 2175 015c 9B45     		cmp	fp, r3
 2176 015e 2CD0     		beq	.L563
 2177 0160 1BF8013F 		ldrb	r3, [fp, #1]!	@ zero_extendqisi2
 2178              	.L564:
 2179 0164 0AF10107 		add	r7, r10, #1
 2180 0168 EC5A     		ldrh	r4, [r5, r3]	@ unaligned
 2181 016a 0028     		cmp	r0, #0
 2182 016c E6D1     		bne	.L609
 2183 016e 4FF6FF73 		movw	r3, #65535
 2184 0172 9C42     		cmp	r4, r3
 2185 0174 F1D0     		beq	.L562
 2186              	.L579:
 2187 0176 DDE90075 		ldrd	r7, r5, [sp]
 2188 017a 18EE108A 		vmov	r8, s16	@ int
 2189 017e 4FF0FF0A 		mov	r10, #255
 2190 0182 7CE7     		b	.L557
 2191              	.L559:
 2192 0184 B245     		cmp	r10, r6
 2193 0186 BBD0     		beq	.L560
 2194              	.L580:
 2195 0188 4FF0FF0A 		mov	r10, #255
 2196 018c 77E7     		b	.L557
 2197              	.L608:
 2198 018e 04F10B00 		add	r0, r4, #11
 2199 0192 2246     		mov	r2, r4
 2200              	.L567:
 2201 0194 4FEACA13 		lsl	r3, r10, #7
 2202 0198 12F8011B 		ldrb	r1, [r2], #1	@ zero_extendqisi2
 2203 019c 43EA5A0A 		orr	r10, r3, r10, lsr #1
ARM GAS  /var/folders/sy/x1dkwsgj58j1lmy_hry3vpdm0000gn/T//cc0MFmUD.s 			page 39


 2204 01a0 8242     		cmp	r2, r0
 2205 01a2 51FA8AFA 		uxtab	r10, r1, r10
 2206 01a6 5FFA8AFA 		uxtb	r10, r10
 2207 01aa F3D1     		bne	.L567
 2208 01ac D145     		cmp	r9, r10
 2209 01ae 7FF476AF 		bne	.L566
 2210 01b2 0020     		movs	r0, #0
 2211 01b4 49E7     		b	.L548
 2212              	.L573:
 2213 01b6 0420     		movs	r0, #4
 2214 01b8 47E7     		b	.L548
 2215              	.L563:
 2216 01ba 2C46     		mov	r4, r5
 2217 01bc 009F     		ldr	r7, [sp]
 2218 01be 029E     		ldr	r6, [sp, #8]
 2219 01c0 18EE108A 		vmov	r8, s16	@ int
 2220 01c4 2378     		ldrb	r3, [r4]	@ zero_extendqisi2
 2221 01c6 019D     		ldr	r5, [sp, #4]
 2222 01c8 5B06     		lsls	r3, r3, #25
 2223 01ca 00D5     		bpl	.L565
 2224 01cc 20B9     		cbnz	r0, .L610
 2225              	.L565:
 2226 01ce 06F1FF3A 		add	r10, r6, #-1
 2227 01d2 5FFA8AFA 		uxtb	r10, r10
 2228 01d6 52E7     		b	.L557
 2229              	.L610:
 2230 01d8 039B     		ldr	r3, [sp, #12]
 2231 01da 33F81A30 		ldrh	r3, [r3, r10, lsl #1]
 2232 01de 002B     		cmp	r3, #0
 2233 01e0 F5D0     		beq	.L565
 2234 01e2 D1E7     		b	.L580
 2235              	.L612:
 2236              		.align	2
 2237              	.L611:
 2238 01e4 0C000000 		.word	.LANCHOR4+12
 2239 01e8 00000000 		.word	.LANCHOR4
 2241              		.section	.rodata.follow_path.str1.4,"aMS",%progbits,1
 2242              		.align	2
 2243              	.LC0:
 2244 0000 222A3A3C 		.ascii	"\"*:<>?|\177\000"
 2244      3E3F7C7F 
 2244      00
 2245 0009 000000   		.align	2
 2246              	.LC1:
 2247 000c 2B2C3B3D 		.ascii	"+,;=[]\000"
 2247      5B5D00
 2248              		.section	.text.follow_path,"ax",%progbits
 2249              		.align	1
 2250              		.p2align 2,,3
 2251              		.syntax unified
 2252              		.thumb
 2253              		.thumb_func
 2254              		.fpu fpv5-d16
 2256              	follow_path:
 2257              		@ args = 0, pretend = 0, frame = 8
 2258              		@ frame_needed = 0, uses_anonymous_args = 0
 2259 0000 2DE9F04F 		push	{r4, r5, r6, r7, r8, r9, r10, fp, lr}
ARM GAS  /var/folders/sy/x1dkwsgj58j1lmy_hry3vpdm0000gn/T//cc0MFmUD.s 			page 40


 2260 0004 0B78     		ldrb	r3, [r1]	@ zero_extendqisi2
 2261 0006 83B0     		sub	sp, sp, #12
 2262 0008 0F46     		mov	r7, r1
 2263 000a 0646     		mov	r6, r0
 2264 000c 2F2B     		cmp	r3, #47
 2265 000e D0F800B0 		ldr	fp, [r0]
 2266 0012 03D1     		bne	.L733
 2267              	.L710:
 2268 0014 17F8013F 		ldrb	r3, [r7, #1]!	@ zero_extendqisi2
 2269 0018 2F2B     		cmp	r3, #47
 2270 001a FBD0     		beq	.L710
 2271              	.L733:
 2272 001c 5C2B     		cmp	r3, #92
 2273 001e F9D0     		beq	.L710
 2274 0020 0021     		movs	r1, #0
 2275 0022 B160     		str	r1, [r6, #8]
 2276 0024 3B78     		ldrb	r3, [r7]	@ zero_extendqisi2
 2277 0026 1F2B     		cmp	r3, #31
 2278 0028 40F23C81 		bls	.L735
 2279 002c 5A46     		mov	r2, fp
 2280              	.L617:
 2281 002e 1F2B     		cmp	r3, #31
 2282 0030 D568     		ldr	r5, [r2, #12]
 2283 0032 98B2     		uxth	r0, r3
 2284 0034 29D9     		bls	.L730
 2285 0036 A5F10209 		sub	r9, r5, #2
 2286 003a B846     		mov	r8, r7
 2287 003c 0124     		movs	r4, #1
 2288 003e 08E0     		b	.L629
 2289              	.L626:
 2290 0040 29F8020F 		strh	r0, [r9, #2]!	@ movhi
 2291 0044 631C     		adds	r3, r4, #1
 2292 0046 18F8010F 		ldrb	r0, [r8, #1]!	@ zero_extendqisi2
 2293 004a 1F28     		cmp	r0, #31
 2294 004c 40F2ED80 		bls	.L628
 2295 0050 1C46     		mov	r4, r3
 2296              	.L629:
 2297 0052 2F28     		cmp	r0, #47
 2298 0054 04F1FF3A 		add	r10, r4, #-1
 2299 0058 1DD0     		beq	.L673
 2300 005a 5C28     		cmp	r0, #92
 2301 005c 1BD0     		beq	.L673
 2302 005e B4F5807F 		cmp	r4, #256
 2303 0062 0ED0     		beq	.L624
 2304 0064 0121     		movs	r1, #1
 2305 0066 FFF7FEFF 		bl	ff_convert
 2306 006a 50B1     		cbz	r0, .L624
 2307 006c 7F28     		cmp	r0, #127
 2308 006e E7D8     		bhi	.L626
 2309 0070 2223     		movs	r3, #34
 2310 0072 9F4A     		ldr	r2, .L742
 2311 0074 03E0     		b	.L625
 2312              	.L627:
 2313 0076 12F8013F 		ldrb	r3, [r2, #1]!	@ zero_extendqisi2
 2314 007a 002B     		cmp	r3, #0
 2315 007c E0D0     		beq	.L626
 2316              	.L625:
ARM GAS  /var/folders/sy/x1dkwsgj58j1lmy_hry3vpdm0000gn/T//cc0MFmUD.s 			page 41


 2317 007e 9842     		cmp	r0, r3
 2318 0080 F9D1     		bne	.L627
 2319              	.L624:
 2320 0082 0620     		movs	r0, #6
 2321              	.L677:
 2322 0084 03B0     		add	sp, sp, #12
 2323              		@ sp needed
 2324 0086 BDE8F08F 		pop	{r4, r5, r6, r7, r8, r9, r10, fp, pc}
 2325              	.L730:
 2326 008a 0023     		movs	r3, #0
 2327 008c 0620     		movs	r0, #6
 2328 008e 2B80     		strh	r3, [r5]	@ movhi
 2329 0090 03B0     		add	sp, sp, #12
 2330              		@ sp needed
 2331 0092 BDE8F08F 		pop	{r4, r5, r6, r7, r8, r9, r10, fp, pc}
 2332              	.L673:
 2333 0096 3B5D     		ldrb	r3, [r7, r4]	@ zero_extendqisi2
 2334 0098 3A19     		adds	r2, r7, r4
 2335 009a 5C2B     		cmp	r3, #92
 2336 009c 02D0     		beq	.L674
 2337 009e 2F2B     		cmp	r3, #47
 2338 00a0 40F01481 		bne	.L669
 2339              	.L674:
 2340 00a4 631C     		adds	r3, r4, #1
 2341 00a6 3B44     		add	r3, r3, r7
 2342              	.L711:
 2343 00a8 1F46     		mov	r7, r3
 2344 00aa 13F8012B 		ldrb	r2, [r3], #1	@ zero_extendqisi2
 2345 00ae 2F2A     		cmp	r2, #47
 2346 00b0 FAD0     		beq	.L711
 2347 00b2 5C2A     		cmp	r2, #92
 2348 00b4 F8D0     		beq	.L711
 2349              	.L621:
 2350 00b6 BAF1000F 		cmp	r10, #0
 2351 00ba E6D0     		beq	.L730
 2352 00bc 4FF00008 		mov	r8, #0
 2353              	.L667:
 2354 00c0 05EB4A02 		add	r2, r5, r10, lsl #1
 2355 00c4 02E0     		b	.L632
 2356              	.L675:
 2357 00c6 BAF1010A 		subs	r10, r10, #1
 2358 00ca DED0     		beq	.L730
 2359              	.L632:
 2360 00cc 32F8023D 		ldrh	r3, [r2, #-2]!
 2361 00d0 202B     		cmp	r3, #32
 2362 00d2 F8D0     		beq	.L675
 2363 00d4 2E2B     		cmp	r3, #46
 2364 00d6 F6D0     		beq	.L675
 2365 00d8 4FF02033 		mov	r3, #538976288
 2366 00dc 0022     		movs	r2, #0
 2367 00de 25F81A20 		strh	r2, [r5, r10, lsl #1]	@ movhi
 2368 00e2 B362     		str	r3, [r6, #40]	@ unaligned
 2369 00e4 7362     		str	r3, [r6, #36]	@ unaligned
 2370 00e6 C6F82B30 		str	r3, [r6, #43]	@ unaligned
 2371 00ea 2888     		ldrh	r0, [r5]
 2372 00ec 2E28     		cmp	r0, #46
 2373 00ee 02D0     		beq	.L666
ARM GAS  /var/folders/sy/x1dkwsgj58j1lmy_hry3vpdm0000gn/T//cc0MFmUD.s 			page 42


 2374 00f0 2028     		cmp	r0, #32
 2375 00f2 40F0E080 		bne	.L736
 2376              	.L666:
 2377 00f6 2A46     		mov	r2, r5
 2378 00f8 0023     		movs	r3, #0
 2379              	.L712:
 2380 00fa 32F8020F 		ldrh	r0, [r2, #2]!
 2381 00fe 1C46     		mov	r4, r3
 2382 0100 0133     		adds	r3, r3, #1
 2383 0102 2028     		cmp	r0, #32
 2384 0104 F9D0     		beq	.L712
 2385 0106 2E28     		cmp	r0, #46
 2386 0108 F7D0     		beq	.L712
 2387 010a 48F00308 		orr	r8, r8, #3
 2388 010e 0234     		adds	r4, r4, #2
 2389              	.L634:
 2390 0110 05EB4A03 		add	r3, r5, r10, lsl #1
 2391              	.L635:
 2392 0114 33F8022D 		ldrh	r2, [r3, #-2]!
 2393 0118 2E2A     		cmp	r2, #46
 2394 011a 02D0     		beq	.L636
 2395 011c BAF1010A 		subs	r10, r10, #1
 2396 0120 F8D1     		bne	.L635
 2397              	.L636:
 2398 0122 A0B3     		cbz	r0, .L637
 2399 0124 0822     		movs	r2, #8
 2400 0126 3946     		mov	r1, r7
 2401 0128 0023     		movs	r3, #0
 2402 012a 3746     		mov	r7, r6
 2403 012c 2E46     		mov	r6, r5
 2404 012e 1546     		mov	r5, r2
 2405 0130 9946     		mov	r9, r3
 2406 0132 0A46     		mov	r2, r1
 2407              	.L638:
 2408 0134 2028     		cmp	r0, #32
 2409 0136 03D0     		beq	.L641
 2410 0138 2E28     		cmp	r0, #46
 2411 013a 4AD1     		bne	.L642
 2412 013c A245     		cmp	r10, r4
 2413 013e 48D0     		beq	.L642
 2414              	.L641:
 2415 0140 48F00308 		orr	r8, r8, #3
 2416              	.L643:
 2417 0144 36F81400 		ldrh	r0, [r6, r4, lsl #1]
 2418 0148 0134     		adds	r4, r4, #1
 2419 014a 0028     		cmp	r0, #0
 2420 014c F2D1     		bne	.L638
 2421              	.L640:
 2422 014e 3E46     		mov	r6, r7
 2423 0150 1746     		mov	r7, r2
 2424 0152 2A46     		mov	r2, r5
 2425 0154 96F82410 		ldrb	r1, [r6, #36]	@ zero_extendqisi2
 2426 0158 E529     		cmp	r1, #229
 2427 015a 02D1     		bne	.L657
 2428 015c 0521     		movs	r1, #5
 2429 015e 86F82410 		strb	r1, [r6, #36]
 2430              	.L657:
ARM GAS  /var/folders/sy/x1dkwsgj58j1lmy_hry3vpdm0000gn/T//cc0MFmUD.s 			page 43


 2431 0162 082A     		cmp	r2, #8
 2432 0164 00F08C80 		beq	.L737
 2433              	.L647:
 2434 0168 03F00C02 		and	r2, r3, #12
 2435 016c 0C2A     		cmp	r2, #12
 2436 016e 61D0     		beq	.L658
 2437 0170 03F00303 		and	r3, r3, #3
 2438 0174 032B     		cmp	r3, #3
 2439 0176 5DD0     		beq	.L658
 2440 0178 18F0020F 		tst	r8, #2
 2441 017c 07D1     		bne	.L637
 2442 017e 012B     		cmp	r3, #1
 2443 0180 08BF     		it	eq
 2444 0182 48F01008 		orreq	r8, r8, #16
 2445              	.L659:
 2446 0186 042A     		cmp	r2, #4
 2447 0188 08BF     		it	eq
 2448 018a 48F00808 		orreq	r8, r8, #8
 2449              	.L637:
 2450 018e 3046     		mov	r0, r6
 2451 0190 86F82F80 		strb	r8, [r6, #47]
 2452 0194 FFF7FEFF 		bl	dir_find
 2453 0198 96F82F30 		ldrb	r3, [r6, #47]	@ zero_extendqisi2
 2454 019c 0028     		cmp	r0, #0
 2455 019e 54D1     		bne	.L738
 2456              	.L661:
 2457 01a0 5A07     		lsls	r2, r3, #29
 2458 01a2 3FF56FAF 		bmi	.L677
 2459 01a6 B379     		ldrb	r3, [r6, #6]	@ zero_extendqisi2
 2460 01a8 DB06     		lsls	r3, r3, #27
 2461 01aa 40F19180 		bpl	.L671
 2462 01ae 7269     		ldr	r2, [r6, #20]
 2463 01b0 0BF13403 		add	r3, fp, #52
 2464 01b4 9BF80010 		ldrb	r1, [fp]	@ zero_extendqisi2
 2465 01b8 C2F30802 		ubfx	r2, r2, #0, #9
 2466 01bc 0329     		cmp	r1, #3
 2467 01be 1344     		add	r3, r3, r2
 2468 01c0 5A8B     		ldrh	r2, [r3, #26]	@ unaligned
 2469 01c2 02D1     		bne	.L663
 2470 01c4 9B8A     		ldrh	r3, [r3, #20]	@ unaligned
 2471 01c6 42EA0342 		orr	r2, r2, r3, lsl #16
 2472              	.L663:
 2473 01ca B260     		str	r2, [r6, #8]
 2474 01cc 3268     		ldr	r2, [r6]
 2475 01ce 3B78     		ldrb	r3, [r7]	@ zero_extendqisi2
 2476 01d0 2DE7     		b	.L617
 2477              	.L642:
 2478 01d2 4D45     		cmp	r5, r9
 2479 01d4 1BD9     		bls	.L676
 2480 01d6 AAEB0401 		sub	r1, r10, r4
 2481 01da B1FA81F1 		clz	r1, r1
 2482 01de 4909     		lsrs	r1, r1, #5
 2483 01e0 A9B9     		cbnz	r1, .L676
 2484 01e2 7F28     		cmp	r0, #127
 2485 01e4 39D8     		bhi	.L739
 2486              	.L649:
 2487 01e6 2B21     		movs	r1, #43
ARM GAS  /var/folders/sy/x1dkwsgj58j1lmy_hry3vpdm0000gn/T//cc0MFmUD.s 			page 44


 2488 01e8 DFF80CC1 		ldr	ip, .L742+8
 2489 01ec 03E0     		b	.L652
 2490              	.L654:
 2491 01ee 1CF8011F 		ldrb	r1, [ip, #1]!	@ zero_extendqisi2
 2492 01f2 0029     		cmp	r1, #0
 2493 01f4 4ED0     		beq	.L653
 2494              	.L652:
 2495 01f6 8142     		cmp	r1, r0
 2496 01f8 F9D1     		bne	.L654
 2497              	.L651:
 2498 01fa 48F00308 		orr	r8, r8, #3
 2499 01fe 5F20     		movs	r0, #95
 2500              	.L655:
 2501 0200 07EB0901 		add	r1, r7, r9
 2502 0204 09F10109 		add	r9, r9, #1
 2503 0208 81F82400 		strb	r0, [r1, #36]
 2504 020c 9AE7     		b	.L643
 2505              	.L676:
 2506 020e 0B2D     		cmp	r5, #11
 2507 0210 60D0     		beq	.L740
 2508 0212 A245     		cmp	r10, r4
 2509 0214 02D0     		beq	.L648
 2510 0216 48F00308 		orr	r8, r8, #3
 2511 021a 98D3     		bcc	.L640
 2512              	.L648:
 2513 021c 9B00     		lsls	r3, r3, #2
 2514 021e 5446     		mov	r4, r10
 2515 0220 0B25     		movs	r5, #11
 2516 0222 4FF00809 		mov	r9, #8
 2517 0226 DBB2     		uxtb	r3, r3
 2518 0228 8CE7     		b	.L643
 2519              	.L628:
 2520 022a 1F44     		add	r7, r7, r3
 2521 022c A246     		mov	r10, r4
 2522 022e 4FF00408 		mov	r8, #4
 2523 0232 45E7     		b	.L667
 2524              	.L658:
 2525 0234 48F00208 		orr	r8, r8, #2
 2526 0238 3046     		mov	r0, r6
 2527 023a 86F82F80 		strb	r8, [r6, #47]
 2528 023e FFF7FEFF 		bl	dir_find
 2529 0242 96F82F30 		ldrb	r3, [r6, #47]	@ zero_extendqisi2
 2530 0246 0028     		cmp	r0, #0
 2531 0248 AAD0     		beq	.L661
 2532              	.L738:
 2533 024a 0428     		cmp	r0, #4
 2534 024c 7FF41AAF 		bne	.L677
 2535 0250 13F0040F 		tst	r3, #4
 2536 0254 08BF     		it	eq
 2537 0256 0520     		moveq	r0, #5
 2538 0258 14E7     		b	.L677
 2539              	.L739:
 2540 025a CDE90032 		strd	r3, r2, [sp]
 2541 025e FFF7FEFF 		bl	ff_convert
 2542 0262 DDE90032 		ldrd	r3, r2, [sp]
 2543 0266 10B9     		cbnz	r0, .L650
 2544 0268 48F00208 		orr	r8, r8, #2
ARM GAS  /var/folders/sy/x1dkwsgj58j1lmy_hry3vpdm0000gn/T//cc0MFmUD.s 			page 45


 2545 026c C5E7     		b	.L651
 2546              	.L650:
 2547 026e 2149     		ldr	r1, .L742+4
 2548 0270 48F00208 		orr	r8, r8, #2
 2549 0274 0144     		add	r1, r1, r0
 2550 0276 11F8800C 		ldrb	r0, [r1, #-128]	@ zero_extendqisi2
 2551 027a 0028     		cmp	r0, #0
 2552 027c BDD0     		beq	.L651
 2553 027e B2E7     		b	.L649
 2554              	.L737:
 2555 0280 9B00     		lsls	r3, r3, #2
 2556 0282 03F00C02 		and	r2, r3, #12
 2557 0286 0C2A     		cmp	r2, #12
 2558 0288 D4D0     		beq	.L658
 2559 028a 18F0020F 		tst	r8, #2
 2560 028e 3FF47AAF 		beq	.L659
 2561 0292 7CE7     		b	.L637
 2562              	.L653:
 2563 0294 A0F14101 		sub	r1, r0, #65
 2564 0298 1929     		cmp	r1, #25
 2565 029a 0ED8     		bhi	.L741
 2566 029c 43F00203 		orr	r3, r3, #2
 2567 02a0 C0B2     		uxtb	r0, r0
 2568 02a2 ADE7     		b	.L655
 2569              	.L735:
 2570 02a4 8023     		movs	r3, #128
 2571 02a6 3046     		mov	r0, r6
 2572 02a8 86F82F30 		strb	r3, [r6, #47]
 2573 02ac 03B0     		add	sp, sp, #12
 2574              		@ sp needed
 2575 02ae BDE8F04F 		pop	{r4, r5, r6, r7, r8, r9, r10, fp, lr}
 2576 02b2 FFF7FEBF 		b	dir_sdi
 2577              	.L736:
 2578 02b6 0124     		movs	r4, #1
 2579 02b8 2AE7     		b	.L634
 2580              	.L741:
 2581 02ba A0F16101 		sub	r1, r0, #97
 2582 02be 1929     		cmp	r1, #25
 2583 02c0 9CBF     		itt	ls
 2584 02c2 2038     		subls	r0, r0, #32
 2585 02c4 43F00103 		orrls	r3, r3, #1
 2586 02c8 C0B2     		uxtb	r0, r0
 2587 02ca 99E7     		b	.L655
 2588              	.L669:
 2589 02cc 1746     		mov	r7, r2
 2590 02ce F2E6     		b	.L621
 2591              	.L671:
 2592 02d0 0520     		movs	r0, #5
 2593 02d2 D7E6     		b	.L677
 2594              	.L740:
 2595 02d4 3E46     		mov	r6, r7
 2596 02d6 1746     		mov	r7, r2
 2597 02d8 48F00308 		orr	r8, r8, #3
 2598 02dc 96F82420 		ldrb	r2, [r6, #36]	@ zero_extendqisi2
 2599 02e0 E52A     		cmp	r2, #229
 2600 02e2 7FF441AF 		bne	.L647
 2601 02e6 0522     		movs	r2, #5
ARM GAS  /var/folders/sy/x1dkwsgj58j1lmy_hry3vpdm0000gn/T//cc0MFmUD.s 			page 46


 2602 02e8 86F82420 		strb	r2, [r6, #36]
 2603 02ec 3CE7     		b	.L647
 2604              	.L743:
 2605 02ee 00BF     		.align	2
 2606              	.L742:
 2607 02f0 00000000 		.word	.LC0
 2608 02f4 00000000 		.word	.LANCHOR5
 2609 02f8 0C000000 		.word	.LC1
 2611              		.section	.text.dir_register,"ax",%progbits
 2612              		.align	1
 2613              		.p2align 2,,3
 2614              		.syntax unified
 2615              		.thumb
 2616              		.thumb_func
 2617              		.fpu fpv5-d16
 2619              	dir_register:
 2620              		@ args = 0, pretend = 0, frame = 40
 2621              		@ frame_needed = 0, uses_anonymous_args = 0
 2622 0000 2DE9F04F 		push	{r4, r5, r6, r7, r8, r9, r10, fp, lr}
 2623 0004 2DED028B 		vpush.64	{d8}
 2624 0008 90F82F30 		ldrb	r3, [r0, #47]	@ zero_extendqisi2
 2625 000c 8BB0     		sub	sp, sp, #44
 2626 000e 13F0A002 		ands	r2, r3, #160
 2627 0012 0093     		str	r3, [sp]
 2628 0014 40F02E81 		bne	.L798
 2629 0018 D0F800A0 		ldr	r10, [r0]
 2630 001c 0646     		mov	r6, r0
 2631 001e DAF80CE0 		ldr	lr, [r10, #12]
 2632 0022 BEF80030 		ldrh	r3, [lr]
 2633 0026 002B     		cmp	r3, #0
 2634 0028 00F0C781 		beq	.L799
 2635 002c 9346     		mov	fp, r2
 2636 002e 7246     		mov	r2, lr
 2637              	.L747:
 2638 0030 32F8023F 		ldrh	r3, [r2, #2]!
 2639 0034 0BF1010B 		add	fp, fp, #1
 2640 0038 002B     		cmp	r3, #0
 2641 003a F9D1     		bne	.L747
 2642              	.L746:
 2643 003c 06F12403 		add	r3, r6, #36
 2644 0040 0DF11C08 		add	r8, sp, #28
 2645 0044 93E80700 		ldm	r3, {r0, r1, r2}
 2646 0048 88E80700 		stm	r8, {r0, r1, r2}
 2647 004c 009A     		ldr	r2, [sp]
 2648 004e 0293     		str	r3, [sp, #8]
 2649 0050 D107     		lsls	r1, r2, #31
 2650 0052 6BD5     		bpl	.L800
 2651 0054 6FF02305 		mvn	r5, #35
 2652 0058 4022     		movs	r2, #64
 2653 005a B146     		mov	r9, r6
 2654 005c 0127     		movs	r7, #1
 2655 005e AD1B     		subs	r5, r5, r6
 2656 0060 86F82F20 		strb	r2, [r6, #47]
 2657 0064 AD4C     		ldr	r4, .L855
 2658 0066 7346     		mov	r3, lr
 2659 0068 029E     		ldr	r6, [sp, #8]
 2660              	.L762:
ARM GAS  /var/folders/sy/x1dkwsgj58j1lmy_hry3vpdm0000gn/T//cc0MFmUD.s 			page 47


 2661 006a B446     		mov	ip, r6
 2662 006c 052F     		cmp	r7, #5
 2663 006e 98E80700 		ldm	r8, {r0, r1, r2}
 2664 0072 ACE80300 		stmia	ip!, {r0, r1}
 2665 0076 2CF8022B 		strh	r2, [ip], #2	@ movhi
 2666 007a 4FEA1242 		lsr	r2, r2, #16
 2667 007e 8CF80020 		strb	r2, [ip]
 2668 0082 6FD9     		bls	.L802
 2669 0084 1988     		ldrh	r1, [r3]
 2670 0086 0029     		cmp	r1, #0
 2671 0088 6CD0     		beq	.L802
 2672 008a 9C46     		mov	ip, r3
 2673 008c 3B46     		mov	r3, r7
 2674              	.L752:
 2675 008e 1020     		movs	r0, #16
 2676              	.L751:
 2677 0090 01F00102 		and	r2, r1, #1
 2678 0094 4908     		lsrs	r1, r1, #1
 2679 0096 02EB4303 		add	r3, r2, r3, lsl #1
 2680 009a DA03     		lsls	r2, r3, #15
 2681 009c 48BF     		it	mi
 2682 009e 6340     		eormi	r3, r3, r4
 2683 00a0 0138     		subs	r0, r0, #1
 2684 00a2 F5D1     		bne	.L751
 2685 00a4 3CF8021F 		ldrh	r1, [ip, #2]!
 2686 00a8 0029     		cmp	r1, #0
 2687 00aa F0D1     		bne	.L752
 2688              	.L749:
 2689 00ac 0DF11B0C 		add	ip, sp, #27
 2690 00b0 0722     		movs	r2, #7
 2691              	.L754:
 2692 00b2 03F00F00 		and	r0, r3, #15
 2693 00b6 4FEA131E 		lsr	lr, r3, #4
 2694 00ba 013A     		subs	r2, r2, #1
 2695 00bc 00F13001 		add	r1, r0, #48
 2696 00c0 3929     		cmp	r1, #57
 2697 00c2 88BF     		it	hi
 2698 00c4 00F13701 		addhi	r1, r0, #55
 2699 00c8 0F2B     		cmp	r3, #15
 2700 00ca 7346     		mov	r3, lr
 2701 00cc 0CF80119 		strb	r1, [ip], #-1
 2702 00d0 EFD8     		bhi	.L754
 2703 00d2 0AAB     		add	r3, sp, #40
 2704 00d4 7E21     		movs	r1, #126
 2705 00d6 1344     		add	r3, r3, r2
 2706 00d8 03F8141C 		strb	r1, [r3, #-20]
 2707 00dc 002A     		cmp	r2, #0
 2708 00de 43D0     		beq	.L804
 2709 00e0 09F12301 		add	r1, r9, #35
 2710 00e4 0023     		movs	r3, #0
 2711 00e6 02E0     		b	.L756
 2712              	.L757:
 2713 00e8 0133     		adds	r3, r3, #1
 2714 00ea 9A42     		cmp	r2, r3
 2715 00ec 03D0     		beq	.L755
 2716              	.L756:
 2717 00ee 11F8010F 		ldrb	r0, [r1, #1]!	@ zero_extendqisi2
ARM GAS  /var/folders/sy/x1dkwsgj58j1lmy_hry3vpdm0000gn/T//cc0MFmUD.s 			page 48


 2718 00f2 2028     		cmp	r0, #32
 2719 00f4 F8D1     		bne	.L757
 2720              	.L755:
 2721 00f6 2433     		adds	r3, r3, #36
 2722 00f8 4B44     		add	r3, r3, r9
 2723              	.L759:
 2724 00fa 0AA9     		add	r1, sp, #40
 2725 00fc 072A     		cmp	r2, #7
 2726 00fe 01EB0200 		add	r0, r1, r2
 2727 0102 4FF02001 		mov	r1, #32
 2728 0106 02D8     		bhi	.L758
 2729 0108 10F8141C 		ldrb	r1, [r0, #-20]	@ zero_extendqisi2
 2730 010c 0132     		adds	r2, r2, #1
 2731              	.L758:
 2732 010e 03F8011B 		strb	r1, [r3], #1
 2733 0112 E918     		adds	r1, r5, r3
 2734 0114 0729     		cmp	r1, #7
 2735 0116 F0D9     		bls	.L759
 2736 0118 4846     		mov	r0, r9
 2737 011a FFF7FEFF 		bl	dir_find
 2738 011e 28BB     		cbnz	r0, .L760
 2739 0120 0137     		adds	r7, r7, #1
 2740 0122 642F     		cmp	r7, #100
 2741 0124 16D0     		beq	.L797
 2742 0126 DAF80C30 		ldr	r3, [r10, #12]
 2743 012a 9EE7     		b	.L762
 2744              	.L800:
 2745 012c 009B     		ldr	r3, [sp]
 2746 012e 5446     		mov	r4, r10
 2747 0130 9B07     		lsls	r3, r3, #30
 2748 0132 26D5     		bpl	.L807
 2749              	.L850:
 2750 0134 7A4B     		ldr	r3, .L855+4
 2751 0136 0BF10C07 		add	r7, fp, #12
 2752 013a 0021     		movs	r1, #0
 2753 013c 3046     		mov	r0, r6
 2754 013e A3FB0737 		umull	r3, r7, r3, r7
 2755 0142 FFF7FEFF 		bl	dir_sdi
 2756 0146 8146     		mov	r9, r0
 2757 0148 BF08     		lsrs	r7, r7, #2
 2758 014a 0137     		adds	r7, r7, #1
 2759 014c 08B3     		cbz	r0, .L849
 2760              	.L764:
 2761 014e 0428     		cmp	r0, #4
 2762 0150 40F03A81 		bne	.L848
 2763              	.L797:
 2764 0154 4FF00709 		mov	r9, #7
 2765              	.L813:
 2766 0158 4846     		mov	r0, r9
 2767 015a 0BB0     		add	sp, sp, #44
 2768              		@ sp needed
 2769 015c BDEC028B 		vldm	sp!, {d8}
 2770 0160 BDE8F08F 		pop	{r4, r5, r6, r7, r8, r9, r10, fp, pc}
 2771              	.L802:
 2772 0164 3B46     		mov	r3, r7
 2773 0166 A1E7     		b	.L749
 2774              	.L804:
ARM GAS  /var/folders/sy/x1dkwsgj58j1lmy_hry3vpdm0000gn/T//cc0MFmUD.s 			page 49


 2775 0168 1346     		mov	r3, r2
 2776 016a C4E7     		b	.L755
 2777              	.L760:
 2778 016c 0428     		cmp	r0, #4
 2779 016e 4E46     		mov	r6, r9
 2780 0170 8146     		mov	r9, r0
 2781 0172 F1D1     		bne	.L813
 2782 0174 009B     		ldr	r3, [sp]
 2783 0176 3468     		ldr	r4, [r6]
 2784 0178 86F82F30 		strb	r3, [r6, #47]
 2785 017c 009B     		ldr	r3, [sp]
 2786 017e 9B07     		lsls	r3, r3, #30
 2787 0180 D8D4     		bmi	.L850
 2788              	.L807:
 2789 0182 0021     		movs	r1, #0
 2790 0184 3046     		mov	r0, r6
 2791 0186 FFF7FEFF 		bl	dir_sdi
 2792 018a 0127     		movs	r7, #1
 2793 018c 8146     		mov	r9, r0
 2794 018e 0028     		cmp	r0, #0
 2795 0190 DDD1     		bne	.L764
 2796              	.L849:
 2797 0192 0546     		mov	r5, r0
 2798 0194 04F13408 		add	r8, r4, #52
 2799              	.L774:
 2800 0198 D6F81CB0 		ldr	fp, [r6, #28]
 2801 019c 236B     		ldr	r3, [r4, #48]
 2802 019e 9B45     		cmp	fp, r3
 2803 01a0 16D0     		beq	.L765
 2804 01a2 E378     		ldrb	r3, [r4, #3]	@ zero_extendqisi2
 2805 01a4 002B     		cmp	r3, #0
 2806 01a6 5FD1     		bne	.L766
 2807              	.L769:
 2808 01a8 0123     		movs	r3, #1
 2809 01aa 5A46     		mov	r2, fp
 2810 01ac 4146     		mov	r1, r8
 2811 01ae 6078     		ldrb	r0, [r4, #1]	@ zero_extendqisi2
 2812 01b0 FFF7FEFF 		bl	disk_read
 2813 01b4 50B1     		cbz	r0, .L851
 2814 01b6 4FF00109 		mov	r9, #1
 2815 01ba 4FF0FF33 		mov	r3, #-1
 2816 01be 4846     		mov	r0, r9
 2817 01c0 2363     		str	r3, [r4, #48]
 2818 01c2 0BB0     		add	sp, sp, #44
 2819              		@ sp needed
 2820 01c4 BDEC028B 		vldm	sp!, {d8}
 2821 01c8 BDE8F08F 		pop	{r4, r5, r6, r7, r8, r9, r10, fp, pc}
 2822              	.L851:
 2823 01cc C4F830B0 		str	fp, [r4, #48]
 2824              	.L765:
 2825 01d0 336A     		ldr	r3, [r6, #32]
 2826 01d2 1B78     		ldrb	r3, [r3]	@ zero_extendqisi2
 2827 01d4 E52B     		cmp	r3, #229
 2828 01d6 0BD0     		beq	.L812
 2829 01d8 B3FA83F2 		clz	r2, r3
 2830 01dc 5209     		lsrs	r2, r2, #5
 2831 01de 3BB1     		cbz	r3, .L812
ARM GAS  /var/folders/sy/x1dkwsgj58j1lmy_hry3vpdm0000gn/T//cc0MFmUD.s 			page 50


 2832 01e0 1546     		mov	r5, r2
 2833              	.L770:
 2834 01e2 0121     		movs	r1, #1
 2835 01e4 3046     		mov	r0, r6
 2836 01e6 FFF7FEFF 		bl	dir_next
 2837 01ea 0028     		cmp	r0, #0
 2838 01ec D4D0     		beq	.L774
 2839 01ee AEE7     		b	.L764
 2840              	.L812:
 2841 01f0 0135     		adds	r5, r5, #1
 2842 01f2 AF42     		cmp	r7, r5
 2843 01f4 F5D1     		bne	.L770
 2844 01f6 7B1E     		subs	r3, r7, #1
 2845 01f8 0093     		str	r3, [sp]
 2846 01fa 3ED1     		bne	.L852
 2847              	.L773:
 2848 01fc F469     		ldr	r4, [r6, #28]
 2849 01fe DAF83030 		ldr	r3, [r10, #48]
 2850 0202 9C42     		cmp	r4, r3
 2851 0204 11D0     		beq	.L776
 2852 0206 9AF80330 		ldrb	r3, [r10, #3]	@ zero_extendqisi2
 2853 020a 002B     		cmp	r3, #0
 2854 020c 40F0DE80 		bne	.L791
 2855              	.L794:
 2856 0210 0123     		movs	r3, #1
 2857 0212 2246     		mov	r2, r4
 2858 0214 0AF13401 		add	r1, r10, #52
 2859 0218 9AF80100 		ldrb	r0, [r10, #1]	@ zero_extendqisi2
 2860 021c FFF7FEFF 		bl	disk_read
 2861 0220 0028     		cmp	r0, #0
 2862 0222 40F0C380 		bne	.L792
 2863 0226 CAF83040 		str	r4, [r10, #48]
 2864              	.L776:
 2865 022a 2022     		movs	r2, #32
 2866 022c 0021     		movs	r1, #0
 2867 022e 306A     		ldr	r0, [r6, #32]
 2868 0230 FFF7FEFF 		bl	memset
 2869 0234 336A     		ldr	r3, [r6, #32]
 2870 0236 06F12F01 		add	r1, r6, #47
 2871 023a 029A     		ldr	r2, [sp, #8]
 2872 023c 013B     		subs	r3, r3, #1
 2873              	.L795:
 2874 023e 12F8010B 		ldrb	r0, [r2], #1	@ zero_extendqisi2
 2875 0242 9142     		cmp	r1, r2
 2876 0244 03F8010F 		strb	r0, [r3, #1]!
 2877 0248 F9D1     		bne	.L795
 2878 024a 96F82F30 		ldrb	r3, [r6, #47]	@ zero_extendqisi2
 2879 024e 0122     		movs	r2, #1
 2880 0250 316A     		ldr	r1, [r6, #32]
 2881 0252 4846     		mov	r0, r9
 2882 0254 03F01803 		and	r3, r3, #24
 2883 0258 0B73     		strb	r3, [r1, #12]
 2884 025a 8AF80320 		strb	r2, [r10, #3]
 2885 025e 0BB0     		add	sp, sp, #44
 2886              		@ sp needed
 2887 0260 BDEC028B 		vldm	sp!, {d8}
 2888 0264 BDE8F08F 		pop	{r4, r5, r6, r7, r8, r9, r10, fp, pc}
ARM GAS  /var/folders/sy/x1dkwsgj58j1lmy_hry3vpdm0000gn/T//cc0MFmUD.s 			page 51


 2889              	.L766:
 2890 0268 2046     		mov	r0, r4
 2891 026a FFF7FEFF 		bl	sync_window.part.0
 2892 026e 0028     		cmp	r0, #0
 2893 0270 9AD0     		beq	.L769
 2894 0272 6CE7     		b	.L764
 2895              	.L798:
 2896 0274 4FF00609 		mov	r9, #6
 2897 0278 6EE7     		b	.L813
 2898              	.L852:
 2899 027a 7169     		ldr	r1, [r6, #20]
 2900 027c 3046     		mov	r0, r6
 2901 027e 009B     		ldr	r3, [sp]
 2902 0280 A1EB4311 		sub	r1, r1, r3, lsl #5
 2903 0284 FFF7FEFF 		bl	dir_sdi
 2904 0288 0190     		str	r0, [sp, #4]
 2905 028a 0028     		cmp	r0, #0
 2906 028c 40F0A680 		bne	.L810
 2907 0290 06F12F01 		add	r1, r6, #47
 2908 0294 029A     		ldr	r2, [sp, #8]
 2909              	.L777:
 2910 0296 C301     		lsls	r3, r0, #7
 2911 0298 43EA5003 		orr	r3, r3, r0, lsr #1
 2912 029c 12F8010B 		ldrb	r0, [r2], #1	@ zero_extendqisi2
 2913 02a0 50FA83F3 		uxtab	r3, r0, r3
 2914 02a4 8A42     		cmp	r2, r1
 2915 02a6 D8B2     		uxtb	r0, r3
 2916 02a8 F5D1     		bne	.L777
 2917 02aa 0AF13403 		add	r3, r10, #52
 2918 02ae DFF874B0 		ldr	fp, .L855+8
 2919 02b2 0190     		str	r0, [sp, #4]
 2920 02b4 08EE103A 		vmov	s16, r3	@ int
 2921 02b8 CDF80C90 		str	r9, [sp, #12]
 2922              	.L790:
 2923 02bc F469     		ldr	r4, [r6, #28]
 2924 02be DAF83030 		ldr	r3, [r10, #48]
 2925 02c2 9C42     		cmp	r4, r3
 2926 02c4 0FD0     		beq	.L778
 2927 02c6 9AF80330 		ldrb	r3, [r10, #3]	@ zero_extendqisi2
 2928 02ca 002B     		cmp	r3, #0
 2929 02cc 77D1     		bne	.L779
 2930              	.L782:
 2931 02ce 0123     		movs	r3, #1
 2932 02d0 2246     		mov	r2, r4
 2933 02d2 18EE101A 		vmov	r1, s16	@ int
 2934 02d6 9AF80100 		ldrb	r0, [r10, #1]	@ zero_extendqisi2
 2935 02da FFF7FEFF 		bl	disk_read
 2936 02de 0028     		cmp	r0, #0
 2937 02e0 64D1     		bne	.L792
 2938 02e2 CAF83040 		str	r4, [r10, #48]
 2939              	.L778:
 2940 02e6 9DF80090 		ldrb	r9, [sp]	@ zero_extendqisi2
 2941 02ea 0F27     		movs	r7, #15
 2942 02ec 316A     		ldr	r1, [r6, #32]
 2943 02ee 0025     		movs	r5, #0
 2944 02f0 09F1FF30 		add	r0, r9, #-1
 2945 02f4 DAF80CE0 		ldr	lr, [r10, #12]
ARM GAS  /var/folders/sy/x1dkwsgj58j1lmy_hry3vpdm0000gn/T//cc0MFmUD.s 			page 52


 2946 02f8 CF72     		strb	r7, [r1, #11]
 2947 02fa 2B46     		mov	r3, r5
 2948 02fc 00EB4002 		add	r2, r0, r0, lsl #1
 2949 0300 019F     		ldr	r7, [sp, #4]
 2950 0302 0124     		movs	r4, #1
 2951 0304 4FF6FF78 		movw	r8, #65535
 2952 0308 00EB8200 		add	r0, r0, r2, lsl #2
 2953 030c 4FF0FF0C 		mov	ip, #255
 2954 0310 2A46     		mov	r2, r5
 2955 0312 4F73     		strb	r7, [r1, #13]
 2956 0314 0D73     		strb	r5, [r1, #12]
 2957 0316 8D76     		strb	r5, [r1, #26]
 2958 0318 CD76     		strb	r5, [r1, #27]
 2959 031a 1DE0     		b	.L788
 2960              	.L856:
 2961              		.align	2
 2962              	.L855:
 2963 031c 21100100 		.word	69665
 2964 0320 4FECC44E 		.word	1321528399
 2965 0324 00000000 		.word	.LANCHOR4
 2966              	.L853:
 2967 0328 3EF81030 		ldrh	r3, [lr, r0, lsl #1]
 2968 032c 180A     		lsrs	r0, r3, #8
 2969 032e 0B55     		strb	r3, [r1, r4]
 2970 0330 6870     		strb	r0, [r5, #1]
 2971 0332 5BB9     		cbnz	r3, .L784
 2972 0334 0132     		adds	r2, r2, #1
 2973 0336 4FF6FF73 		movw	r3, #65535
 2974 033a 0D2A     		cmp	r2, #13
 2975 033c 23D0     		beq	.L789
 2976 033e 1BF80200 		ldrb	r0, [fp, r2]	@ zero_extendqisi2
 2977 0342 0C18     		adds	r4, r1, r0
 2978 0344 01F800C0 		strb	ip, [r1, r0]
 2979 0348 84F801C0 		strb	ip, [r4, #1]
 2980              	.L784:
 2981 034c 0132     		adds	r2, r2, #1
 2982 034e 3846     		mov	r0, r7
 2983 0350 0D2A     		cmp	r2, #13
 2984 0352 11D0     		beq	.L787
 2985              	.L854:
 2986 0354 1BF80240 		ldrb	r4, [fp, r2]	@ zero_extendqisi2
 2987              	.L788:
 2988 0358 4345     		cmp	r3, r8
 2989 035a 01EB0405 		add	r5, r1, r4
 2990 035e 00F10107 		add	r7, r0, #1
 2991 0362 E1D1     		bne	.L853
 2992 0364 0132     		adds	r2, r2, #1
 2993 0366 01F804C0 		strb	ip, [r1, r4]
 2994 036a 0746     		mov	r7, r0
 2995 036c 0C44     		add	r4, r4, r1
 2996 036e 0D2A     		cmp	r2, #13
 2997 0370 3846     		mov	r0, r7
 2998 0372 84F801C0 		strb	ip, [r4, #1]
 2999 0376 EDD1     		bne	.L854
 3000              	.L787:
 3001 0378 4FF6FF72 		movw	r2, #65535
 3002 037c 9342     		cmp	r3, r2
ARM GAS  /var/folders/sy/x1dkwsgj58j1lmy_hry3vpdm0000gn/T//cc0MFmUD.s 			page 53


 3003 037e 02D0     		beq	.L789
 3004 0380 3EF81730 		ldrh	r3, [lr, r7, lsl #1]
 3005 0384 0BB9     		cbnz	r3, .L786
 3006              	.L789:
 3007 0386 49F04009 		orr	r9, r9, #64
 3008              	.L786:
 3009 038a 0123     		movs	r3, #1
 3010 038c 81F80090 		strb	r9, [r1]
 3011 0390 3046     		mov	r0, r6
 3012 0392 0021     		movs	r1, #0
 3013 0394 8AF80330 		strb	r3, [r10, #3]
 3014 0398 FFF7FEFF 		bl	dir_next
 3015 039c A0B9     		cbnz	r0, .L848
 3016 039e 009B     		ldr	r3, [sp]
 3017 03a0 013B     		subs	r3, r3, #1
 3018 03a2 0093     		str	r3, [sp]
 3019 03a4 8AD1     		bne	.L790
 3020 03a6 DDF80C90 		ldr	r9, [sp, #12]
 3021 03aa 27E7     		b	.L773
 3022              	.L792:
 3023 03ac 4FF0FF33 		mov	r3, #-1
 3024 03b0 4FF00109 		mov	r9, #1
 3025 03b4 CAF83030 		str	r3, [r10, #48]
 3026 03b8 CEE6     		b	.L813
 3027              	.L799:
 3028 03ba 9B46     		mov	fp, r3
 3029 03bc 3EE6     		b	.L746
 3030              	.L779:
 3031 03be 5046     		mov	r0, r10
 3032 03c0 FFF7FEFF 		bl	sync_window.part.0
 3033 03c4 0028     		cmp	r0, #0
 3034 03c6 82D0     		beq	.L782
 3035              	.L848:
 3036 03c8 8146     		mov	r9, r0
 3037 03ca C5E6     		b	.L813
 3038              	.L791:
 3039 03cc 5046     		mov	r0, r10
 3040 03ce FFF7FEFF 		bl	sync_window.part.0
 3041 03d2 0028     		cmp	r0, #0
 3042 03d4 3FF41CAF 		beq	.L794
 3043 03d8 8146     		mov	r9, r0
 3044 03da BDE6     		b	.L813
 3045              	.L810:
 3046 03dc DDF80490 		ldr	r9, [sp, #4]
 3047 03e0 BAE6     		b	.L813
 3049 03e2 00BF     		.section	.text.f_mount,"ax",%progbits
 3050              		.align	1
 3051              		.p2align 2,,3
 3052              		.global	f_mount
 3053              		.syntax unified
 3054              		.thumb
 3055              		.thumb_func
 3056              		.fpu fpv5-d16
 3058              	f_mount:
 3059              		@ args = 0, pretend = 0, frame = 16
 3060              		@ frame_needed = 0, uses_anonymous_args = 0
 3061 0000 30B5     		push	{r4, r5, lr}
ARM GAS  /var/folders/sy/x1dkwsgj58j1lmy_hry3vpdm0000gn/T//cc0MFmUD.s 			page 54


 3062 0002 85B0     		sub	sp, sp, #20
 3063 0004 1546     		mov	r5, r2
 3064 0006 0190     		str	r0, [sp, #4]
 3065 0008 03A8     		add	r0, sp, #12
 3066 000a 0091     		str	r1, [sp]
 3067 000c 0391     		str	r1, [sp, #12]
 3068 000e FFF7FEFF 		bl	get_ldnumber
 3069 0012 031E     		subs	r3, r0, #0
 3070 0014 22DB     		blt	.L863
 3071 0016 164C     		ldr	r4, .L872
 3072 0018 54F82310 		ldr	r1, [r4, r3, lsl #2]
 3073 001c 41B1     		cbz	r1, .L859
 3074 001e 154A     		ldr	r2, .L872+4
 3075 0020 1068     		ldr	r0, [r2]
 3076 0022 8142     		cmp	r1, r0
 3077 0024 20D0     		beq	.L870
 3078              	.L860:
 3079 0026 1069     		ldr	r0, [r2, #16]
 3080 0028 8142     		cmp	r1, r0
 3081 002a 1AD0     		beq	.L871
 3082              	.L861:
 3083 002c 0022     		movs	r2, #0
 3084 002e 0A70     		strb	r2, [r1]
 3085              	.L859:
 3086 0030 0199     		ldr	r1, [sp, #4]
 3087 0032 59B1     		cbz	r1, .L862
 3088 0034 0022     		movs	r2, #0
 3089 0036 012D     		cmp	r5, #1
 3090 0038 0A70     		strb	r2, [r1]
 3091 003a 44F82310 		str	r1, [r4, r3, lsl #2]
 3092 003e 0AD1     		bne	.L864
 3093 0040 01A9     		add	r1, sp, #4
 3094 0042 6846     		mov	r0, sp
 3095 0044 FFF7FEFF 		bl	find_volume
 3096 0048 05B0     		add	sp, sp, #20
 3097              		@ sp needed
 3098 004a 30BD     		pop	{r4, r5, pc}
 3099              	.L862:
 3100 004c 0846     		mov	r0, r1
 3101 004e 44F82310 		str	r1, [r4, r3, lsl #2]
 3102 0052 05B0     		add	sp, sp, #20
 3103              		@ sp needed
 3104 0054 30BD     		pop	{r4, r5, pc}
 3105              	.L864:
 3106 0056 1046     		mov	r0, r2
 3107 0058 05B0     		add	sp, sp, #20
 3108              		@ sp needed
 3109 005a 30BD     		pop	{r4, r5, pc}
 3110              	.L863:
 3111 005c 0B20     		movs	r0, #11
 3112 005e 05B0     		add	sp, sp, #20
 3113              		@ sp needed
 3114 0060 30BD     		pop	{r4, r5, pc}
 3115              	.L871:
 3116 0062 0020     		movs	r0, #0
 3117 0064 1061     		str	r0, [r2, #16]
 3118 0066 E1E7     		b	.L861
ARM GAS  /var/folders/sy/x1dkwsgj58j1lmy_hry3vpdm0000gn/T//cc0MFmUD.s 			page 55


 3119              	.L870:
 3120 0068 0020     		movs	r0, #0
 3121 006a 1060     		str	r0, [r2]
 3122 006c DBE7     		b	.L860
 3123              	.L873:
 3124 006e 00BF     		.align	2
 3125              	.L872:
 3126 0070 00000000 		.word	.LANCHOR1
 3127 0074 00000000 		.word	.LANCHOR0
 3129              		.section	.text.f_open,"ax",%progbits
 3130              		.align	1
 3131              		.p2align 2,,3
 3132              		.global	f_open
 3133              		.syntax unified
 3134              		.thumb
 3135              		.thumb_func
 3136              		.fpu fpv5-d16
 3138              	f_open:
 3139              		@ args = 0, pretend = 0, frame = 64
 3140              		@ frame_needed = 0, uses_anonymous_args = 0
 3141 0000 2DE9F047 		push	{r4, r5, r6, r7, r8, r9, r10, lr}
 3142 0004 90B0     		sub	sp, sp, #64
 3143 0006 0191     		str	r1, [sp, #4]
 3144 0008 0028     		cmp	r0, #0
 3145 000a 39D0     		beq	.L910
 3146 000c 02F03F07 		and	r7, r2, #63
 3147 0010 1646     		mov	r6, r2
 3148 0012 0446     		mov	r4, r0
 3149 0014 02A9     		add	r1, sp, #8
 3150 0016 01A8     		add	r0, sp, #4
 3151 0018 3A46     		mov	r2, r7
 3152 001a FFF7FEFF 		bl	find_volume
 3153 001e 0546     		mov	r5, r0
 3154 0020 28B1     		cbz	r0, .L956
 3155              	.L876:
 3156 0022 0023     		movs	r3, #0
 3157 0024 2360     		str	r3, [r4]
 3158              	.L921:
 3159 0026 2846     		mov	r0, r5
 3160 0028 10B0     		add	sp, sp, #64
 3161              		@ sp needed
 3162 002a BDE8F087 		pop	{r4, r5, r6, r7, r8, r9, r10, pc}
 3163              	.L956:
 3164 002e 029B     		ldr	r3, [sp, #8]
 3165 0030 03A8     		add	r0, sp, #12
 3166 0032 0199     		ldr	r1, [sp, #4]
 3167 0034 0393     		str	r3, [sp, #12]
 3168 0036 FFF7FEFF 		bl	follow_path
 3169 003a 0346     		mov	r3, r0
 3170 003c D8B9     		cbnz	r0, .L877
 3171 003e 9DF93B30 		ldrsb	r3, [sp, #59]
 3172 0042 002B     		cmp	r3, #0
 3173 0044 3DDB     		blt	.L911
 3174 0046 17F03E0F 		tst	r7, #62
 3175 004a 03A8     		add	r0, sp, #12
 3176 004c 14BF     		ite	ne
 3177 004e 0121     		movne	r1, #1
ARM GAS  /var/folders/sy/x1dkwsgj58j1lmy_hry3vpdm0000gn/T//cc0MFmUD.s 			page 56


 3178 0050 0021     		moveq	r1, #0
 3179 0052 FFF7FEFF 		bl	chk_lock
 3180 0056 16F01C0F 		tst	r6, #28
 3181 005a 0346     		mov	r3, r0
 3182 005c 15D0     		beq	.L878
 3183 005e 0028     		cmp	r0, #0
 3184 0060 31D1     		bne	.L909
 3185 0062 9DF81230 		ldrb	r3, [sp, #18]	@ zero_extendqisi2
 3186 0066 13F0110F 		tst	r3, #17
 3187 006a 38D1     		bne	.L919
 3188 006c 7307     		lsls	r3, r6, #29
 3189 006e 40F1E480 		bpl	.L957
 3190 0072 0825     		movs	r5, #8
 3191 0074 D5E7     		b	.L876
 3192              	.L877:
 3193 0076 16F01C0F 		tst	r6, #28
 3194 007a 24D1     		bne	.L909
 3195              	.L955:
 3196 007c 0546     		mov	r5, r0
 3197 007e D0E7     		b	.L876
 3198              	.L910:
 3199 0080 0925     		movs	r5, #9
 3200 0082 2846     		mov	r0, r5
 3201 0084 10B0     		add	sp, sp, #64
 3202              		@ sp needed
 3203 0086 BDE8F087 		pop	{r4, r5, r6, r7, r8, r9, r10, pc}
 3204              	.L878:
 3205 008a 0028     		cmp	r0, #0
 3206 008c F6D1     		bne	.L955
 3207 008e 9DF81230 		ldrb	r3, [sp, #18]	@ zero_extendqisi2
 3208 0092 DA06     		lsls	r2, r3, #27
 3209 0094 25D4     		bmi	.L918
 3210 0096 B007     		lsls	r0, r6, #30
 3211 0098 01D5     		bpl	.L954
 3212 009a DA07     		lsls	r2, r3, #31
 3213 009c 1FD4     		bmi	.L919
 3214              	.L954:
 3215 009e 029E     		ldr	r6, [sp, #8]
 3216              	.L886:
 3217 00a0 3B07     		lsls	r3, r7, #28
 3218 00a2 40F1C480 		bpl	.L958
 3219 00a6 47F04007 		orr	r7, r7, #64
 3220 00aa 0121     		movs	r1, #1
 3221              	.L894:
 3222 00ac 336B     		ldr	r3, [r6, #48]
 3223 00ae 03A8     		add	r0, sp, #12
 3224 00b0 6362     		str	r3, [r4, #36]
 3225 00b2 0B9B     		ldr	r3, [sp, #44]
 3226 00b4 A362     		str	r3, [r4, #40]
 3227 00b6 FFF7FEFF 		bl	inc_lock
 3228 00ba 2061     		str	r0, [r4, #16]
 3229 00bc 98B9     		cbnz	r0, .L959
 3230              	.L904:
 3231 00be 0225     		movs	r5, #2
 3232 00c0 AFE7     		b	.L876
 3233              	.L911:
 3234 00c2 0625     		movs	r5, #6
ARM GAS  /var/folders/sy/x1dkwsgj58j1lmy_hry3vpdm0000gn/T//cc0MFmUD.s 			page 57


 3235 00c4 ADE7     		b	.L876
 3236              	.L909:
 3237 00c6 042B     		cmp	r3, #4
 3238 00c8 40F0C180 		bne	.L920
 3239 00cc 7C4B     		ldr	r3, .L963
 3240 00ce 1A68     		ldr	r2, [r3]
 3241 00d0 002A     		cmp	r2, #0
 3242 00d2 4BD0     		beq	.L880
 3243 00d4 1B69     		ldr	r3, [r3, #16]
 3244 00d6 002B     		cmp	r3, #0
 3245 00d8 48D0     		beq	.L880
 3246 00da 1225     		movs	r5, #18
 3247 00dc A1E7     		b	.L876
 3248              	.L919:
 3249 00de 0725     		movs	r5, #7
 3250 00e0 9FE7     		b	.L876
 3251              	.L918:
 3252 00e2 0425     		movs	r5, #4
 3253 00e4 9DE7     		b	.L876
 3254              	.L959:
 3255 00e6 DDF80890 		ldr	r9, [sp, #8]
 3256 00ea 0B9B     		ldr	r3, [sp, #44]
 3257 00ec 99F80020 		ldrb	r2, [r9]	@ zero_extendqisi2
 3258 00f0 5E8B     		ldrh	r6, [r3, #26]	@ unaligned
 3259 00f2 032A     		cmp	r2, #3
 3260 00f4 02D1     		bne	.L906
 3261 00f6 9A8A     		ldrh	r2, [r3, #20]	@ unaligned
 3262 00f8 46EA0246 		orr	r6, r6, r2, lsl #16
 3263              	.L906:
 3264 00fc 0021     		movs	r1, #0
 3265 00fe A660     		str	r6, [r4, #8]
 3266 0100 04F1300A 		add	r10, r4, #48
 3267 0104 D3F81C80 		ldr	r8, [r3, #28]	@ unaligned
 3268 0108 B9F80630 		ldrh	r3, [r9, #6]
 3269 010c 4FF40072 		mov	r2, #512
 3270 0110 5046     		mov	r0, r10
 3271 0112 C4F80090 		str	r9, [r4]
 3272 0116 C4F80C80 		str	r8, [r4, #12]
 3273 011a E162     		str	r1, [r4, #44]
 3274 011c A380     		strh	r3, [r4, #4]	@ movhi
 3275 011e 2775     		strb	r7, [r4, #20]
 3276 0120 6175     		strb	r1, [r4, #21]
 3277 0122 2162     		str	r1, [r4, #32]
 3278 0124 A161     		str	r1, [r4, #24]
 3279 0126 FFF7FEFF 		bl	memset
 3280 012a B806     		lsls	r0, r7, #26
 3281 012c 7FF57BAF 		bpl	.L921
 3282 0130 B8F1000F 		cmp	r8, #0
 3283 0134 3FF477AF 		beq	.L921
 3284 0138 B9F80A30 		ldrh	r3, [r9, #10]
 3285 013c C4F81880 		str	r8, [r4, #24]
 3286 0140 B8EB432F 		cmp	r8, r3, lsl #9
 3287 0144 4FEA4327 		lsl	r7, r3, #9
 3288 0148 04D8     		bhi	.L899
 3289 014a 82E0     		b	.L897
 3290              	.L960:
 3291 014c 411C     		adds	r1, r0, #1
ARM GAS  /var/folders/sy/x1dkwsgj58j1lmy_hry3vpdm0000gn/T//cc0MFmUD.s 			page 58


 3292 014e 78D0     		beq	.L901
 3293 0150 4745     		cmp	r7, r8
 3294 0152 76D2     		bcs	.L901
 3295              	.L899:
 3296 0154 3146     		mov	r1, r6
 3297 0156 2068     		ldr	r0, [r4]
 3298 0158 FFF7FEFF 		bl	get_fat.isra.0
 3299 015c 0128     		cmp	r0, #1
 3300 015e A8EB0708 		sub	r8, r8, r7
 3301 0162 0646     		mov	r6, r0
 3302 0164 F2D8     		bhi	.L960
 3303 0166 0225     		movs	r5, #2
 3304 0168 E061     		str	r0, [r4, #28]
 3305 016a 5AE7     		b	.L876
 3306              	.L880:
 3307 016c 03A8     		add	r0, sp, #12
 3308 016e 47F00807 		orr	r7, r7, #8
 3309 0172 FFF7FEFF 		bl	dir_register
 3310 0176 0028     		cmp	r0, #0
 3311 0178 80D1     		bne	.L955
 3312              	.L881:
 3313 017a FFF7FEFF 		bl	get_fattime
 3314 017e 0B9B     		ldr	r3, [sp, #44]
 3315 0180 C0F30742 		ubfx	r2, r0, #16, #8
 3316 0184 5FFA80FC 		uxtb	ip, r0
 3317 0188 C0F30721 		ubfx	r1, r0, #8, #8
 3318 018c 000E     		lsrs	r0, r0, #24
 3319 018e 83F80EC0 		strb	ip, [r3, #14]
 3320 0192 4FF0200E 		mov	lr, #32
 3321 0196 D973     		strb	r1, [r3, #15]
 3322 0198 1A74     		strb	r2, [r3, #16]
 3323 019a 5874     		strb	r0, [r3, #17]
 3324 019c 0B9B     		ldr	r3, [sp, #44]
 3325 019e 029E     		ldr	r6, [sp, #8]
 3326 01a0 83F816C0 		strb	ip, [r3, #22]
 3327 01a4 D975     		strb	r1, [r3, #23]
 3328 01a6 1A76     		strb	r2, [r3, #24]
 3329 01a8 5876     		strb	r0, [r3, #25]
 3330 01aa 0B9B     		ldr	r3, [sp, #44]
 3331 01ac 83F80BE0 		strb	lr, [r3, #11]
 3332 01b0 3278     		ldrb	r2, [r6]	@ zero_extendqisi2
 3333 01b2 0B9B     		ldr	r3, [sp, #44]
 3334 01b4 032A     		cmp	r2, #3
 3335 01b6 B3F81A80 		ldrh	r8, [r3, #26]	@ unaligned
 3336 01ba 02D1     		bne	.L883
 3337 01bc 9A8A     		ldrh	r2, [r3, #20]	@ unaligned
 3338 01be 48EA0248 		orr	r8, r8, r2, lsl #16
 3339              	.L883:
 3340 01c2 0022     		movs	r2, #0
 3341 01c4 9A76     		strb	r2, [r3, #26]
 3342 01c6 DA76     		strb	r2, [r3, #27]
 3343 01c8 3178     		ldrb	r1, [r6]	@ zero_extendqisi2
 3344 01ca 0329     		cmp	r1, #3
 3345 01cc 01D1     		bne	.L884
 3346 01ce 1A75     		strb	r2, [r3, #20]
 3347 01d0 5A75     		strb	r2, [r3, #21]
 3348              	.L884:
ARM GAS  /var/folders/sy/x1dkwsgj58j1lmy_hry3vpdm0000gn/T//cc0MFmUD.s 			page 59


 3349 01d2 0B9B     		ldr	r3, [sp, #44]
 3350 01d4 0022     		movs	r2, #0
 3351 01d6 1A77     		strb	r2, [r3, #28]
 3352 01d8 5A77     		strb	r2, [r3, #29]
 3353 01da 9A77     		strb	r2, [r3, #30]
 3354 01dc DA77     		strb	r2, [r3, #31]
 3355 01de 0123     		movs	r3, #1
 3356 01e0 F370     		strb	r3, [r6, #3]
 3357 01e2 B8F1000F 		cmp	r8, #0
 3358 01e6 3FF45BAF 		beq	.L886
 3359 01ea 4146     		mov	r1, r8
 3360 01ec 0398     		ldr	r0, [sp, #12]
 3361 01ee D6F83090 		ldr	r9, [r6, #48]
 3362 01f2 FFF7FEFF 		bl	remove_chain.isra.0
 3363 01f6 0028     		cmp	r0, #0
 3364 01f8 7FF440AF 		bne	.L955
 3365 01fc 029E     		ldr	r6, [sp, #8]
 3366 01fe 336B     		ldr	r3, [r6, #48]
 3367 0200 9945     		cmp	r9, r3
 3368 0202 47D0     		beq	.L961
 3369 0204 F378     		ldrb	r3, [r6, #3]	@ zero_extendqisi2
 3370 0206 002B     		cmp	r3, #0
 3371 0208 4FD1     		bne	.L887
 3372              	.L890:
 3373 020a 0123     		movs	r3, #1
 3374 020c 4A46     		mov	r2, r9
 3375 020e 06F13401 		add	r1, r6, #52
 3376 0212 7078     		ldrb	r0, [r6, #1]	@ zero_extendqisi2
 3377 0214 FFF7FEFF 		bl	disk_read
 3378 0218 0028     		cmp	r0, #0
 3379 021a 3FD0     		beq	.L962
 3380 021c 4FF0FF31 		mov	r1, #-1
 3381 0220 029B     		ldr	r3, [sp, #8]
 3382 0222 0125     		movs	r5, #1
 3383 0224 08EB0102 		add	r2, r8, r1
 3384 0228 3163     		str	r1, [r6, #48]
 3385 022a 1A61     		str	r2, [r3, #16]
 3386 022c F9E6     		b	.L876
 3387              	.L958:
 3388 022e 17F0FE0F 		tst	r7, #254
 3389 0232 14BF     		ite	ne
 3390 0234 0121     		movne	r1, #1
 3391 0236 0021     		moveq	r1, #0
 3392 0238 38E7     		b	.L894
 3393              	.L957:
 3394 023a 3007     		lsls	r0, r6, #28
 3395 023c 9DD4     		bmi	.L881
 3396 023e 029E     		ldr	r6, [sp, #8]
 3397 0240 34E7     		b	.L894
 3398              	.L901:
 3399 0242 721C     		adds	r2, r6, #1
 3400 0244 E661     		str	r6, [r4, #28]
 3401 0246 0CBF     		ite	eq
 3402 0248 0123     		moveq	r3, #1
 3403 024a 0023     		movne	r3, #0
 3404 024c 02D1     		bne	.L902
 3405              	.L920:
ARM GAS  /var/folders/sy/x1dkwsgj58j1lmy_hry3vpdm0000gn/T//cc0MFmUD.s 			page 60


 3406 024e 1D46     		mov	r5, r3
 3407 0250 E7E6     		b	.L876
 3408              	.L897:
 3409 0252 E661     		str	r6, [r4, #28]
 3410              	.L902:
 3411 0254 C8F30803 		ubfx	r3, r8, #0, #9
 3412 0258 002B     		cmp	r3, #0
 3413 025a 3FF4E4AE 		beq	.L921
 3414 025e 0298     		ldr	r0, [sp, #8]
 3415 0260 023E     		subs	r6, r6, #2
 3416 0262 8369     		ldr	r3, [r0, #24]
 3417 0264 023B     		subs	r3, r3, #2
 3418 0266 9E42     		cmp	r6, r3
 3419 0268 BFF429AF 		bcs	.L904
 3420 026c 4289     		ldrh	r2, [r0, #10]
 3421 026e C36A     		ldr	r3, [r0, #44]
 3422 0270 06FB0232 		mla	r2, r6, r2, r3
 3423 0274 002A     		cmp	r2, #0
 3424 0276 3FF422AF 		beq	.L904
 3425 027a 02EB5822 		add	r2, r2, r8, lsr #9
 3426 027e 5146     		mov	r1, r10
 3427 0280 0123     		movs	r3, #1
 3428 0282 2262     		str	r2, [r4, #32]
 3429 0284 4078     		ldrb	r0, [r0, #1]	@ zero_extendqisi2
 3430 0286 FFF7FEFF 		bl	disk_read
 3431 028a 0028     		cmp	r0, #0
 3432 028c 3FF4CBAE 		beq	.L921
 3433 0290 0125     		movs	r5, #1
 3434 0292 C6E6     		b	.L876
 3435              	.L961:
 3436 0294 08F1FF32 		add	r2, r8, #-1
 3437 0298 3261     		str	r2, [r6, #16]
 3438 029a 01E7     		b	.L886
 3439              	.L962:
 3440 029c 08F1FF32 		add	r2, r8, #-1
 3441 02a0 C6F83090 		str	r9, [r6, #48]
 3442 02a4 029E     		ldr	r6, [sp, #8]
 3443 02a6 3261     		str	r2, [r6, #16]
 3444 02a8 FAE6     		b	.L886
 3445              	.L887:
 3446 02aa 3046     		mov	r0, r6
 3447 02ac FFF7FEFF 		bl	sync_window.part.0
 3448 02b0 0028     		cmp	r0, #0
 3449 02b2 AAD0     		beq	.L890
 3450 02b4 029B     		ldr	r3, [sp, #8]
 3451 02b6 08F1FF32 		add	r2, r8, #-1
 3452 02ba 0546     		mov	r5, r0
 3453 02bc 1A61     		str	r2, [r3, #16]
 3454 02be B0E6     		b	.L876
 3455              	.L964:
 3456              		.align	2
 3457              	.L963:
 3458 02c0 00000000 		.word	.LANCHOR0
 3460              		.section	.text.f_read,"ax",%progbits
 3461              		.align	1
 3462              		.p2align 2,,3
 3463              		.global	f_read
ARM GAS  /var/folders/sy/x1dkwsgj58j1lmy_hry3vpdm0000gn/T//cc0MFmUD.s 			page 61


 3464              		.syntax unified
 3465              		.thumb
 3466              		.thumb_func
 3467              		.fpu fpv5-d16
 3469              	f_read:
 3470              		@ args = 0, pretend = 0, frame = 24
 3471              		@ frame_needed = 0, uses_anonymous_args = 0
 3472 0000 2DE9F04F 		push	{r4, r5, r6, r7, r8, r9, r10, fp, lr}
 3473 0004 1E46     		mov	r6, r3
 3474 0006 87B0     		sub	sp, sp, #28
 3475 0008 0023     		movs	r3, #0
 3476 000a 8846     		mov	r8, r1
 3477 000c 05A9     		add	r1, sp, #20
 3478 000e 0446     		mov	r4, r0
 3479 0010 3360     		str	r3, [r6]
 3480 0012 1746     		mov	r7, r2
 3481 0014 FFF7FEFF 		bl	validate
 3482 0018 0546     		mov	r5, r0
 3483 001a 0028     		cmp	r0, #0
 3484 001c 61D1     		bne	.L966
 3485 001e 657D     		ldrb	r5, [r4, #21]	@ zero_extendqisi2
 3486 0020 002D     		cmp	r5, #0
 3487 0022 5ED1     		bne	.L966
 3488 0024 94F814A0 		ldrb	r10, [r4, #20]	@ zero_extendqisi2
 3489 0028 1AF0010A 		ands	r10, r10, #1
 3490 002c 00F0A180 		beq	.L992
 3491 0030 A069     		ldr	r0, [r4, #24]
 3492 0032 E368     		ldr	r3, [r4, #12]
 3493 0034 1B1A     		subs	r3, r3, r0
 3494 0036 9F42     		cmp	r7, r3
 3495 0038 28BF     		it	cs
 3496 003a 1F46     		movcs	r7, r3
 3497 003c 002F     		cmp	r7, #0
 3498 003e 50D0     		beq	.L966
 3499 0040 04F50C73 		add	r3, r4, #560
 3500 0044 04F1300B 		add	fp, r4, #48
 3501 0048 CDE90135 		strd	r3, r5, [sp, #4]
 3502              	.L967:
 3503 004c C0F30803 		ubfx	r3, r0, #0, #9
 3504 0050 63BB     		cbnz	r3, .L969
 3505 0052 0599     		ldr	r1, [sp, #20]
 3506 0054 430A     		lsrs	r3, r0, #9
 3507 0056 4A89     		ldrh	r2, [r1, #10]
 3508 0058 013A     		subs	r2, r2, #1
 3509 005a 12EA5022 		ands	r2, r2, r0, lsr #9
 3510 005e 44D0     		beq	.L970
 3511 0060 E069     		ldr	r0, [r4, #28]
 3512 0062 8B69     		ldr	r3, [r1, #24]
 3513 0064 0238     		subs	r0, r0, #2
 3514 0066 023B     		subs	r3, r3, #2
 3515 0068 9842     		cmp	r0, r3
 3516 006a 4BD2     		bcs	.L977
 3517              	.L1010:
 3518 006c B1F80AC0 		ldrh	ip, [r1, #10]
 3519 0070 CB6A     		ldr	r3, [r1, #44]
 3520 0072 0CFB0030 		mla	r0, ip, r0, r3
 3521 0076 0028     		cmp	r0, #0
ARM GAS  /var/folders/sy/x1dkwsgj58j1lmy_hry3vpdm0000gn/T//cc0MFmUD.s 			page 62


 3522 0078 44D0     		beq	.L977
 3523 007a B7F5007F 		cmp	r7, #512
 3524 007e 02EB0009 		add	r9, r2, r0
 3525 0082 46D2     		bcs	.L1008
 3526 0084 226A     		ldr	r2, [r4, #32]
 3527 0086 4A45     		cmp	r2, r9
 3528 0088 0BD0     		beq	.L987
 3529 008a 94F91430 		ldrsb	r3, [r4, #20]
 3530 008e 002B     		cmp	r3, #0
 3531 0090 71DB     		blt	.L1009
 3532              	.L989:
 3533 0092 4878     		ldrb	r0, [r1, #1]	@ zero_extendqisi2
 3534 0094 0123     		movs	r3, #1
 3535 0096 4A46     		mov	r2, r9
 3536 0098 5946     		mov	r1, fp
 3537 009a FFF7FEFF 		bl	disk_read
 3538 009e 0028     		cmp	r0, #0
 3539 00a0 60D1     		bne	.L982
 3540              	.L987:
 3541 00a2 A369     		ldr	r3, [r4, #24]
 3542 00a4 C4F82090 		str	r9, [r4, #32]
 3543 00a8 C3F30803 		ubfx	r3, r3, #0, #9
 3544              	.L969:
 3545 00ac C3F5007C 		rsb	ip, r3, #512
 3546 00b0 5B44     		add	r3, r3, fp
 3547 00b2 08F1FF32 		add	r2, r8, #-1
 3548 00b6 BC45     		cmp	ip, r7
 3549 00b8 28BF     		it	cs
 3550 00ba BC46     		movcs	ip, r7
 3551 00bc 03EB0C00 		add	r0, r3, ip
 3552              	.L990:
 3553 00c0 13F8011B 		ldrb	r1, [r3], #1	@ zero_extendqisi2
 3554 00c4 8342     		cmp	r3, r0
 3555 00c6 02F8011F 		strb	r1, [r2, #1]!
 3556 00ca F9D1     		bne	.L990
 3557              	.L984:
 3558 00cc A069     		ldr	r0, [r4, #24]
 3559 00ce B7EB0C07 		subs	r7, r7, ip
 3560 00d2 3368     		ldr	r3, [r6]
 3561 00d4 E044     		add	r8, r8, ip
 3562 00d6 6044     		add	r0, r0, ip
 3563 00d8 6344     		add	r3, r3, ip
 3564 00da A061     		str	r0, [r4, #24]
 3565 00dc 3360     		str	r3, [r6]
 3566 00de B5D1     		bne	.L967
 3567 00e0 029D     		ldr	r5, [sp, #8]
 3568              	.L966:
 3569 00e2 2846     		mov	r0, r5
 3570 00e4 07B0     		add	sp, sp, #28
 3571              		@ sp needed
 3572 00e6 BDE8F08F 		pop	{r4, r5, r6, r7, r8, r9, r10, fp, pc}
 3573              	.L970:
 3574 00ea 38BB     		cbnz	r0, .L972
 3575 00ec A068     		ldr	r0, [r4, #8]
 3576              	.L973:
 3577 00ee 0128     		cmp	r0, #1
 3578 00f0 08D9     		bls	.L977
ARM GAS  /var/folders/sy/x1dkwsgj58j1lmy_hry3vpdm0000gn/T//cc0MFmUD.s 			page 63


 3579 00f2 431C     		adds	r3, r0, #1
 3580 00f4 36D0     		beq	.L982
 3581 00f6 0599     		ldr	r1, [sp, #20]
 3582 00f8 E061     		str	r0, [r4, #28]
 3583 00fa 0238     		subs	r0, r0, #2
 3584 00fc 8B69     		ldr	r3, [r1, #24]
 3585 00fe 023B     		subs	r3, r3, #2
 3586 0100 9842     		cmp	r0, r3
 3587 0102 B3D3     		bcc	.L1010
 3588              	.L977:
 3589 0104 0223     		movs	r3, #2
 3590 0106 1D46     		mov	r5, r3
 3591 0108 6375     		strb	r3, [r4, #21]
 3592 010a 2846     		mov	r0, r5
 3593 010c 07B0     		add	sp, sp, #28
 3594              		@ sp needed
 3595 010e BDE8F08F 		pop	{r4, r5, r6, r7, r8, r9, r10, fp, pc}
 3596              	.L1008:
 3597 0112 02EB5720 		add	r0, r2, r7, lsr #9
 3598 0116 7D0A     		lsrs	r5, r7, #9
 3599 0118 6045     		cmp	r0, ip
 3600 011a 4878     		ldrb	r0, [r1, #1]	@ zero_extendqisi2
 3601 011c 4146     		mov	r1, r8
 3602 011e 88BF     		it	hi
 3603 0120 ACEB0205 		subhi	r5, ip, r2
 3604 0124 4A46     		mov	r2, r9
 3605 0126 2B46     		mov	r3, r5
 3606 0128 FFF7FEFF 		bl	disk_read
 3607 012c D0B9     		cbnz	r0, .L982
 3608 012e 94F91420 		ldrsb	r2, [r4, #20]
 3609 0132 002A     		cmp	r2, #0
 3610 0134 33DB     		blt	.L983
 3611              	.L985:
 3612 0136 4FEA452C 		lsl	ip, r5, #9
 3613 013a C7E7     		b	.L984
 3614              	.L972:
 3615 013c E06A     		ldr	r0, [r4, #44]
 3616 013e 38B3     		cbz	r0, .L974
 3617 0140 2168     		ldr	r1, [r4]
 3618 0142 0430     		adds	r0, r0, #4
 3619 0144 4989     		ldrh	r1, [r1, #10]
 3620 0146 B3FBF1F3 		udiv	r3, r3, r1
 3621 014a 0168     		ldr	r1, [r0]
 3622 014c 29B9     		cbnz	r1, .L978
 3623 014e D9E7     		b	.L977
 3624              	.L1011:
 3625 0150 5B1A     		subs	r3, r3, r1
 3626 0152 50F8081F 		ldr	r1, [r0, #8]!
 3627 0156 0029     		cmp	r1, #0
 3628 0158 D4D0     		beq	.L977
 3629              	.L978:
 3630 015a 8B42     		cmp	r3, r1
 3631 015c F8D2     		bcs	.L1011
 3632 015e 4068     		ldr	r0, [r0, #4]
 3633 0160 1844     		add	r0, r0, r3
 3634 0162 C4E7     		b	.L973
 3635              	.L982:
ARM GAS  /var/folders/sy/x1dkwsgj58j1lmy_hry3vpdm0000gn/T//cc0MFmUD.s 			page 64


 3636 0164 5546     		mov	r5, r10
 3637 0166 0123     		movs	r3, #1
 3638 0168 2846     		mov	r0, r5
 3639 016a 6375     		strb	r3, [r4, #21]
 3640 016c 07B0     		add	sp, sp, #28
 3641              		@ sp needed
 3642 016e BDE8F08F 		pop	{r4, r5, r6, r7, r8, r9, r10, fp, pc}
 3643              	.L992:
 3644 0172 0725     		movs	r5, #7
 3645 0174 B5E7     		b	.L966
 3646              	.L1009:
 3647 0176 4878     		ldrb	r0, [r1, #1]	@ zero_extendqisi2
 3648 0178 0123     		movs	r3, #1
 3649 017a 5946     		mov	r1, fp
 3650 017c FFF7FEFF 		bl	disk_write
 3651 0180 0028     		cmp	r0, #0
 3652 0182 EFD1     		bne	.L982
 3653 0184 237D     		ldrb	r3, [r4, #20]	@ zero_extendqisi2
 3654 0186 0599     		ldr	r1, [sp, #20]
 3655 0188 03F07F03 		and	r3, r3, #127
 3656 018c 2375     		strb	r3, [r4, #20]
 3657 018e 80E7     		b	.L989
 3658              	.L974:
 3659 0190 E169     		ldr	r1, [r4, #28]
 3660 0192 2068     		ldr	r0, [r4]
 3661 0194 0392     		str	r2, [sp, #12]
 3662 0196 FFF7FEFF 		bl	get_fat.isra.0
 3663 019a 039A     		ldr	r2, [sp, #12]
 3664 019c A7E7     		b	.L973
 3665              	.L983:
 3666 019e 226A     		ldr	r2, [r4, #32]
 3667 01a0 A2EB0909 		sub	r9, r2, r9
 3668 01a4 A945     		cmp	r9, r5
 3669 01a6 C6D2     		bcs	.L985
 3670 01a8 08EB4929 		add	r9, r8, r9, lsl #9
 3671 01ac 04F13001 		add	r1, r4, #48
 3672 01b0 0198     		ldr	r0, [sp, #4]
 3673 01b2 09F1FF32 		add	r2, r9, #-1
 3674              	.L986:
 3675 01b6 11F8013B 		ldrb	r3, [r1], #1	@ zero_extendqisi2
 3676 01ba 8142     		cmp	r1, r0
 3677 01bc 02F8013F 		strb	r3, [r2, #1]!
 3678 01c0 F9D1     		bne	.L986
 3679 01c2 B8E7     		b	.L985
 3681              		.section	.text.f_write,"ax",%progbits
 3682              		.align	1
 3683              		.p2align 2,,3
 3684              		.global	f_write
 3685              		.syntax unified
 3686              		.thumb
 3687              		.thumb_func
 3688              		.fpu fpv5-d16
 3690              	f_write:
 3691              		@ args = 0, pretend = 0, frame = 16
 3692              		@ frame_needed = 0, uses_anonymous_args = 0
 3693 0000 2DE9F04F 		push	{r4, r5, r6, r7, r8, r9, r10, fp, lr}
 3694 0004 9946     		mov	r9, r3
ARM GAS  /var/folders/sy/x1dkwsgj58j1lmy_hry3vpdm0000gn/T//cc0MFmUD.s 			page 65


 3695 0006 85B0     		sub	sp, sp, #20
 3696 0008 0023     		movs	r3, #0
 3697 000a 0E46     		mov	r6, r1
 3698 000c 03A9     		add	r1, sp, #12
 3699 000e 0546     		mov	r5, r0
 3700 0010 C9F80030 		str	r3, [r9]
 3701 0014 1746     		mov	r7, r2
 3702 0016 FFF7FEFF 		bl	validate
 3703 001a 8046     		mov	r8, r0
 3704 001c 0028     		cmp	r0, #0
 3705 001e 5DD1     		bne	.L1013
 3706 0020 95F81580 		ldrb	r8, [r5, #21]	@ zero_extendqisi2
 3707 0024 B8F1000F 		cmp	r8, #0
 3708 0028 58D1     		bne	.L1013
 3709 002a 2A7D     		ldrb	r2, [r5, #20]	@ zero_extendqisi2
 3710 002c 9107     		lsls	r1, r2, #30
 3711 002e 40F1B980 		bpl	.L1043
 3712 0032 AB69     		ldr	r3, [r5, #24]
 3713 0034 FB42     		cmn	r3, r7
 3714 0036 28BF     		it	cs
 3715 0038 DF43     		mvncs	r7, r3
 3716 003a 002F     		cmp	r7, #0
 3717 003c 00F08280 		beq	.L1015
 3718 0040 05F1300A 		add	r10, r5, #48
 3719              	.L1042:
 3720 0044 C3F30804 		ubfx	r4, r3, #0, #9
 3721 0048 002C     		cmp	r4, #0
 3722 004a 56D1     		bne	.L1017
 3723 004c 0399     		ldr	r1, [sp, #12]
 3724 004e 5A0A     		lsrs	r2, r3, #9
 3725 0050 4C89     		ldrh	r4, [r1, #10]
 3726 0052 013C     		subs	r4, r4, #1
 3727 0054 14EA5324 		ands	r4, r4, r3, lsr #9
 3728 0058 0FD1     		bne	.L1018
 3729 005a 002B     		cmp	r3, #0
 3730 005c 76D1     		bne	.L1019
 3731 005e A868     		ldr	r0, [r5, #8]
 3732 0060 0028     		cmp	r0, #0
 3733 0062 00F0A280 		beq	.L1059
 3734              	.L1020:
 3735 0066 0128     		cmp	r0, #1
 3736 0068 35D0     		beq	.L1032
 3737 006a 431C     		adds	r3, r0, #1
 3738 006c 00F09380 		beq	.L1031
 3739 0070 AB68     		ldr	r3, [r5, #8]
 3740 0072 E861     		str	r0, [r5, #28]
 3741 0074 03B9     		cbnz	r3, .L1057
 3742 0076 A860     		str	r0, [r5, #8]
 3743              	.L1057:
 3744 0078 0399     		ldr	r1, [sp, #12]
 3745              	.L1018:
 3746 007a 95F91430 		ldrsb	r3, [r5, #20]
 3747 007e 002B     		cmp	r3, #0
 3748 0080 7CDB     		blt	.L1060
 3749              	.L1030:
 3750 0082 EA69     		ldr	r2, [r5, #28]
 3751 0084 8B69     		ldr	r3, [r1, #24]
ARM GAS  /var/folders/sy/x1dkwsgj58j1lmy_hry3vpdm0000gn/T//cc0MFmUD.s 			page 66


 3752 0086 A2F1020B 		sub	fp, r2, #2
 3753 008a 023B     		subs	r3, r3, #2
 3754 008c 9B45     		cmp	fp, r3
 3755 008e 22D2     		bcs	.L1032
 3756 0090 4889     		ldrh	r0, [r1, #10]
 3757 0092 CA6A     		ldr	r2, [r1, #44]
 3758 0094 00FB0B22 		mla	r2, r0, fp, r2
 3759 0098 EAB1     		cbz	r2, .L1032
 3760 009a B7F5007F 		cmp	r7, #512
 3761 009e 04EB020B 		add	fp, r4, r2
 3762 00a2 1FD3     		bcc	.L1033
 3763 00a4 04EB5722 		add	r2, r4, r7, lsr #9
 3764 00a8 7B0A     		lsrs	r3, r7, #9
 3765 00aa 8242     		cmp	r2, r0
 3766 00ac 5A46     		mov	r2, fp
 3767 00ae 88BF     		it	hi
 3768 00b0 031B     		subhi	r3, r0, r4
 3769 00b2 4878     		ldrb	r0, [r1, #1]	@ zero_extendqisi2
 3770 00b4 3146     		mov	r1, r6
 3771 00b6 0193     		str	r3, [sp, #4]
 3772 00b8 FFF7FEFF 		bl	disk_write
 3773 00bc 0028     		cmp	r0, #0
 3774 00be 6AD1     		bne	.L1031
 3775 00c0 2A6A     		ldr	r2, [r5, #32]
 3776 00c2 019B     		ldr	r3, [sp, #4]
 3777 00c4 A2EB0B0B 		sub	fp, r2, fp
 3778 00c8 9B45     		cmp	fp, r3
 3779 00ca C0F08880 		bcc	.L1061
 3780              	.L1035:
 3781 00ce 06EB4326 		add	r6, r6, r3, lsl #9
 3782 00d2 5902     		lsls	r1, r3, #9
 3783 00d4 26E0     		b	.L1037
 3784              	.L1032:
 3785 00d6 0223     		movs	r3, #2
 3786 00d8 9846     		mov	r8, r3
 3787 00da 6B75     		strb	r3, [r5, #21]
 3788              	.L1013:
 3789 00dc 4046     		mov	r0, r8
 3790 00de 05B0     		add	sp, sp, #20
 3791              		@ sp needed
 3792 00e0 BDE8F08F 		pop	{r4, r5, r6, r7, r8, r9, r10, fp, pc}
 3793              	.L1033:
 3794 00e4 2B6A     		ldr	r3, [r5, #32]
 3795 00e6 AC69     		ldr	r4, [r5, #24]
 3796 00e8 5B45     		cmp	r3, fp
 3797 00ea 02D0     		beq	.L1040
 3798 00ec EB68     		ldr	r3, [r5, #12]
 3799 00ee 9C42     		cmp	r4, r3
 3800 00f0 6BD3     		bcc	.L1062
 3801              	.L1040:
 3802 00f2 C4F30804 		ubfx	r4, r4, #0, #9
 3803 00f6 C5F820B0 		str	fp, [r5, #32]
 3804              	.L1017:
 3805 00fa C4F50073 		rsb	r3, r4, #512
 3806 00fe 04F1FF3C 		add	ip, r4, #-1
 3807 0102 BB42     		cmp	r3, r7
 3808 0104 D444     		add	ip, ip, r10
ARM GAS  /var/folders/sy/x1dkwsgj58j1lmy_hry3vpdm0000gn/T//cc0MFmUD.s 			page 67


 3809 0106 28BF     		it	cs
 3810 0108 3B46     		movcs	r3, r7
 3811 010a 1946     		mov	r1, r3
 3812 010c 3346     		mov	r3, r6
 3813 010e 0E44     		add	r6, r6, r1
 3814              	.L1041:
 3815 0110 13F8012B 		ldrb	r2, [r3], #1	@ zero_extendqisi2
 3816 0114 B342     		cmp	r3, r6
 3817 0116 0CF8012F 		strb	r2, [ip, #1]!
 3818 011a F9D1     		bne	.L1041
 3819 011c 2B7D     		ldrb	r3, [r5, #20]	@ zero_extendqisi2
 3820 011e 63F07F03 		orn	r3, r3, #127
 3821 0122 2B75     		strb	r3, [r5, #20]
 3822              	.L1037:
 3823 0124 AB69     		ldr	r3, [r5, #24]
 3824 0126 EA68     		ldr	r2, [r5, #12]
 3825 0128 0B44     		add	r3, r3, r1
 3826 012a 9A42     		cmp	r2, r3
 3827 012c AB61     		str	r3, [r5, #24]
 3828 012e 38BF     		it	cc
 3829 0130 1A46     		movcc	r2, r3
 3830 0132 7F1A     		subs	r7, r7, r1
 3831 0134 EA60     		str	r2, [r5, #12]
 3832 0136 D9F80020 		ldr	r2, [r9]
 3833 013a 0A44     		add	r2, r2, r1
 3834 013c C9F80020 		str	r2, [r9]
 3835 0140 80D1     		bne	.L1042
 3836              	.L1058:
 3837 0142 2A7D     		ldrb	r2, [r5, #20]	@ zero_extendqisi2
 3838              	.L1015:
 3839 0144 42F04002 		orr	r2, r2, #64
 3840 0148 2A75     		strb	r2, [r5, #20]
 3841 014a C7E7     		b	.L1013
 3842              	.L1019:
 3843 014c E96A     		ldr	r1, [r5, #44]
 3844 014e 0029     		cmp	r1, #0
 3845 0150 33D0     		beq	.L1022
 3846 0152 2B68     		ldr	r3, [r5]
 3847 0154 0431     		adds	r1, r1, #4
 3848 0156 5B89     		ldrh	r3, [r3, #10]
 3849 0158 B2FBF3F3 		udiv	r3, r2, r3
 3850 015c 0A68     		ldr	r2, [r1]
 3851 015e 2AB9     		cbnz	r2, .L1026
 3852 0160 EFE7     		b	.L1058
 3853              	.L1063:
 3854 0162 9B1A     		subs	r3, r3, r2
 3855 0164 51F8082F 		ldr	r2, [r1, #8]!
 3856 0168 002A     		cmp	r2, #0
 3857 016a EAD0     		beq	.L1058
 3858              	.L1026:
 3859 016c 9342     		cmp	r3, r2
 3860 016e F8D2     		bcs	.L1063
 3861 0170 4868     		ldr	r0, [r1, #4]
 3862 0172 1844     		add	r0, r0, r3
 3863 0174 0028     		cmp	r0, #0
 3864 0176 7FF476AF 		bne	.L1020
 3865 017a E2E7     		b	.L1058
ARM GAS  /var/folders/sy/x1dkwsgj58j1lmy_hry3vpdm0000gn/T//cc0MFmUD.s 			page 68


 3866              	.L1060:
 3867 017c 4878     		ldrb	r0, [r1, #1]	@ zero_extendqisi2
 3868 017e 0123     		movs	r3, #1
 3869 0180 2A6A     		ldr	r2, [r5, #32]
 3870 0182 5146     		mov	r1, r10
 3871 0184 FFF7FEFF 		bl	disk_write
 3872 0188 28B9     		cbnz	r0, .L1031
 3873 018a 2B7D     		ldrb	r3, [r5, #20]	@ zero_extendqisi2
 3874 018c 0399     		ldr	r1, [sp, #12]
 3875 018e 03F07F03 		and	r3, r3, #127
 3876 0192 2B75     		strb	r3, [r5, #20]
 3877 0194 75E7     		b	.L1030
 3878              	.L1031:
 3879 0196 0123     		movs	r3, #1
 3880 0198 9846     		mov	r8, r3
 3881 019a 6B75     		strb	r3, [r5, #21]
 3882 019c 4046     		mov	r0, r8
 3883 019e 05B0     		add	sp, sp, #20
 3884              		@ sp needed
 3885 01a0 BDE8F08F 		pop	{r4, r5, r6, r7, r8, r9, r10, fp, pc}
 3886              	.L1043:
 3887 01a4 4FF00708 		mov	r8, #7
 3888 01a8 98E7     		b	.L1013
 3889              	.L1059:
 3890 01aa 2146     		mov	r1, r4
 3891 01ac 2868     		ldr	r0, [r5]
 3892 01ae FFF7FEFF 		bl	create_chain.isra.0
 3893 01b2 0028     		cmp	r0, #0
 3894 01b4 7FF457AF 		bne	.L1020
 3895 01b8 C3E7     		b	.L1058
 3896              	.L1022:
 3897 01ba E969     		ldr	r1, [r5, #28]
 3898 01bc 2868     		ldr	r0, [r5]
 3899 01be FFF7FEFF 		bl	create_chain.isra.0
 3900 01c2 0028     		cmp	r0, #0
 3901 01c4 7FF44FAF 		bne	.L1020
 3902 01c8 BBE7     		b	.L1058
 3903              	.L1062:
 3904 01ca 4878     		ldrb	r0, [r1, #1]	@ zero_extendqisi2
 3905 01cc 0123     		movs	r3, #1
 3906 01ce 5A46     		mov	r2, fp
 3907 01d0 5146     		mov	r1, r10
 3908 01d2 FFF7FEFF 		bl	disk_read
 3909 01d6 0028     		cmp	r0, #0
 3910 01d8 DDD1     		bne	.L1031
 3911 01da AC69     		ldr	r4, [r5, #24]
 3912 01dc 89E7     		b	.L1040
 3913              	.L1061:
 3914 01de 06EB4B22 		add	r2, r6, fp, lsl #9
 3915 01e2 05F12F01 		add	r1, r5, #47
 3916 01e6 02F50074 		add	r4, r2, #512
 3917              	.L1036:
 3918 01ea 12F8010B 		ldrb	r0, [r2], #1	@ zero_extendqisi2
 3919 01ee A242     		cmp	r2, r4
 3920 01f0 01F8010F 		strb	r0, [r1, #1]!
 3921 01f4 F9D1     		bne	.L1036
 3922 01f6 2A7D     		ldrb	r2, [r5, #20]	@ zero_extendqisi2
ARM GAS  /var/folders/sy/x1dkwsgj58j1lmy_hry3vpdm0000gn/T//cc0MFmUD.s 			page 69


 3923 01f8 02F07F02 		and	r2, r2, #127
 3924 01fc 2A75     		strb	r2, [r5, #20]
 3925 01fe 66E7     		b	.L1035
 3927              		.section	.text.putc_bfd,"ax",%progbits
 3928              		.align	1
 3929              		.p2align 2,,3
 3930              		.syntax unified
 3931              		.thumb
 3932              		.thumb_func
 3933              		.fpu fpv5-d16
 3935              	putc_bfd:
 3936              		@ args = 0, pretend = 0, frame = 8
 3937              		@ frame_needed = 0, uses_anonymous_args = 0
 3938 0000 0A29     		cmp	r1, #10
 3939 0002 70B5     		push	{r4, r5, r6, lr}
 3940 0004 0E46     		mov	r6, r1
 3941 0006 82B0     		sub	sp, sp, #8
 3942 0008 0446     		mov	r4, r0
 3943 000a 1AD0     		beq	.L1070
 3944              	.L1065:
 3945 000c 6568     		ldr	r5, [r4, #4]
 3946 000e 002D     		cmp	r5, #0
 3947 0010 08DB     		blt	.L1064
 3948 0012 6319     		adds	r3, r4, r5
 3949 0014 0135     		adds	r5, r5, #1
 3950 0016 3C2D     		cmp	r5, #60
 3951 0018 1E73     		strb	r6, [r3, #12]
 3952 001a 05DC     		bgt	.L1071
 3953              	.L1068:
 3954 001c A368     		ldr	r3, [r4, #8]
 3955 001e 6560     		str	r5, [r4, #4]
 3956 0020 0133     		adds	r3, r3, #1
 3957 0022 A360     		str	r3, [r4, #8]
 3958              	.L1064:
 3959 0024 02B0     		add	sp, sp, #8
 3960              		@ sp needed
 3961 0026 70BD     		pop	{r4, r5, r6, pc}
 3962              	.L1071:
 3963 0028 2146     		mov	r1, r4
 3964 002a 01AB     		add	r3, sp, #4
 3965 002c 2A46     		mov	r2, r5
 3966 002e 51F80C0B 		ldr	r0, [r1], #12
 3967 0032 FFF7FEFF 		bl	f_write
 3968 0036 019B     		ldr	r3, [sp, #4]
 3969 0038 5D1B     		subs	r5, r3, r5
 3970 003a 18BF     		it	ne
 3971 003c 4FF0FF35 		movne	r5, #-1
 3972 0040 ECE7     		b	.L1068
 3973              	.L1070:
 3974 0042 0D21     		movs	r1, #13
 3975 0044 FFF7DCFF 		bl	putc_bfd
 3976 0048 E0E7     		b	.L1065
 3978 004a 00BF     		.section	.text.f_sync,"ax",%progbits
 3979              		.align	1
 3980              		.p2align 2,,3
 3981              		.global	f_sync
 3982              		.syntax unified
ARM GAS  /var/folders/sy/x1dkwsgj58j1lmy_hry3vpdm0000gn/T//cc0MFmUD.s 			page 70


 3983              		.thumb
 3984              		.thumb_func
 3985              		.fpu fpv5-d16
 3987              	f_sync:
 3988              		@ args = 0, pretend = 0, frame = 0
 3989              		@ frame_needed = 0, uses_anonymous_args = 0
 3990 0000 70B3     		cbz	r0, .L1100
 3991 0002 F8B5     		push	{r3, r4, r5, r6, r7, lr}
 3992 0004 0368     		ldr	r3, [r0]
 3993 0006 0446     		mov	r4, r0
 3994 0008 2BB1     		cbz	r3, .L1075
 3995 000a 1A78     		ldrb	r2, [r3]	@ zero_extendqisi2
 3996 000c 1AB1     		cbz	r2, .L1075
 3997 000e 8188     		ldrh	r1, [r0, #4]
 3998 0010 DA88     		ldrh	r2, [r3, #6]
 3999 0012 9142     		cmp	r1, r2
 4000 0014 01D0     		beq	.L1101
 4001              	.L1075:
 4002 0016 0920     		movs	r0, #9
 4003              	.L1074:
 4004 0018 F8BD     		pop	{r3, r4, r5, r6, r7, pc}
 4005              	.L1101:
 4006 001a 5878     		ldrb	r0, [r3, #1]	@ zero_extendqisi2
 4007 001c FFF7FEFF 		bl	disk_status
 4008 0020 C207     		lsls	r2, r0, #31
 4009 0022 F8D4     		bmi	.L1075
 4010 0024 237D     		ldrb	r3, [r4, #20]	@ zero_extendqisi2
 4011 0026 13F04000 		ands	r0, r3, #64
 4012 002a F5D0     		beq	.L1074
 4013 002c 1B06     		lsls	r3, r3, #24
 4014 002e 2668     		ldr	r6, [r4]
 4015 0030 47D4     		bmi	.L1102
 4016              	.L1076:
 4017 0032 FFF7FEFF 		bl	get_fattime
 4018 0036 676A     		ldr	r7, [r4, #36]
 4019 0038 336B     		ldr	r3, [r6, #48]
 4020 003a 0546     		mov	r5, r0
 4021 003c 9F42     		cmp	r7, r3
 4022 003e 12D0     		beq	.L1077
 4023 0040 F378     		ldrb	r3, [r6, #3]	@ zero_extendqisi2
 4024 0042 002B     		cmp	r3, #0
 4025 0044 4AD1     		bne	.L1078
 4026              	.L1081:
 4027 0046 0123     		movs	r3, #1
 4028 0048 3A46     		mov	r2, r7
 4029 004a 06F13401 		add	r1, r6, #52
 4030 004e 7078     		ldrb	r0, [r6, #1]	@ zero_extendqisi2
 4031 0050 FFF7FEFF 		bl	disk_read
 4032 0054 30B1     		cbz	r0, .L1103
 4033 0056 4FF0FF33 		mov	r3, #-1
 4034 005a 0120     		movs	r0, #1
 4035 005c 3363     		str	r3, [r6, #48]
 4036 005e F8BD     		pop	{r3, r4, r5, r6, r7, pc}
 4037              	.L1100:
 4038 0060 0920     		movs	r0, #9
 4039 0062 7047     		bx	lr
 4040              	.L1103:
ARM GAS  /var/folders/sy/x1dkwsgj58j1lmy_hry3vpdm0000gn/T//cc0MFmUD.s 			page 71


 4041 0064 3763     		str	r7, [r6, #48]
 4042              	.L1077:
 4043 0066 A36A     		ldr	r3, [r4, #40]
 4044 0068 DA7A     		ldrb	r2, [r3, #11]	@ zero_extendqisi2
 4045 006a 42F02002 		orr	r2, r2, #32
 4046 006e DA72     		strb	r2, [r3, #11]
 4047 0070 A268     		ldr	r2, [r4, #8]
 4048 0072 2168     		ldr	r1, [r4]
 4049 0074 C2F30720 		ubfx	r0, r2, #8, #8
 4050 0078 9A76     		strb	r2, [r3, #26]
 4051 007a D876     		strb	r0, [r3, #27]
 4052 007c 0978     		ldrb	r1, [r1]	@ zero_extendqisi2
 4053 007e 0329     		cmp	r1, #3
 4054 0080 03D1     		bne	.L1082
 4055 0082 120C     		lsrs	r2, r2, #16
 4056 0084 1A75     		strb	r2, [r3, #20]
 4057 0086 120A     		lsrs	r2, r2, #8
 4058 0088 5A75     		strb	r2, [r3, #21]
 4059              	.L1082:
 4060 008a E268     		ldr	r2, [r4, #12]
 4061 008c 3046     		mov	r0, r6
 4062 008e 9D75     		strb	r5, [r3, #22]
 4063 0090 110A     		lsrs	r1, r2, #8
 4064 0092 1A77     		strb	r2, [r3, #28]
 4065 0094 5977     		strb	r1, [r3, #29]
 4066 0096 110C     		lsrs	r1, r2, #16
 4067 0098 120E     		lsrs	r2, r2, #24
 4068 009a 9977     		strb	r1, [r3, #30]
 4069 009c DA77     		strb	r2, [r3, #31]
 4070 009e 2A0A     		lsrs	r2, r5, #8
 4071 00a0 DA75     		strb	r2, [r3, #23]
 4072 00a2 2A0C     		lsrs	r2, r5, #16
 4073 00a4 2D0E     		lsrs	r5, r5, #24
 4074 00a6 1A76     		strb	r2, [r3, #24]
 4075 00a8 0022     		movs	r2, #0
 4076 00aa 5D76     		strb	r5, [r3, #25]
 4077 00ac 9A74     		strb	r2, [r3, #18]
 4078 00ae DA74     		strb	r2, [r3, #19]
 4079 00b0 0123     		movs	r3, #1
 4080 00b2 F370     		strb	r3, [r6, #3]
 4081 00b4 FFF7FEFF 		bl	sync_fs
 4082 00b8 237D     		ldrb	r3, [r4, #20]	@ zero_extendqisi2
 4083 00ba 23F04003 		bic	r3, r3, #64
 4084 00be 2375     		strb	r3, [r4, #20]
 4085 00c0 F8BD     		pop	{r3, r4, r5, r6, r7, pc}
 4086              	.L1102:
 4087 00c2 0123     		movs	r3, #1
 4088 00c4 226A     		ldr	r2, [r4, #32]
 4089 00c6 04F13001 		add	r1, r4, #48
 4090 00ca 7078     		ldrb	r0, [r6, #1]	@ zero_extendqisi2
 4091 00cc FFF7FEFF 		bl	disk_write
 4092 00d0 50B9     		cbnz	r0, .L1083
 4093 00d2 237D     		ldrb	r3, [r4, #20]	@ zero_extendqisi2
 4094 00d4 03F07F03 		and	r3, r3, #127
 4095 00d8 2375     		strb	r3, [r4, #20]
 4096 00da AAE7     		b	.L1076
 4097              	.L1078:
ARM GAS  /var/folders/sy/x1dkwsgj58j1lmy_hry3vpdm0000gn/T//cc0MFmUD.s 			page 72


 4098 00dc 3046     		mov	r0, r6
 4099 00de FFF7FEFF 		bl	sync_window.part.0
 4100 00e2 0028     		cmp	r0, #0
 4101 00e4 AFD0     		beq	.L1081
 4102 00e6 F8BD     		pop	{r3, r4, r5, r6, r7, pc}
 4103              	.L1083:
 4104 00e8 0120     		movs	r0, #1
 4105 00ea F8BD     		pop	{r3, r4, r5, r6, r7, pc}
 4107              		.section	.text.f_close,"ax",%progbits
 4108              		.align	1
 4109              		.p2align 2,,3
 4110              		.global	f_close
 4111              		.syntax unified
 4112              		.thumb
 4113              		.thumb_func
 4114              		.fpu fpv5-d16
 4116              	f_close:
 4117              		@ args = 0, pretend = 0, frame = 8
 4118              		@ frame_needed = 0, uses_anonymous_args = 0
 4119 0000 10B5     		push	{r4, lr}
 4120 0002 82B0     		sub	sp, sp, #8
 4121 0004 0446     		mov	r4, r0
 4122 0006 FFF7FEFF 		bl	f_sync
 4123 000a 08B1     		cbz	r0, .L1116
 4124              	.L1105:
 4125 000c 02B0     		add	sp, sp, #8
 4126              		@ sp needed
 4127 000e 10BD     		pop	{r4, pc}
 4128              	.L1116:
 4129 0010 01A9     		add	r1, sp, #4
 4130 0012 2046     		mov	r0, r4
 4131 0014 FFF7FEFF 		bl	validate
 4132 0018 0028     		cmp	r0, #0
 4133 001a F7D1     		bne	.L1105
 4134 001c 2369     		ldr	r3, [r4, #16]
 4135 001e 013B     		subs	r3, r3, #1
 4136 0020 012B     		cmp	r3, #1
 4137 0022 15D8     		bhi	.L1111
 4138 0024 0B49     		ldr	r1, .L1118
 4139 0026 4FEA031C 		lsl	ip, r3, #4
 4140 002a 01EB0313 		add	r3, r1, r3, lsl #4
 4141 002e 9A89     		ldrh	r2, [r3, #12]
 4142 0030 B2F5807F 		cmp	r2, #256
 4143 0034 07D0     		beq	.L1117
 4144 0036 3AB1     		cbz	r2, .L1107
 4145 0038 013A     		subs	r2, r2, #1
 4146 003a 92B2     		uxth	r2, r2
 4147 003c 9A81     		strh	r2, [r3, #12]	@ movhi
 4148 003e 1AB1     		cbz	r2, .L1107
 4149              	.L1110:
 4150 0040 0023     		movs	r3, #0
 4151 0042 2360     		str	r3, [r4]
 4152 0044 E2E7     		b	.L1105
 4153              	.L1117:
 4154 0046 9881     		strh	r0, [r3, #12]	@ movhi
 4155              	.L1107:
 4156 0048 0023     		movs	r3, #0
ARM GAS  /var/folders/sy/x1dkwsgj58j1lmy_hry3vpdm0000gn/T//cc0MFmUD.s 			page 73


 4157 004a 41F80C30 		str	r3, [r1, ip]
 4158 004e F7E7     		b	.L1110
 4159              	.L1111:
 4160 0050 0220     		movs	r0, #2
 4161 0052 DBE7     		b	.L1105
 4162              	.L1119:
 4163              		.align	2
 4164              	.L1118:
 4165 0054 00000000 		.word	.LANCHOR0
 4167              		.section	.text.f_lseek,"ax",%progbits
 4168              		.align	1
 4169              		.p2align 2,,3
 4170              		.global	f_lseek
 4171              		.syntax unified
 4172              		.thumb
 4173              		.thumb_func
 4174              		.fpu fpv5-d16
 4176              	f_lseek:
 4177              		@ args = 0, pretend = 0, frame = 16
 4178              		@ frame_needed = 0, uses_anonymous_args = 0
 4179 0000 2DE9F04F 		push	{r4, r5, r6, r7, r8, r9, r10, fp, lr}
 4180 0004 85B0     		sub	sp, sp, #20
 4181 0006 0D46     		mov	r5, r1
 4182 0008 0446     		mov	r4, r0
 4183 000a 03A9     		add	r1, sp, #12
 4184 000c FFF7FEFF 		bl	validate
 4185 0010 0646     		mov	r6, r0
 4186 0012 60B9     		cbnz	r0, .L1121
 4187 0014 667D     		ldrb	r6, [r4, #21]	@ zero_extendqisi2
 4188 0016 56B9     		cbnz	r6, .L1121
 4189 0018 E36A     		ldr	r3, [r4, #44]
 4190 001a 63B1     		cbz	r3, .L1122
 4191 001c 6F1C     		adds	r7, r5, #1
 4192 001e 6DD0     		beq	.L1194
 4193 0020 E268     		ldr	r2, [r4, #12]
 4194 0022 9542     		cmp	r5, r2
 4195 0024 28BF     		it	cs
 4196 0026 1546     		movcs	r5, r2
 4197 0028 A561     		str	r5, [r4, #24]
 4198 002a 002D     		cmp	r5, #0
 4199 002c 4BD1     		bne	.L1195
 4200              	.L1121:
 4201 002e 3046     		mov	r0, r6
 4202 0030 05B0     		add	sp, sp, #20
 4203              		@ sp needed
 4204 0032 BDE8F08F 		pop	{r4, r5, r6, r7, r8, r9, r10, fp, pc}
 4205              	.L1122:
 4206 0036 E368     		ldr	r3, [r4, #12]
 4207 0038 AB42     		cmp	r3, r5
 4208 003a 04D2     		bcs	.L1141
 4209 003c 227D     		ldrb	r2, [r4, #20]	@ zero_extendqisi2
 4210 003e 12F0020F 		tst	r2, #2
 4211 0042 08BF     		it	eq
 4212 0044 1D46     		moveq	r5, r3
 4213              	.L1141:
 4214 0046 0022     		movs	r2, #0
 4215 0048 A369     		ldr	r3, [r4, #24]
ARM GAS  /var/folders/sy/x1dkwsgj58j1lmy_hry3vpdm0000gn/T//cc0MFmUD.s 			page 74


 4216 004a A261     		str	r2, [r4, #24]
 4217 004c 002D     		cmp	r5, #0
 4218 004e EED0     		beq	.L1121
 4219 0050 039A     		ldr	r2, [sp, #12]
 4220 0052 B2F80A80 		ldrh	r8, [r2, #10]
 4221 0056 4FEA4828 		lsl	r8, r8, #9
 4222 005a 002B     		cmp	r3, #0
 4223 005c 48D0     		beq	.L1142
 4224 005e 013B     		subs	r3, r3, #1
 4225 0060 6A1E     		subs	r2, r5, #1
 4226 0062 B3FBF8F1 		udiv	r1, r3, r8
 4227 0066 B2FBF8F2 		udiv	r2, r2, r8
 4228 006a 8A42     		cmp	r2, r1
 4229 006c 40D3     		bcc	.L1142
 4230 006e C8F10002 		rsb	r2, r8, #0
 4231 0072 E769     		ldr	r7, [r4, #28]
 4232 0074 1340     		ands	r3, r3, r2
 4233 0076 ED1A     		subs	r5, r5, r3
 4234 0078 A361     		str	r3, [r4, #24]
 4235              	.L1143:
 4236 007a 002F     		cmp	r7, #0
 4237 007c 00F0B580 		beq	.L1145
 4238 0080 4545     		cmp	r5, r8
 4239 0082 13D8     		bhi	.L1150
 4240 0084 E5E0     		b	.L1146
 4241              	.L1197:
 4242 0086 FFF7FEFF 		bl	create_chain.isra.0
 4243 008a 0746     		mov	r7, r0
 4244 008c 0028     		cmp	r0, #0
 4245 008e 00F0AB80 		beq	.L1196
 4246              	.L1148:
 4247 0092 7B1C     		adds	r3, r7, #1
 4248 0094 6ED0     		beq	.L1140
 4249 0096 012F     		cmp	r7, #1
 4250 0098 65D9     		bls	.L1135
 4251 009a 039B     		ldr	r3, [sp, #12]
 4252 009c 9B69     		ldr	r3, [r3, #24]
 4253 009e BB42     		cmp	r3, r7
 4254 00a0 61D9     		bls	.L1135
 4255 00a2 A845     		cmp	r8, r5
 4256 00a4 A369     		ldr	r3, [r4, #24]
 4257 00a6 E761     		str	r7, [r4, #28]
 4258 00a8 80F0D380 		bcs	.L1146
 4259              	.L1150:
 4260 00ac 227D     		ldrb	r2, [r4, #20]	@ zero_extendqisi2
 4261 00ae 4344     		add	r3, r3, r8
 4262 00b0 3946     		mov	r1, r7
 4263 00b2 A5EB0805 		sub	r5, r5, r8
 4264 00b6 9207     		lsls	r2, r2, #30
 4265 00b8 2068     		ldr	r0, [r4]
 4266 00ba A361     		str	r3, [r4, #24]
 4267 00bc E3D4     		bmi	.L1197
 4268 00be FFF7FEFF 		bl	get_fat.isra.0
 4269 00c2 0746     		mov	r7, r0
 4270 00c4 E5E7     		b	.L1148
 4271              	.L1195:
 4272 00c6 681E     		subs	r0, r5, #1
ARM GAS  /var/folders/sy/x1dkwsgj58j1lmy_hry3vpdm0000gn/T//cc0MFmUD.s 			page 75


 4273 00c8 2268     		ldr	r2, [r4]
 4274 00ca 191D     		adds	r1, r3, #4
 4275 00cc 5B68     		ldr	r3, [r3, #4]
 4276 00ce 400A     		lsrs	r0, r0, #9
 4277 00d0 5289     		ldrh	r2, [r2, #10]
 4278 00d2 B0FBF2F2 		udiv	r2, r0, r2
 4279 00d6 2BB9     		cbnz	r3, .L1133
 4280 00d8 50E0     		b	.L1159
 4281              	.L1198:
 4282 00da D21A     		subs	r2, r2, r3
 4283 00dc 51F8083F 		ldr	r3, [r1, #8]!
 4284 00e0 002B     		cmp	r3, #0
 4285 00e2 4BD0     		beq	.L1159
 4286              	.L1133:
 4287 00e4 9342     		cmp	r3, r2
 4288 00e6 F8D9     		bls	.L1198
 4289 00e8 4B68     		ldr	r3, [r1, #4]
 4290 00ea 1344     		add	r3, r3, r2
 4291 00ec 9A1E     		subs	r2, r3, #2
 4292 00ee 47E0     		b	.L1131
 4293              	.L1142:
 4294 00f0 A768     		ldr	r7, [r4, #8]
 4295 00f2 002F     		cmp	r7, #0
 4296 00f4 6CD0     		beq	.L1199
 4297 00f6 0023     		movs	r3, #0
 4298              	.L1144:
 4299 00f8 E761     		str	r7, [r4, #28]
 4300 00fa BEE7     		b	.L1143
 4301              	.L1194:
 4302 00fc 1F46     		mov	r7, r3
 4303 00fe D4F80880 		ldr	r8, [r4, #8]
 4304 0102 4FF00209 		mov	r9, #2
 4305 0106 57F804AB 		ldr	r10, [r7], #4
 4306 010a B8F1000F 		cmp	r8, #0
 4307 010e 17D1     		bne	.L1129
 4308              	.L1124:
 4309 0110 D145     		cmp	r9, r10
 4310 0112 C3F80090 		str	r9, [r3]
 4311 0116 00F28A80 		bhi	.L1157
 4312 011a 0023     		movs	r3, #0
 4313 011c 3B60     		str	r3, [r7]
 4314 011e 86E7     		b	.L1121
 4315              	.L1201:
 4316 0120 09F10209 		add	r9, r9, #2
 4317 0124 CA45     		cmp	r10, r9
 4318 0126 05D3     		bcc	.L1128
 4319 0128 3B46     		mov	r3, r7
 4320 012a 43F808BB 		str	fp, [r3], #8
 4321 012e C7F80480 		str	r8, [r7, #4]
 4322 0132 1F46     		mov	r7, r3
 4323              	.L1128:
 4324 0134 039B     		ldr	r3, [sp, #12]
 4325 0136 9B69     		ldr	r3, [r3, #24]
 4326 0138 8B42     		cmp	r3, r1
 4327 013a 40F2B180 		bls	.L1200
 4328 013e 8846     		mov	r8, r1
 4329              	.L1129:
ARM GAS  /var/folders/sy/x1dkwsgj58j1lmy_hry3vpdm0000gn/T//cc0MFmUD.s 			page 76


 4330 0140 4146     		mov	r1, r8
 4331 0142 4FF0000B 		mov	fp, #0
 4332 0146 03E0     		b	.L1127
 4333              	.L1125:
 4334 0148 481C     		adds	r0, r1, #1
 4335 014a 13D0     		beq	.L1140
 4336 014c 8D42     		cmp	r5, r1
 4337 014e E7D1     		bne	.L1201
 4338              	.L1127:
 4339 0150 2068     		ldr	r0, [r4]
 4340 0152 0D46     		mov	r5, r1
 4341 0154 FFF7FEFF 		bl	get_fat.isra.0
 4342 0158 0128     		cmp	r0, #1
 4343 015a 0BF1010B 		add	fp, fp, #1
 4344 015e 05F10105 		add	r5, r5, #1
 4345 0162 0146     		mov	r1, r0
 4346 0164 F0D8     		bhi	.L1125
 4347              	.L1135:
 4348 0166 0223     		movs	r3, #2
 4349 0168 1E46     		mov	r6, r3
 4350 016a 6375     		strb	r3, [r4, #21]
 4351 016c 3046     		mov	r0, r6
 4352 016e 05B0     		add	sp, sp, #20
 4353              		@ sp needed
 4354 0170 BDE8F08F 		pop	{r4, r5, r6, r7, r8, r9, r10, fp, pc}
 4355              	.L1140:
 4356 0174 0123     		movs	r3, #1
 4357 0176 1E46     		mov	r6, r3
 4358 0178 6375     		strb	r3, [r4, #21]
 4359 017a 58E7     		b	.L1121
 4360              	.L1159:
 4361 017c 6FF00102 		mvn	r2, #1
 4362              	.L1131:
 4363 0180 039F     		ldr	r7, [sp, #12]
 4364 0182 E361     		str	r3, [r4, #28]
 4365 0184 BB69     		ldr	r3, [r7, #24]
 4366 0186 023B     		subs	r3, r3, #2
 4367 0188 9342     		cmp	r3, r2
 4368 018a ECD9     		bls	.L1135
 4369 018c 7989     		ldrh	r1, [r7, #10]
 4370 018e FB6A     		ldr	r3, [r7, #44]
 4371 0190 02FB0133 		mla	r3, r2, r1, r3
 4372 0194 002B     		cmp	r3, #0
 4373 0196 E6D0     		beq	.L1135
 4374 0198 C5F30805 		ubfx	r5, r5, #0, #9
 4375 019c 002D     		cmp	r5, #0
 4376 019e 3FF446AF 		beq	.L1121
 4377 01a2 0139     		subs	r1, r1, #1
 4378 01a4 226A     		ldr	r2, [r4, #32]
 4379 01a6 0840     		ands	r0, r0, r1
 4380 01a8 C518     		adds	r5, r0, r3
 4381 01aa AA42     		cmp	r2, r5
 4382 01ac 3FF43FAF 		beq	.L1121
 4383 01b0 94F91430 		ldrsb	r3, [r4, #20]
 4384 01b4 04F13001 		add	r1, r4, #48
 4385 01b8 002B     		cmp	r3, #0
 4386 01ba 60DB     		blt	.L1138
ARM GAS  /var/folders/sy/x1dkwsgj58j1lmy_hry3vpdm0000gn/T//cc0MFmUD.s 			page 77


 4387              	.L1139:
 4388 01bc 0123     		movs	r3, #1
 4389 01be 7878     		ldrb	r0, [r7, #1]	@ zero_extendqisi2
 4390 01c0 2A46     		mov	r2, r5
 4391 01c2 FFF7FEFF 		bl	disk_read
 4392 01c6 0646     		mov	r6, r0
 4393 01c8 0028     		cmp	r0, #0
 4394 01ca D3D1     		bne	.L1140
 4395 01cc 2562     		str	r5, [r4, #32]
 4396 01ce 2EE7     		b	.L1121
 4397              	.L1199:
 4398 01d0 3946     		mov	r1, r7
 4399 01d2 2068     		ldr	r0, [r4]
 4400 01d4 FFF7FEFF 		bl	create_chain.isra.0
 4401 01d8 0128     		cmp	r0, #1
 4402 01da 0746     		mov	r7, r0
 4403 01dc C3D0     		beq	.L1135
 4404 01de 411C     		adds	r1, r0, #1
 4405 01e0 C8D0     		beq	.L1140
 4406 01e2 A369     		ldr	r3, [r4, #24]
 4407 01e4 A060     		str	r0, [r4, #8]
 4408 01e6 87E7     		b	.L1144
 4409              	.L1196:
 4410 01e8 A369     		ldr	r3, [r4, #24]
 4411              	.L1145:
 4412 01ea E268     		ldr	r2, [r4, #12]
 4413 01ec 9A42     		cmp	r2, r3
 4414 01ee 59D2     		bcs	.L1202
 4415 01f0 227D     		ldrb	r2, [r4, #20]	@ zero_extendqisi2
 4416 01f2 E360     		str	r3, [r4, #12]
 4417 01f4 C3F30803 		ubfx	r3, r3, #0, #9
 4418 01f8 42F04002 		orr	r2, r2, #64
 4419 01fc 2275     		strb	r2, [r4, #20]
 4420              	.L1152:
 4421 01fe 002B     		cmp	r3, #0
 4422 0200 3FF415AF 		beq	.L1121
 4423 0204 226A     		ldr	r2, [r4, #32]
 4424 0206 BA42     		cmp	r2, r7
 4425 0208 3FF411AF 		beq	.L1121
 4426 020c 94F91430 		ldrsb	r3, [r4, #20]
 4427 0210 002B     		cmp	r3, #0
 4428 0212 0EDB     		blt	.L1153
 4429 0214 04F13001 		add	r1, r4, #48
 4430              	.L1154:
 4431 0218 039A     		ldr	r2, [sp, #12]
 4432 021a 0123     		movs	r3, #1
 4433 021c 5078     		ldrb	r0, [r2, #1]	@ zero_extendqisi2
 4434 021e 3A46     		mov	r2, r7
 4435 0220 FFF7FEFF 		bl	disk_read
 4436 0224 0646     		mov	r6, r0
 4437 0226 0028     		cmp	r0, #0
 4438 0228 A4D1     		bne	.L1140
 4439 022a 2762     		str	r7, [r4, #32]
 4440 022c FFE6     		b	.L1121
 4441              	.L1157:
 4442 022e 1126     		movs	r6, #17
 4443 0230 FDE6     		b	.L1121
ARM GAS  /var/folders/sy/x1dkwsgj58j1lmy_hry3vpdm0000gn/T//cc0MFmUD.s 			page 78


 4444              	.L1153:
 4445 0232 039B     		ldr	r3, [sp, #12]
 4446 0234 04F13001 		add	r1, r4, #48
 4447 0238 5878     		ldrb	r0, [r3, #1]	@ zero_extendqisi2
 4448 023a 0123     		movs	r3, #1
 4449 023c 0191     		str	r1, [sp, #4]
 4450 023e FFF7FEFF 		bl	disk_write
 4451 0242 0028     		cmp	r0, #0
 4452 0244 96D1     		bne	.L1140
 4453 0246 237D     		ldrb	r3, [r4, #20]	@ zero_extendqisi2
 4454 0248 0199     		ldr	r1, [sp, #4]
 4455 024a 03F07F03 		and	r3, r3, #127
 4456 024e 2375     		strb	r3, [r4, #20]
 4457 0250 E2E7     		b	.L1154
 4458              	.L1146:
 4459 0252 2B44     		add	r3, r3, r5
 4460 0254 C5F30802 		ubfx	r2, r5, #0, #9
 4461 0258 A361     		str	r3, [r4, #24]
 4462 025a FAB1     		cbz	r2, .L1161
 4463 025c 0399     		ldr	r1, [sp, #12]
 4464 025e B81E     		subs	r0, r7, #2
 4465 0260 8A69     		ldr	r2, [r1, #24]
 4466 0262 023A     		subs	r2, r2, #2
 4467 0264 9042     		cmp	r0, r2
 4468 0266 BFF47EAF 		bcs	.L1135
 4469 026a 4A89     		ldrh	r2, [r1, #10]
 4470 026c CF6A     		ldr	r7, [r1, #44]
 4471 026e 00FB0277 		mla	r7, r0, r2, r7
 4472 0272 002F     		cmp	r7, #0
 4473 0274 3FF477AF 		beq	.L1135
 4474 0278 07EB5527 		add	r7, r7, r5, lsr #9
 4475 027c B5E7     		b	.L1145
 4476              	.L1138:
 4477 027e 7878     		ldrb	r0, [r7, #1]	@ zero_extendqisi2
 4478 0280 0123     		movs	r3, #1
 4479 0282 0191     		str	r1, [sp, #4]
 4480 0284 FFF7FEFF 		bl	disk_write
 4481 0288 0028     		cmp	r0, #0
 4482 028a 7FF473AF 		bne	.L1140
 4483 028e 237D     		ldrb	r3, [r4, #20]	@ zero_extendqisi2
 4484 0290 039F     		ldr	r7, [sp, #12]
 4485 0292 03F07F03 		and	r3, r3, #127
 4486 0296 0199     		ldr	r1, [sp, #4]
 4487 0298 2375     		strb	r3, [r4, #20]
 4488 029a 8FE7     		b	.L1139
 4489              	.L1161:
 4490 029c 1746     		mov	r7, r2
 4491 029e A4E7     		b	.L1145
 4492              	.L1200:
 4493 02a0 E36A     		ldr	r3, [r4, #44]
 4494 02a2 35E7     		b	.L1124
 4495              	.L1202:
 4496 02a4 C3F30803 		ubfx	r3, r3, #0, #9
 4497 02a8 A9E7     		b	.L1152
 4499 02aa 00BF     		.section	.text.f_opendir,"ax",%progbits
 4500              		.align	1
 4501              		.p2align 2,,3
ARM GAS  /var/folders/sy/x1dkwsgj58j1lmy_hry3vpdm0000gn/T//cc0MFmUD.s 			page 79


 4502              		.global	f_opendir
 4503              		.syntax unified
 4504              		.thumb
 4505              		.thumb_func
 4506              		.fpu fpv5-d16
 4508              	f_opendir:
 4509              		@ args = 0, pretend = 0, frame = 16
 4510              		@ frame_needed = 0, uses_anonymous_args = 0
 4511 0000 30B5     		push	{r4, r5, lr}
 4512 0002 85B0     		sub	sp, sp, #20
 4513 0004 0191     		str	r1, [sp, #4]
 4514 0006 0028     		cmp	r0, #0
 4515 0008 35D0     		beq	.L1212
 4516 000a 0546     		mov	r5, r0
 4517 000c 0022     		movs	r2, #0
 4518 000e 03A9     		add	r1, sp, #12
 4519 0010 01A8     		add	r0, sp, #4
 4520 0012 FFF7FEFF 		bl	find_volume
 4521 0016 0446     		mov	r4, r0
 4522 0018 20B1     		cbz	r0, .L1218
 4523              	.L1205:
 4524 001a 0023     		movs	r3, #0
 4525 001c 2B60     		str	r3, [r5]
 4526              	.L1204:
 4527 001e 2046     		mov	r0, r4
 4528 0020 05B0     		add	sp, sp, #20
 4529              		@ sp needed
 4530 0022 30BD     		pop	{r4, r5, pc}
 4531              	.L1218:
 4532 0024 039B     		ldr	r3, [sp, #12]
 4533 0026 2846     		mov	r0, r5
 4534 0028 0199     		ldr	r1, [sp, #4]
 4535 002a 2B60     		str	r3, [r5]
 4536 002c FFF7FEFF 		bl	follow_path
 4537 0030 0446     		mov	r4, r0
 4538 0032 E0B9     		cbnz	r0, .L1206
 4539 0034 95F92F30 		ldrsb	r3, [r5, #47]
 4540 0038 002B     		cmp	r3, #0
 4541 003a 20DB     		blt	.L1219
 4542 003c AB79     		ldrb	r3, [r5, #6]	@ zero_extendqisi2
 4543 003e DB06     		lsls	r3, r3, #27
 4544 0040 17D5     		bpl	.L1209
 4545 0042 039B     		ldr	r3, [sp, #12]
 4546 0044 296A     		ldr	r1, [r5, #32]
 4547 0046 1878     		ldrb	r0, [r3]	@ zero_extendqisi2
 4548 0048 4A8B     		ldrh	r2, [r1, #26]	@ unaligned
 4549 004a 0328     		cmp	r0, #3
 4550 004c 02D1     		bne	.L1210
 4551 004e 898A     		ldrh	r1, [r1, #20]	@ unaligned
 4552 0050 42EA0142 		orr	r2, r2, r1, lsl #16
 4553              	.L1210:
 4554 0054 AA60     		str	r2, [r5, #8]
 4555              	.L1208:
 4556 0056 DB88     		ldrh	r3, [r3, #6]
 4557 0058 0021     		movs	r1, #0
 4558 005a 2846     		mov	r0, r5
 4559 005c AB80     		strh	r3, [r5, #4]	@ movhi
ARM GAS  /var/folders/sy/x1dkwsgj58j1lmy_hry3vpdm0000gn/T//cc0MFmUD.s 			page 80


 4560 005e FFF7FEFF 		bl	dir_sdi
 4561 0062 0446     		mov	r4, r0
 4562 0064 18B9     		cbnz	r0, .L1206
 4563 0066 AB68     		ldr	r3, [r5, #8]
 4564 0068 5BB9     		cbnz	r3, .L1220
 4565 006a 2861     		str	r0, [r5, #16]
 4566 006c D7E7     		b	.L1204
 4567              	.L1206:
 4568 006e 042C     		cmp	r4, #4
 4569 0070 D3D1     		bne	.L1205
 4570              	.L1209:
 4571 0072 0524     		movs	r4, #5
 4572 0074 D1E7     		b	.L1205
 4573              	.L1212:
 4574 0076 0924     		movs	r4, #9
 4575 0078 2046     		mov	r0, r4
 4576 007a 05B0     		add	sp, sp, #20
 4577              		@ sp needed
 4578 007c 30BD     		pop	{r4, r5, pc}
 4579              	.L1219:
 4580 007e 039B     		ldr	r3, [sp, #12]
 4581 0080 E9E7     		b	.L1208
 4582              	.L1220:
 4583 0082 0146     		mov	r1, r0
 4584 0084 2846     		mov	r0, r5
 4585 0086 FFF7FEFF 		bl	inc_lock
 4586 008a 2861     		str	r0, [r5, #16]
 4587 008c 0028     		cmp	r0, #0
 4588 008e C6D1     		bne	.L1204
 4589 0090 1224     		movs	r4, #18
 4590 0092 C2E7     		b	.L1205
 4592              		.section	.text.f_closedir,"ax",%progbits
 4593              		.align	1
 4594              		.p2align 2,,3
 4595              		.global	f_closedir
 4596              		.syntax unified
 4597              		.thumb
 4598              		.thumb_func
 4599              		.fpu fpv5-d16
 4601              	f_closedir:
 4602              		@ args = 0, pretend = 0, frame = 0
 4603              		@ frame_needed = 0, uses_anonymous_args = 0
 4604 0000 B0B1     		cbz	r0, .L1245
 4605 0002 0368     		ldr	r3, [r0]
 4606 0004 10B5     		push	{r4, lr}
 4607 0006 0446     		mov	r4, r0
 4608 0008 2BB1     		cbz	r3, .L1224
 4609 000a 1A78     		ldrb	r2, [r3]	@ zero_extendqisi2
 4610 000c 1AB1     		cbz	r2, .L1224
 4611 000e 8188     		ldrh	r1, [r0, #4]
 4612 0010 DA88     		ldrh	r2, [r3, #6]
 4613 0012 9142     		cmp	r1, r2
 4614 0014 01D0     		beq	.L1246
 4615              	.L1224:
 4616 0016 0920     		movs	r0, #9
 4617 0018 10BD     		pop	{r4, pc}
 4618              	.L1246:
ARM GAS  /var/folders/sy/x1dkwsgj58j1lmy_hry3vpdm0000gn/T//cc0MFmUD.s 			page 81


 4619 001a 5878     		ldrb	r0, [r3, #1]	@ zero_extendqisi2
 4620 001c FFF7FEFF 		bl	disk_status
 4621 0020 10F00100 		ands	r0, r0, #1
 4622 0024 F7D1     		bne	.L1224
 4623 0026 2369     		ldr	r3, [r4, #16]
 4624 0028 23B9     		cbnz	r3, .L1247
 4625              	.L1226:
 4626 002a 0023     		movs	r3, #0
 4627 002c 2360     		str	r3, [r4]
 4628 002e 10BD     		pop	{r4, pc}
 4629              	.L1245:
 4630 0030 0920     		movs	r0, #9
 4631 0032 7047     		bx	lr
 4632              	.L1247:
 4633 0034 013B     		subs	r3, r3, #1
 4634 0036 012B     		cmp	r3, #1
 4635 0038 12D8     		bhi	.L1232
 4636 003a 0B49     		ldr	r1, .L1249
 4637 003c 4FEA031C 		lsl	ip, r3, #4
 4638 0040 01EB0313 		add	r3, r1, r3, lsl #4
 4639 0044 9A89     		ldrh	r2, [r3, #12]
 4640 0046 B2F5807F 		cmp	r2, #256
 4641 004a 0BD0     		beq	.L1248
 4642 004c 22B1     		cbz	r2, .L1228
 4643 004e 013A     		subs	r2, r2, #1
 4644 0050 92B2     		uxth	r2, r2
 4645 0052 9A81     		strh	r2, [r3, #12]	@ movhi
 4646 0054 002A     		cmp	r2, #0
 4647 0056 E8D1     		bne	.L1226
 4648              	.L1228:
 4649 0058 0023     		movs	r3, #0
 4650 005a 41F80C30 		str	r3, [r1, ip]
 4651 005e E4E7     		b	.L1226
 4652              	.L1232:
 4653 0060 0220     		movs	r0, #2
 4654 0062 10BD     		pop	{r4, pc}
 4655              	.L1248:
 4656 0064 9881     		strh	r0, [r3, #12]	@ movhi
 4657 0066 F7E7     		b	.L1228
 4658              	.L1250:
 4659              		.align	2
 4660              	.L1249:
 4661 0068 00000000 		.word	.LANCHOR0
 4663              		.section	.text.f_readdir,"ax",%progbits
 4664              		.align	1
 4665              		.p2align 2,,3
 4666              		.global	f_readdir
 4667              		.syntax unified
 4668              		.thumb
 4669              		.thumb_func
 4670              		.fpu fpv5-d16
 4672              	f_readdir:
 4673              		@ args = 0, pretend = 0, frame = 0
 4674              		@ frame_needed = 0, uses_anonymous_args = 0
 4675 0000 20B3     		cbz	r0, .L1265
 4676 0002 0368     		ldr	r3, [r0]
 4677 0004 70B5     		push	{r4, r5, r6, lr}
ARM GAS  /var/folders/sy/x1dkwsgj58j1lmy_hry3vpdm0000gn/T//cc0MFmUD.s 			page 82


 4678 0006 0446     		mov	r4, r0
 4679 0008 33B1     		cbz	r3, .L1254
 4680 000a 1A78     		ldrb	r2, [r3]	@ zero_extendqisi2
 4681 000c 22B1     		cbz	r2, .L1254
 4682 000e 0D46     		mov	r5, r1
 4683 0010 DA88     		ldrh	r2, [r3, #6]
 4684 0012 8188     		ldrh	r1, [r0, #4]
 4685 0014 9142     		cmp	r1, r2
 4686 0016 01D0     		beq	.L1266
 4687              	.L1254:
 4688 0018 0920     		movs	r0, #9
 4689              	.L1253:
 4690 001a 70BD     		pop	{r4, r5, r6, pc}
 4691              	.L1266:
 4692 001c 5878     		ldrb	r0, [r3, #1]	@ zero_extendqisi2
 4693 001e FFF7FEFF 		bl	disk_status
 4694 0022 C307     		lsls	r3, r0, #31
 4695 0024 F8D4     		bmi	.L1254
 4696 0026 9DB1     		cbz	r5, .L1267
 4697 0028 2046     		mov	r0, r4
 4698 002a FFF7FEFF 		bl	dir_read.constprop.0
 4699 002e 10F0FB06 		ands	r6, r0, #251
 4700 0032 F2D1     		bne	.L1253
 4701 0034 2946     		mov	r1, r5
 4702 0036 2046     		mov	r0, r4
 4703 0038 FFF7FEFF 		bl	get_fileinfo
 4704 003c 3146     		mov	r1, r6
 4705 003e 2046     		mov	r0, r4
 4706 0040 FFF7FEFF 		bl	dir_next
 4707 0044 0428     		cmp	r0, #4
 4708 0046 08BF     		it	eq
 4709 0048 0020     		moveq	r0, #0
 4710 004a 70BD     		pop	{r4, r5, r6, pc}
 4711              	.L1265:
 4712 004c 0920     		movs	r0, #9
 4713 004e 7047     		bx	lr
 4714              	.L1267:
 4715 0050 2946     		mov	r1, r5
 4716 0052 2046     		mov	r0, r4
 4717 0054 BDE87040 		pop	{r4, r5, r6, lr}
 4718 0058 FFF7FEBF 		b	dir_sdi
 4720              		.section	.text.f_stat,"ax",%progbits
 4721              		.align	1
 4722              		.p2align 2,,3
 4723              		.global	f_stat
 4724              		.syntax unified
 4725              		.thumb
 4726              		.thumb_func
 4727              		.fpu fpv5-d16
 4729              	f_stat:
 4730              		@ args = 0, pretend = 0, frame = 64
 4731              		@ frame_needed = 0, uses_anonymous_args = 0
 4732 0000 30B5     		push	{r4, r5, lr}
 4733 0002 91B0     		sub	sp, sp, #68
 4734 0004 0D46     		mov	r5, r1
 4735 0006 0022     		movs	r2, #0
 4736 0008 0190     		str	r0, [sp, #4]
ARM GAS  /var/folders/sy/x1dkwsgj58j1lmy_hry3vpdm0000gn/T//cc0MFmUD.s 			page 83


 4737 000a 03A9     		add	r1, sp, #12
 4738 000c 01A8     		add	r0, sp, #4
 4739 000e FFF7FEFF 		bl	find_volume
 4740 0012 0446     		mov	r4, r0
 4741 0014 10B1     		cbz	r0, .L1275
 4742              	.L1269:
 4743 0016 2046     		mov	r0, r4
 4744 0018 11B0     		add	sp, sp, #68
 4745              		@ sp needed
 4746 001a 30BD     		pop	{r4, r5, pc}
 4747              	.L1275:
 4748 001c 0199     		ldr	r1, [sp, #4]
 4749 001e 03A8     		add	r0, sp, #12
 4750 0020 FFF7FEFF 		bl	follow_path
 4751 0024 0446     		mov	r4, r0
 4752 0026 0028     		cmp	r0, #0
 4753 0028 F5D1     		bne	.L1269
 4754 002a 9DF93B30 		ldrsb	r3, [sp, #59]
 4755 002e 002B     		cmp	r3, #0
 4756 0030 06DB     		blt	.L1270
 4757 0032 002D     		cmp	r5, #0
 4758 0034 EFD0     		beq	.L1269
 4759 0036 2946     		mov	r1, r5
 4760 0038 03A8     		add	r0, sp, #12
 4761 003a FFF7FEFF 		bl	get_fileinfo
 4762 003e EAE7     		b	.L1269
 4763              	.L1270:
 4764 0040 0624     		movs	r4, #6
 4765 0042 E8E7     		b	.L1269
 4767              		.section	.text.f_getfree,"ax",%progbits
 4768              		.align	1
 4769              		.p2align 2,,3
 4770              		.global	f_getfree
 4771              		.syntax unified
 4772              		.thumb
 4773              		.thumb_func
 4774              		.fpu fpv5-d16
 4776              	f_getfree:
 4777              		@ args = 0, pretend = 0, frame = 16
 4778              		@ frame_needed = 0, uses_anonymous_args = 0
 4779 0000 2DE9F047 		push	{r4, r5, r6, r7, r8, r9, r10, lr}
 4780 0004 84B0     		sub	sp, sp, #16
 4781 0006 8846     		mov	r8, r1
 4782 0008 1746     		mov	r7, r2
 4783 000a 0022     		movs	r2, #0
 4784 000c 0190     		str	r0, [sp, #4]
 4785 000e 03A9     		add	r1, sp, #12
 4786 0010 01A8     		add	r0, sp, #4
 4787 0012 FFF7FEFF 		bl	find_volume
 4788 0016 0646     		mov	r6, r0
 4789 0018 40B9     		cbnz	r0, .L1277
 4790 001a 039C     		ldr	r4, [sp, #12]
 4791 001c D4E90535 		ldrd	r3, r5, [r4, #20]
 4792 0020 3C60     		str	r4, [r7]
 4793 0022 AA1E     		subs	r2, r5, #2
 4794 0024 9342     		cmp	r3, r2
 4795 0026 05D8     		bhi	.L1278
ARM GAS  /var/folders/sy/x1dkwsgj58j1lmy_hry3vpdm0000gn/T//cc0MFmUD.s 			page 84


 4796 0028 C8F80030 		str	r3, [r8]
 4797              	.L1277:
 4798 002c 3046     		mov	r0, r6
 4799 002e 04B0     		add	sp, sp, #16
 4800              		@ sp needed
 4801 0030 BDE8F087 		pop	{r4, r5, r6, r7, r8, r9, r10, pc}
 4802              	.L1278:
 4803 0034 2378     		ldrb	r3, [r4]	@ zero_extendqisi2
 4804 0036 012B     		cmp	r3, #1
 4805 0038 26D0     		beq	.L1303
 4806 003a D4F82490 		ldr	r9, [r4, #36]
 4807 003e 8446     		mov	ip, r0
 4808 0040 0346     		mov	r3, r0
 4809 0042 0746     		mov	r7, r0
 4810              	.L1293:
 4811 0044 002B     		cmp	r3, #0
 4812 0046 3DD1     		bne	.L1285
 4813 0048 236B     		ldr	r3, [r4, #48]
 4814 004a 09F1010A 		add	r10, r9, #1
 4815 004e 9945     		cmp	r9, r3
 4816 0050 33D0     		beq	.L1286
 4817 0052 E378     		ldrb	r3, [r4, #3]	@ zero_extendqisi2
 4818 0054 002B     		cmp	r3, #0
 4819 0056 4CD1     		bne	.L1304
 4820              	.L1287:
 4821 0058 0123     		movs	r3, #1
 4822 005a 4A46     		mov	r2, r9
 4823 005c 04F13401 		add	r1, r4, #52
 4824 0060 6078     		ldrb	r0, [r4, #1]	@ zero_extendqisi2
 4825 0062 FFF7FEFF 		bl	disk_read
 4826 0066 28B3     		cbz	r0, .L1288
 4827 0068 4FF0FF33 		mov	r3, #-1
 4828 006c 0126     		movs	r6, #1
 4829 006e 2363     		str	r3, [r4, #48]
 4830 0070 039C     		ldr	r4, [sp, #12]
 4831              	.L1282:
 4832 0072 C8F80070 		str	r7, [r8]
 4833 0076 3046     		mov	r0, r6
 4834 0078 2379     		ldrb	r3, [r4, #4]	@ zero_extendqisi2
 4835 007a 6761     		str	r7, [r4, #20]
 4836 007c 43F00103 		orr	r3, r3, #1
 4837 0080 2371     		strb	r3, [r4, #4]
 4838 0082 04B0     		add	sp, sp, #16
 4839              		@ sp needed
 4840 0084 BDE8F087 		pop	{r4, r5, r6, r7, r8, r9, r10, pc}
 4841              	.L1303:
 4842 0088 0225     		movs	r5, #2
 4843 008a 0746     		mov	r7, r0
 4844 008c 07E0     		b	.L1284
 4845              	.L1307:
 4846 008e 0128     		cmp	r0, #1
 4847 0090 37D0     		beq	.L1305
 4848 0092 00B9     		cbnz	r0, .L1283
 4849 0094 0137     		adds	r7, r7, #1
 4850              	.L1283:
 4851 0096 039B     		ldr	r3, [sp, #12]
 4852 0098 9A69     		ldr	r2, [r3, #24]
ARM GAS  /var/folders/sy/x1dkwsgj58j1lmy_hry3vpdm0000gn/T//cc0MFmUD.s 			page 85


 4853 009a AA42     		cmp	r2, r5
 4854 009c 34D9     		bls	.L1306
 4855              	.L1284:
 4856 009e 2946     		mov	r1, r5
 4857 00a0 2046     		mov	r0, r4
 4858 00a2 FFF7FEFF 		bl	get_fat.isra.0
 4859 00a6 431C     		adds	r3, r0, #1
 4860 00a8 05F10105 		add	r5, r5, #1
 4861 00ac EFD1     		bne	.L1307
 4862 00ae 039C     		ldr	r4, [sp, #12]
 4863 00b0 0126     		movs	r6, #1
 4864 00b2 DEE7     		b	.L1282
 4865              	.L1288:
 4866 00b4 C4F83090 		str	r9, [r4, #48]
 4867 00b8 039C     		ldr	r4, [sp, #12]
 4868              	.L1286:
 4869 00ba D146     		mov	r9, r10
 4870 00bc 04F1340C 		add	ip, r4, #52
 4871 00c0 4FF40073 		mov	r3, #512
 4872              	.L1285:
 4873 00c4 2278     		ldrb	r2, [r4]	@ zero_extendqisi2
 4874 00c6 022A     		cmp	r2, #2
 4875 00c8 0BD0     		beq	.L1308
 4876 00ca DCF80020 		ldr	r2, [ip]	@ unaligned
 4877 00ce 043B     		subs	r3, r3, #4
 4878 00d0 0CF1040C 		add	ip, ip, #4
 4879 00d4 32F07042 		bics	r2, r2, #-268435456
 4880 00d8 08BF     		it	eq
 4881 00da 0137     		addeq	r7, r7, #1
 4882              	.L1291:
 4883 00dc 013D     		subs	r5, r5, #1
 4884 00de B1D1     		bne	.L1293
 4885 00e0 C7E7     		b	.L1282
 4886              	.L1308:
 4887 00e2 BCF80020 		ldrh	r2, [ip]	@ unaligned
 4888 00e6 02B9     		cbnz	r2, .L1290
 4889 00e8 0137     		adds	r7, r7, #1
 4890              	.L1290:
 4891 00ea 0CF1020C 		add	ip, ip, #2
 4892 00ee 023B     		subs	r3, r3, #2
 4893 00f0 F4E7     		b	.L1291
 4894              	.L1304:
 4895 00f2 2046     		mov	r0, r4
 4896 00f4 FFF7FEFF 		bl	sync_window.part.0
 4897 00f8 0028     		cmp	r0, #0
 4898 00fa ADD0     		beq	.L1287
 4899 00fc 039C     		ldr	r4, [sp, #12]
 4900 00fe 0646     		mov	r6, r0
 4901 0100 B7E7     		b	.L1282
 4902              	.L1305:
 4903 0102 039C     		ldr	r4, [sp, #12]
 4904 0104 0226     		movs	r6, #2
 4905 0106 B4E7     		b	.L1282
 4906              	.L1306:
 4907 0108 1C46     		mov	r4, r3
 4908 010a B2E7     		b	.L1282
 4910              		.section	.text.f_truncate,"ax",%progbits
ARM GAS  /var/folders/sy/x1dkwsgj58j1lmy_hry3vpdm0000gn/T//cc0MFmUD.s 			page 86


 4911              		.align	1
 4912              		.p2align 2,,3
 4913              		.global	f_truncate
 4914              		.syntax unified
 4915              		.thumb
 4916              		.thumb_func
 4917              		.fpu fpv5-d16
 4919              	f_truncate:
 4920              		@ args = 0, pretend = 0, frame = 0
 4921              		@ frame_needed = 0, uses_anonymous_args = 0
 4922 0000 70B5     		push	{r4, r5, r6, lr}
 4923 0002 40B1     		cbz	r0, .L1312
 4924 0004 0368     		ldr	r3, [r0]
 4925 0006 0446     		mov	r4, r0
 4926 0008 2BB1     		cbz	r3, .L1312
 4927 000a 1A78     		ldrb	r2, [r3]	@ zero_extendqisi2
 4928 000c 1AB1     		cbz	r2, .L1312
 4929 000e 8188     		ldrh	r1, [r0, #4]
 4930 0010 DA88     		ldrh	r2, [r3, #6]
 4931 0012 9142     		cmp	r1, r2
 4932 0014 02D0     		beq	.L1332
 4933              	.L1312:
 4934 0016 0925     		movs	r5, #9
 4935              	.L1324:
 4936 0018 2846     		mov	r0, r5
 4937 001a 70BD     		pop	{r4, r5, r6, pc}
 4938              	.L1332:
 4939 001c 5878     		ldrb	r0, [r3, #1]	@ zero_extendqisi2
 4940 001e FFF7FEFF 		bl	disk_status
 4941 0022 C007     		lsls	r0, r0, #31
 4942 0024 F7D4     		bmi	.L1312
 4943 0026 657D     		ldrb	r5, [r4, #21]	@ zero_extendqisi2
 4944 0028 002D     		cmp	r5, #0
 4945 002a F5D1     		bne	.L1324
 4946 002c 237D     		ldrb	r3, [r4, #20]	@ zero_extendqisi2
 4947 002e 9907     		lsls	r1, r3, #30
 4948 0030 22D5     		bpl	.L1322
 4949 0032 A369     		ldr	r3, [r4, #24]
 4950 0034 E268     		ldr	r2, [r4, #12]
 4951 0036 9342     		cmp	r3, r2
 4952 0038 EED2     		bcs	.L1324
 4953 003a 2668     		ldr	r6, [r4]
 4954 003c F3B9     		cbnz	r3, .L1314
 4955 003e 2A46     		mov	r2, r5
 4956 0040 A168     		ldr	r1, [r4, #8]
 4957 0042 3046     		mov	r0, r6
 4958 0044 FFF7FEFF 		bl	remove_chain.isra.0
 4959 0048 A560     		str	r5, [r4, #8]
 4960              	.L1315:
 4961 004a A369     		ldr	r3, [r4, #24]
 4962 004c E360     		str	r3, [r4, #12]
 4963 004e 237D     		ldrb	r3, [r4, #20]	@ zero_extendqisi2
 4964 0050 43F04003 		orr	r3, r3, #64
 4965 0054 2375     		strb	r3, [r4, #20]
 4966 0056 50BB     		cbnz	r0, .L1318
 4967              	.L1320:
 4968 0058 1B06     		lsls	r3, r3, #24
ARM GAS  /var/folders/sy/x1dkwsgj58j1lmy_hry3vpdm0000gn/T//cc0MFmUD.s 			page 87


 4969 005a DDD5     		bpl	.L1324
 4970 005c 0123     		movs	r3, #1
 4971 005e 226A     		ldr	r2, [r4, #32]
 4972 0060 04F13001 		add	r1, r4, #48
 4973 0064 7078     		ldrb	r0, [r6, #1]	@ zero_extendqisi2
 4974 0066 FFF7FEFF 		bl	disk_write
 4975 006a 0546     		mov	r5, r0
 4976 006c 80BB     		cbnz	r0, .L1323
 4977 006e 237D     		ldrb	r3, [r4, #20]	@ zero_extendqisi2
 4978 0070 03F07F03 		and	r3, r3, #127
 4979 0074 2375     		strb	r3, [r4, #20]
 4980 0076 CFE7     		b	.L1324
 4981              	.L1322:
 4982 0078 0725     		movs	r5, #7
 4983 007a CDE7     		b	.L1324
 4984              	.L1314:
 4985 007c E169     		ldr	r1, [r4, #28]
 4986 007e 3046     		mov	r0, r6
 4987 0080 FFF7FEFF 		bl	get_fat.isra.0
 4988 0084 421C     		adds	r2, r0, #1
 4989 0086 15D0     		beq	.L1316
 4990 0088 0128     		cmp	r0, #1
 4991 008a 09D0     		beq	.L1333
 4992 008c B369     		ldr	r3, [r6, #24]
 4993 008e 8342     		cmp	r3, r0
 4994 0090 18D8     		bhi	.L1319
 4995 0092 237D     		ldrb	r3, [r4, #20]	@ zero_extendqisi2
 4996 0094 A269     		ldr	r2, [r4, #24]
 4997 0096 43F04003 		orr	r3, r3, #64
 4998 009a E260     		str	r2, [r4, #12]
 4999 009c 2375     		strb	r3, [r4, #20]
 5000 009e DBE7     		b	.L1320
 5001              	.L1333:
 5002 00a0 237D     		ldrb	r3, [r4, #20]	@ zero_extendqisi2
 5003 00a2 0220     		movs	r0, #2
 5004 00a4 A269     		ldr	r2, [r4, #24]
 5005 00a6 43F04003 		orr	r3, r3, #64
 5006 00aa E260     		str	r2, [r4, #12]
 5007 00ac 2375     		strb	r3, [r4, #20]
 5008              	.L1318:
 5009 00ae 0546     		mov	r5, r0
 5010 00b0 6075     		strb	r0, [r4, #21]
 5011 00b2 B1E7     		b	.L1324
 5012              	.L1316:
 5013 00b4 237D     		ldrb	r3, [r4, #20]	@ zero_extendqisi2
 5014 00b6 0120     		movs	r0, #1
 5015 00b8 A269     		ldr	r2, [r4, #24]
 5016 00ba 43F04003 		orr	r3, r3, #64
 5017 00be E260     		str	r2, [r4, #12]
 5018 00c0 2375     		strb	r3, [r4, #20]
 5019 00c2 F4E7     		b	.L1318
 5020              	.L1319:
 5021 00c4 0146     		mov	r1, r0
 5022 00c6 E269     		ldr	r2, [r4, #28]
 5023 00c8 2068     		ldr	r0, [r4]
 5024 00ca FFF7FEFF 		bl	remove_chain.isra.0
 5025 00ce BCE7     		b	.L1315
ARM GAS  /var/folders/sy/x1dkwsgj58j1lmy_hry3vpdm0000gn/T//cc0MFmUD.s 			page 88


 5026              	.L1323:
 5027 00d0 0120     		movs	r0, #1
 5028 00d2 ECE7     		b	.L1318
 5030              		.section	.text.f_unlink,"ax",%progbits
 5031              		.align	1
 5032              		.p2align 2,,3
 5033              		.global	f_unlink
 5034              		.syntax unified
 5035              		.thumb
 5036              		.thumb_func
 5037              		.fpu fpv5-d16
 5039              	f_unlink:
 5040              		@ args = 0, pretend = 0, frame = 120
 5041              		@ frame_needed = 0, uses_anonymous_args = 0
 5042 0000 10B5     		push	{r4, lr}
 5043 0002 9EB0     		sub	sp, sp, #120
 5044 0004 0222     		movs	r2, #2
 5045 0006 0190     		str	r0, [sp, #4]
 5046 0008 03A9     		add	r1, sp, #12
 5047 000a 01A8     		add	r0, sp, #4
 5048 000c FFF7FEFF 		bl	find_volume
 5049 0010 039B     		ldr	r3, [sp, #12]
 5050 0012 0493     		str	r3, [sp, #16]
 5051 0014 08B1     		cbz	r0, .L1355
 5052              	.L1335:
 5053 0016 1EB0     		add	sp, sp, #120
 5054              		@ sp needed
 5055 0018 10BD     		pop	{r4, pc}
 5056              	.L1355:
 5057 001a 0199     		ldr	r1, [sp, #4]
 5058 001c 04A8     		add	r0, sp, #16
 5059 001e FFF7FEFF 		bl	follow_path
 5060 0022 0028     		cmp	r0, #0
 5061 0024 F7D1     		bne	.L1335
 5062 0026 0221     		movs	r1, #2
 5063 0028 04A8     		add	r0, sp, #16
 5064 002a FFF7FEFF 		bl	chk_lock
 5065 002e 0028     		cmp	r0, #0
 5066 0030 F1D1     		bne	.L1335
 5067 0032 9DF93F30 		ldrsb	r3, [sp, #63]
 5068 0036 002B     		cmp	r3, #0
 5069 0038 20DB     		blt	.L1344
 5070 003a 9DF81630 		ldrb	r3, [sp, #22]	@ zero_extendqisi2
 5071 003e DA07     		lsls	r2, r3, #31
 5072 0040 1AD4     		bmi	.L1342
 5073 0042 039A     		ldr	r2, [sp, #12]
 5074 0044 0C99     		ldr	r1, [sp, #48]
 5075 0046 1078     		ldrb	r0, [r2]	@ zero_extendqisi2
 5076 0048 4C8B     		ldrh	r4, [r1, #26]	@ unaligned
 5077 004a 0328     		cmp	r0, #3
 5078 004c 02D1     		bne	.L1337
 5079 004e 898A     		ldrh	r1, [r1, #20]	@ unaligned
 5080 0050 44EA0144 		orr	r4, r4, r1, lsl #16
 5081              	.L1337:
 5082 0054 DB06     		lsls	r3, r3, #27
 5083 0056 13D4     		bmi	.L1338
 5084              	.L1343:
ARM GAS  /var/folders/sy/x1dkwsgj58j1lmy_hry3vpdm0000gn/T//cc0MFmUD.s 			page 89


 5085 0058 04A8     		add	r0, sp, #16
 5086 005a FFF7FEFF 		bl	dir_remove
 5087 005e 28B9     		cbnz	r0, .L1341
 5088 0060 24B1     		cbz	r4, .L1341
 5089 0062 0022     		movs	r2, #0
 5090 0064 2146     		mov	r1, r4
 5091 0066 0498     		ldr	r0, [sp, #16]
 5092 0068 FFF7FEFF 		bl	remove_chain.isra.0
 5093              	.L1341:
 5094 006c 0028     		cmp	r0, #0
 5095 006e D2D1     		bne	.L1335
 5096 0070 0398     		ldr	r0, [sp, #12]
 5097 0072 FFF7FEFF 		bl	sync_fs
 5098 0076 CEE7     		b	.L1335
 5099              	.L1342:
 5100 0078 0720     		movs	r0, #7
 5101 007a CCE7     		b	.L1335
 5102              	.L1344:
 5103 007c 0620     		movs	r0, #6
 5104 007e CAE7     		b	.L1335
 5105              	.L1338:
 5106 0080 0021     		movs	r1, #0
 5107 0082 11A8     		add	r0, sp, #68
 5108 0084 1192     		str	r2, [sp, #68]
 5109 0086 1394     		str	r4, [sp, #76]
 5110 0088 FFF7FEFF 		bl	dir_sdi
 5111 008c 0028     		cmp	r0, #0
 5112 008e C2D1     		bne	.L1335
 5113 0090 11A8     		add	r0, sp, #68
 5114 0092 FFF7FEFF 		bl	dir_read.constprop.0
 5115 0096 0028     		cmp	r0, #0
 5116 0098 EED0     		beq	.L1342
 5117 009a 0428     		cmp	r0, #4
 5118 009c BBD1     		bne	.L1335
 5119 009e DBE7     		b	.L1343
 5121              		.section	.text.f_mkdir,"ax",%progbits
 5122              		.align	1
 5123              		.p2align 2,,3
 5124              		.global	f_mkdir
 5125              		.syntax unified
 5126              		.thumb
 5127              		.thumb_func
 5128              		.fpu fpv5-d16
 5130              	f_mkdir:
 5131              		@ args = 0, pretend = 0, frame = 80
 5132              		@ frame_needed = 0, uses_anonymous_args = 0
 5133 0000 2DE9F04F 		push	{r4, r5, r6, r7, r8, r9, r10, fp, lr}
 5134 0004 95B0     		sub	sp, sp, #84
 5135 0006 0222     		movs	r2, #2
 5136 0008 0590     		str	r0, [sp, #20]
 5137 000a 06A9     		add	r1, sp, #24
 5138 000c 05A8     		add	r0, sp, #20
 5139 000e FFF7FEFF 		bl	find_volume
 5140 0012 069A     		ldr	r2, [sp, #24]
 5141 0014 8246     		mov	r10, r0
 5142 0016 0792     		str	r2, [sp, #28]
 5143 0018 18B1     		cbz	r0, .L1390
ARM GAS  /var/folders/sy/x1dkwsgj58j1lmy_hry3vpdm0000gn/T//cc0MFmUD.s 			page 90


 5144              	.L1381:
 5145 001a 5046     		mov	r0, r10
 5146 001c 15B0     		add	sp, sp, #84
 5147              		@ sp needed
 5148 001e BDE8F08F 		pop	{r4, r5, r6, r7, r8, r9, r10, fp, pc}
 5149              	.L1390:
 5150 0022 0599     		ldr	r1, [sp, #20]
 5151 0024 07A8     		add	r0, sp, #28
 5152 0026 FFF7FEFF 		bl	follow_path
 5153 002a 30B1     		cbz	r0, .L1373
 5154 002c 0428     		cmp	r0, #4
 5155 002e 0AD0     		beq	.L1391
 5156 0030 8246     		mov	r10, r0
 5157 0032 5046     		mov	r0, r10
 5158 0034 15B0     		add	sp, sp, #84
 5159              		@ sp needed
 5160 0036 BDE8F08F 		pop	{r4, r5, r6, r7, r8, r9, r10, fp, pc}
 5161              	.L1373:
 5162 003a 4FF0080A 		mov	r10, #8
 5163 003e 5046     		mov	r0, r10
 5164 0040 15B0     		add	sp, sp, #84
 5165              		@ sp needed
 5166 0042 BDE8F08F 		pop	{r4, r5, r6, r7, r8, r9, r10, fp, pc}
 5167              	.L1391:
 5168 0046 5146     		mov	r1, r10
 5169 0048 0798     		ldr	r0, [sp, #28]
 5170 004a FFF7FEFF 		bl	create_chain.isra.0
 5171 004e 0699     		ldr	r1, [sp, #24]
 5172 0050 0546     		mov	r5, r0
 5173 0052 4A89     		ldrh	r2, [r1, #10]
 5174 0054 5202     		lsls	r2, r2, #9
 5175 0056 0A92     		str	r2, [sp, #40]
 5176 0058 0028     		cmp	r0, #0
 5177 005a 00F0B980 		beq	.L1375
 5178 005e 0128     		cmp	r0, #1
 5179 0060 00F0C780 		beq	.L1376
 5180 0064 431C     		adds	r3, r0, #1
 5181 0066 00F0CF80 		beq	.L1377
 5182 006a CA78     		ldrb	r2, [r1, #3]	@ zero_extendqisi2
 5183 006c 002A     		cmp	r2, #0
 5184 006e 40F0B480 		bne	.L1359
 5185 0072 FFF7FEFF 		bl	get_fattime
 5186 0076 8046     		mov	r8, r0
 5187              	.L1360:
 5188 0078 069E     		ldr	r6, [sp, #24]
 5189 007a A91E     		subs	r1, r5, #2
 5190 007c B269     		ldr	r2, [r6, #24]
 5191 007e 023A     		subs	r2, r2, #2
 5192 0080 9142     		cmp	r1, r2
 5193 0082 80F0BF80 		bcs	.L1379
 5194 0086 7289     		ldrh	r2, [r6, #10]
 5195 0088 F46A     		ldr	r4, [r6, #44]
 5196 008a 01FB0244 		mla	r4, r1, r2, r4
 5197              	.L1362:
 5198 008e 06F13407 		add	r7, r6, #52
 5199 0092 5FFA88F3 		uxtb	r3, r8
 5200 0096 4FF40072 		mov	r2, #512
ARM GAS  /var/folders/sy/x1dkwsgj58j1lmy_hry3vpdm0000gn/T//cc0MFmUD.s 			page 91


 5201 009a 0021     		movs	r1, #0
 5202 009c 3846     		mov	r0, r7
 5203 009e 0193     		str	r3, [sp, #4]
 5204 00a0 FFF7FEFF 		bl	memset
 5205 00a4 4FF02032 		mov	r2, #538976288
 5206 00a8 019B     		ldr	r3, [sp, #4]
 5207 00aa C8F3074B 		ubfx	fp, r8, #16, #8
 5208 00ae 7263     		str	r2, [r6, #52]	@ unaligned
 5209 00b0 7A60     		str	r2, [r7, #4]	@ unaligned
 5210 00b2 C7F80720 		str	r2, [r7, #7]	@ unaligned
 5211 00b6 2E22     		movs	r2, #46
 5212 00b8 86F84A30 		strb	r3, [r6, #74]
 5213 00bc C8F30723 		ubfx	r3, r8, #8, #8
 5214 00c0 86F83420 		strb	r2, [r6, #52]
 5215 00c4 1022     		movs	r2, #16
 5216 00c6 0493     		str	r3, [sp, #16]
 5217 00c8 4FEA1868 		lsr	r8, r8, #24
 5218 00cc 86F83F20 		strb	r2, [r6, #63]
 5219 00d0 86F84B30 		strb	r3, [r6, #75]
 5220 00d4 EBB2     		uxtb	r3, r5
 5221 00d6 3278     		ldrb	r2, [r6]	@ zero_extendqisi2
 5222 00d8 0293     		str	r3, [sp, #8]
 5223 00da 86F84E30 		strb	r3, [r6, #78]
 5224 00de 032A     		cmp	r2, #3
 5225 00e0 C5F30723 		ubfx	r3, r5, #8, #8
 5226 00e4 86F84CB0 		strb	fp, [r6, #76]
 5227 00e8 86F84D80 		strb	r8, [r6, #77]
 5228 00ec 0393     		str	r3, [sp, #12]
 5229 00ee 86F84F30 		strb	r3, [r6, #79]
 5230 00f2 05D1     		bne	.L1363
 5231 00f4 2A0C     		lsrs	r2, r5, #16
 5232 00f6 86F84820 		strb	r2, [r6, #72]
 5233 00fa 120A     		lsrs	r2, r2, #8
 5234 00fc 86F84920 		strb	r2, [r6, #73]
 5235              	.L1363:
 5236 0100 06F15402 		add	r2, r6, #84
 5237 0104 06F17400 		add	r0, r6, #116
 5238 0108 2E21     		movs	r1, #46
 5239 010a 01E0     		b	.L1365
 5240              	.L1392:
 5241 010c 12F8201C 		ldrb	r1, [r2, #-32]	@ zero_extendqisi2
 5242              	.L1365:
 5243 0110 02F8011B 		strb	r1, [r2], #1
 5244 0114 9042     		cmp	r0, r2
 5245 0116 F9D1     		bne	.L1392
 5246 0118 2E22     		movs	r2, #46
 5247 011a 0698     		ldr	r0, [sp, #24]
 5248 011c 86F85520 		strb	r2, [r6, #85]
 5249 0120 0178     		ldrb	r1, [r0]	@ zero_extendqisi2
 5250 0122 099A     		ldr	r2, [sp, #36]
 5251 0124 0329     		cmp	r1, #3
 5252 0126 67D0     		beq	.L1366
 5253              	.L1389:
 5254 0128 5FFA82FA 		uxtb	r10, r2
 5255 012c C2F30721 		ubfx	r1, r2, #8, #8
 5256              	.L1367:
 5257 0130 86F86EA0 		strb	r10, [r6, #110]
ARM GAS  /var/folders/sy/x1dkwsgj58j1lmy_hry3vpdm0000gn/T//cc0MFmUD.s 			page 92


 5258 0134 86F86F10 		strb	r1, [r6, #111]
 5259 0138 0378     		ldrb	r3, [r0]	@ zero_extendqisi2
 5260 013a 032B     		cmp	r3, #3
 5261 013c 05D1     		bne	.L1368
 5262 013e 120C     		lsrs	r2, r2, #16
 5263 0140 86F86820 		strb	r2, [r6, #104]
 5264 0144 120A     		lsrs	r2, r2, #8
 5265 0146 86F86920 		strb	r2, [r6, #105]
 5266              	.L1368:
 5267 014a 4389     		ldrh	r3, [r0, #10]
 5268 014c EBB1     		cbz	r3, .L1369
 5269 014e 013B     		subs	r3, r3, #1
 5270 0150 4FF00109 		mov	r9, #1
 5271 0154 1E19     		adds	r6, r3, r4
 5272 0156 07E0     		b	.L1370
 5273              	.L1393:
 5274 0158 3846     		mov	r0, r7
 5275 015a FFF7FEFF 		bl	memset
 5276 015e A642     		cmp	r6, r4
 5277 0160 04F10104 		add	r4, r4, #1
 5278 0164 11D0     		beq	.L1369
 5279 0166 0698     		ldr	r0, [sp, #24]
 5280              	.L1370:
 5281 0168 0463     		str	r4, [r0, #48]
 5282 016a 80F80390 		strb	r9, [r0, #3]
 5283 016e FFF7FEFF 		bl	sync_window.part.0
 5284 0172 4FF40072 		mov	r2, #512
 5285 0176 0146     		mov	r1, r0
 5286 0178 0028     		cmp	r0, #0
 5287 017a EDD0     		beq	.L1393
 5288 017c 8246     		mov	r10, r0
 5289              	.L1361:
 5290 017e 0022     		movs	r2, #0
 5291 0180 2946     		mov	r1, r5
 5292 0182 0798     		ldr	r0, [sp, #28]
 5293 0184 FFF7FEFF 		bl	remove_chain.isra.0
 5294 0188 47E7     		b	.L1381
 5295              	.L1369:
 5296 018a 07A8     		add	r0, sp, #28
 5297 018c FFF7FEFF 		bl	dir_register
 5298 0190 8246     		mov	r10, r0
 5299 0192 0028     		cmp	r0, #0
 5300 0194 F3D1     		bne	.L1361
 5301 0196 0F9B     		ldr	r3, [sp, #60]
 5302 0198 019A     		ldr	r2, [sp, #4]
 5303 019a 0698     		ldr	r0, [sp, #24]
 5304 019c 9A75     		strb	r2, [r3, #22]
 5305 019e 049A     		ldr	r2, [sp, #16]
 5306 01a0 83F818B0 		strb	fp, [r3, #24]
 5307 01a4 DA75     		strb	r2, [r3, #23]
 5308 01a6 029A     		ldr	r2, [sp, #8]
 5309 01a8 83F81980 		strb	r8, [r3, #25]
 5310 01ac 9A76     		strb	r2, [r3, #26]
 5311 01ae 039A     		ldr	r2, [sp, #12]
 5312 01b0 DA76     		strb	r2, [r3, #27]
 5313 01b2 0278     		ldrb	r2, [r0]	@ zero_extendqisi2
 5314 01b4 032A     		cmp	r2, #3
ARM GAS  /var/folders/sy/x1dkwsgj58j1lmy_hry3vpdm0000gn/T//cc0MFmUD.s 			page 93


 5315 01b6 03D1     		bne	.L1371
 5316 01b8 2D0C     		lsrs	r5, r5, #16
 5317 01ba 2A0A     		lsrs	r2, r5, #8
 5318 01bc 1D75     		strb	r5, [r3, #20]
 5319 01be 5A75     		strb	r2, [r3, #21]
 5320              	.L1371:
 5321 01c0 1021     		movs	r1, #16
 5322 01c2 0122     		movs	r2, #1
 5323 01c4 D972     		strb	r1, [r3, #11]
 5324 01c6 C270     		strb	r2, [r0, #3]
 5325 01c8 FFF7FEFF 		bl	sync_fs
 5326 01cc 8246     		mov	r10, r0
 5327 01ce 24E7     		b	.L1381
 5328              	.L1375:
 5329 01d0 4FF0070A 		mov	r10, #7
 5330              	.L1358:
 5331 01d4 FFF7FEFF 		bl	get_fattime
 5332 01d8 D1E7     		b	.L1361
 5333              	.L1359:
 5334 01da 0846     		mov	r0, r1
 5335 01dc FFF7FEFF 		bl	sync_window.part.0
 5336 01e0 0446     		mov	r4, r0
 5337 01e2 FFF7FEFF 		bl	get_fattime
 5338 01e6 8046     		mov	r8, r0
 5339 01e8 002C     		cmp	r4, #0
 5340 01ea 3FF445AF 		beq	.L1360
 5341 01ee A246     		mov	r10, r4
 5342 01f0 C5E7     		b	.L1361
 5343              	.L1376:
 5344 01f2 4FF0020A 		mov	r10, #2
 5345 01f6 EDE7     		b	.L1358
 5346              	.L1366:
 5347 01f8 816A     		ldr	r1, [r0, #40]
 5348 01fa 9142     		cmp	r1, r2
 5349 01fc 94D1     		bne	.L1389
 5350 01fe 0021     		movs	r1, #0
 5351 0200 0A46     		mov	r2, r1
 5352 0202 95E7     		b	.L1367
 5353              	.L1379:
 5354 0204 0024     		movs	r4, #0
 5355 0206 42E7     		b	.L1362
 5356              	.L1377:
 5357 0208 4FF0010A 		mov	r10, #1
 5358 020c E2E7     		b	.L1358
 5360 020e 00BF     		.section	.text.f_rename,"ax",%progbits
 5361              		.align	1
 5362              		.p2align 2,,3
 5363              		.global	f_rename
 5364              		.syntax unified
 5365              		.thumb
 5366              		.thumb_func
 5367              		.fpu fpv5-d16
 5369              	f_rename:
 5370              		@ args = 0, pretend = 0, frame = 144
 5371              		@ frame_needed = 0, uses_anonymous_args = 0
 5372 0000 30B5     		push	{r4, r5, lr}
 5373 0002 A5B0     		sub	sp, sp, #148
ARM GAS  /var/folders/sy/x1dkwsgj58j1lmy_hry3vpdm0000gn/T//cc0MFmUD.s 			page 94


 5374 0004 0190     		str	r0, [sp, #4]
 5375 0006 6846     		mov	r0, sp
 5376 0008 0091     		str	r1, [sp]
 5377 000a FFF7FEFF 		bl	get_ldnumber
 5378 000e 0222     		movs	r2, #2
 5379 0010 03A9     		add	r1, sp, #12
 5380 0012 01A8     		add	r0, sp, #4
 5381 0014 FFF7FEFF 		bl	find_volume
 5382 0018 08B1     		cbz	r0, .L1409
 5383              	.L1395:
 5384 001a 25B0     		add	sp, sp, #148
 5385              		@ sp needed
 5386 001c 30BD     		pop	{r4, r5, pc}
 5387              	.L1409:
 5388 001e 039B     		ldr	r3, [sp, #12]
 5389 0020 0AA8     		add	r0, sp, #40
 5390 0022 0199     		ldr	r1, [sp, #4]
 5391 0024 0A93     		str	r3, [sp, #40]
 5392 0026 FFF7FEFF 		bl	follow_path
 5393 002a 0028     		cmp	r0, #0
 5394 002c F5D1     		bne	.L1395
 5395 002e 9DF85730 		ldrb	r3, [sp, #87]	@ zero_extendqisi2
 5396 0032 13F0A00F 		tst	r3, #160
 5397 0036 01D0     		beq	.L1410
 5398 0038 0620     		movs	r0, #6
 5399 003a EEE7     		b	.L1395
 5400              	.L1410:
 5401 003c 0221     		movs	r1, #2
 5402 003e 0AA8     		add	r0, sp, #40
 5403 0040 FFF7FEFF 		bl	chk_lock
 5404 0044 0028     		cmp	r0, #0
 5405 0046 E8D1     		bne	.L1395
 5406 0048 129D     		ldr	r5, [sp, #72]
 5407 004a 04AC     		add	r4, sp, #16
 5408 004c 0DF1280E 		add	lr, sp, #40
 5409 0050 0DF15C0C 		add	ip, sp, #92
 5410 0054 D5F80B00 		ldr	r0, [r5, #11]	@ unaligned
 5411 0058 D5F80F10 		ldr	r1, [r5, #15]	@ unaligned
 5412 005c D5F81320 		ldr	r2, [r5, #19]	@ unaligned
 5413 0060 D5F81730 		ldr	r3, [r5, #23]	@ unaligned
 5414 0064 0FC4     		stmia	r4!, {r0, r1, r2, r3}
 5415 0066 D5F81B00 		ldr	r0, [r5, #27]	@ unaligned
 5416 006a EB7F     		ldrb	r3, [r5, #31]	@ zero_extendqisi2
 5417 006c 2060     		str	r0, [r4]
 5418 006e 2371     		strb	r3, [r4, #4]
 5419 0070 BEE80F00 		ldmia	lr!, {r0, r1, r2, r3}
 5420 0074 ACE80F00 		stmia	ip!, {r0, r1, r2, r3}
 5421 0078 BEE80F00 		ldmia	lr!, {r0, r1, r2, r3}
 5422 007c ACE80F00 		stmia	ip!, {r0, r1, r2, r3}
 5423 0080 BEE80F00 		ldmia	lr!, {r0, r1, r2, r3}
 5424 0084 ACE80F00 		stmia	ip!, {r0, r1, r2, r3}
 5425 0088 DEF80030 		ldr	r3, [lr]
 5426 008c 17A8     		add	r0, sp, #92
 5427 008e 0099     		ldr	r1, [sp]
 5428 0090 CCF80030 		str	r3, [ip]
 5429 0094 FFF7FEFF 		bl	follow_path
 5430 0098 28B9     		cbnz	r0, .L1396
ARM GAS  /var/folders/sy/x1dkwsgj58j1lmy_hry3vpdm0000gn/T//cc0MFmUD.s 			page 95


 5431 009a 199A     		ldr	r2, [sp, #100]
 5432 009c 0C9B     		ldr	r3, [sp, #48]
 5433 009e 9A42     		cmp	r2, r3
 5434 00a0 57D0     		beq	.L1411
 5435              	.L1405:
 5436 00a2 0820     		movs	r0, #8
 5437 00a4 B9E7     		b	.L1395
 5438              	.L1396:
 5439 00a6 0428     		cmp	r0, #4
 5440 00a8 B7D1     		bne	.L1395
 5441              	.L1397:
 5442 00aa 17A8     		add	r0, sp, #92
 5443 00ac FFF7FEFF 		bl	dir_register
 5444 00b0 0028     		cmp	r0, #0
 5445 00b2 B2D1     		bne	.L1395
 5446 00b4 1F9B     		ldr	r3, [sp, #124]
 5447 00b6 DDF81220 		ldr	r2, [sp, #18]	@ unaligned
 5448 00ba DDF81610 		ldr	r1, [sp, #22]	@ unaligned
 5449 00be C3F80D20 		str	r2, [r3, #13]	@ unaligned
 5450 00c2 9DF81020 		ldrb	r2, [sp, #16]	@ zero_extendqisi2
 5451 00c6 BDF82200 		ldrh	r0, [sp, #34]	@ unaligned
 5452 00ca 42F02002 		orr	r2, r2, #32
 5453 00ce C3F81110 		str	r1, [r3, #17]	@ unaligned
 5454 00d2 A3F81D00 		strh	r0, [r3, #29]	@ unaligned
 5455 00d6 DA72     		strb	r2, [r3, #11]
 5456 00d8 DDF81E20 		ldr	r2, [sp, #30]	@ unaligned
 5457 00dc DDF81A40 		ldr	r4, [sp, #26]	@ unaligned
 5458 00e0 C3F81920 		str	r2, [r3, #25]	@ unaligned
 5459 00e4 0122     		movs	r2, #1
 5460 00e6 9DF82410 		ldrb	r1, [sp, #36]	@ zero_extendqisi2
 5461 00ea 0398     		ldr	r0, [sp, #12]
 5462 00ec C3F81540 		str	r4, [r3, #21]	@ unaligned
 5463 00f0 D977     		strb	r1, [r3, #31]
 5464 00f2 C270     		strb	r2, [r0, #3]
 5465 00f4 DA7A     		ldrb	r2, [r3, #11]	@ zero_extendqisi2
 5466 00f6 D206     		lsls	r2, r2, #27
 5467 00f8 21D5     		bpl	.L1399
 5468 00fa 0C99     		ldr	r1, [sp, #48]
 5469 00fc 199A     		ldr	r2, [sp, #100]
 5470 00fe 9142     		cmp	r1, r2
 5471 0100 1DD0     		beq	.L1399
 5472 0102 0178     		ldrb	r1, [r0]	@ zero_extendqisi2
 5473 0104 5A8B     		ldrh	r2, [r3, #26]	@ unaligned
 5474 0106 0329     		cmp	r1, #3
 5475 0108 02D1     		bne	.L1401
 5476 010a 9B8A     		ldrh	r3, [r3, #20]	@ unaligned
 5477 010c 42EA0342 		orr	r2, r2, r3, lsl #16
 5478              	.L1401:
 5479 0110 8369     		ldr	r3, [r0, #24]
 5480 0112 023A     		subs	r2, r2, #2
 5481 0114 023B     		subs	r3, r3, #2
 5482 0116 9A42     		cmp	r2, r3
 5483 0118 20D2     		bcs	.L1407
 5484 011a 4189     		ldrh	r1, [r0, #10]
 5485 011c C36A     		ldr	r3, [r0, #44]
 5486 011e 02FB0131 		mla	r1, r2, r1, r3
 5487 0122 D9B1     		cbz	r1, .L1407
ARM GAS  /var/folders/sy/x1dkwsgj58j1lmy_hry3vpdm0000gn/T//cc0MFmUD.s 			page 96


 5488 0124 036B     		ldr	r3, [r0, #48]
 5489 0126 9942     		cmp	r1, r3
 5490 0128 05D0     		beq	.L1402
 5491 012a FFF7FEFF 		bl	move_window.part.0
 5492 012e 0028     		cmp	r0, #0
 5493 0130 7FF473AF 		bne	.L1395
 5494 0134 0398     		ldr	r0, [sp, #12]
 5495              	.L1402:
 5496 0136 90F85530 		ldrb	r3, [r0, #85]	@ zero_extendqisi2
 5497 013a 2E2B     		cmp	r3, #46
 5498 013c 10D0     		beq	.L1412
 5499              	.L1399:
 5500 013e 0AA8     		add	r0, sp, #40
 5501 0140 FFF7FEFF 		bl	dir_remove
 5502 0144 0028     		cmp	r0, #0
 5503 0146 7FF468AF 		bne	.L1395
 5504 014a 0398     		ldr	r0, [sp, #12]
 5505 014c FFF7FEFF 		bl	sync_fs
 5506 0150 63E7     		b	.L1395
 5507              	.L1411:
 5508 0152 1C9A     		ldr	r2, [sp, #112]
 5509 0154 0F9B     		ldr	r3, [sp, #60]
 5510 0156 9A42     		cmp	r2, r3
 5511 0158 A3D1     		bne	.L1405
 5512 015a A6E7     		b	.L1397
 5513              	.L1407:
 5514 015c 0220     		movs	r0, #2
 5515 015e 5CE7     		b	.L1395
 5516              	.L1412:
 5517 0160 199B     		ldr	r3, [sp, #100]
 5518 0162 039A     		ldr	r2, [sp, #12]
 5519 0164 C3F30721 		ubfx	r1, r3, #8, #8
 5520 0168 80F86E30 		strb	r3, [r0, #110]
 5521 016c 80F86F10 		strb	r1, [r0, #111]
 5522 0170 1178     		ldrb	r1, [r2]	@ zero_extendqisi2
 5523 0172 0329     		cmp	r1, #3
 5524 0174 05D1     		bne	.L1403
 5525 0176 1B0C     		lsrs	r3, r3, #16
 5526 0178 190A     		lsrs	r1, r3, #8
 5527 017a 80F86830 		strb	r3, [r0, #104]
 5528 017e 80F86910 		strb	r1, [r0, #105]
 5529              	.L1403:
 5530 0182 0123     		movs	r3, #1
 5531 0184 D370     		strb	r3, [r2, #3]
 5532 0186 DAE7     		b	.L1399
 5534              		.section	.rodata.f_mkfs.str1.4,"aMS",%progbits,1
 5535              		.align	2
 5536              	.LC2:
 5537 0000 4E4F204E 		.ascii	"NO NAME    FAT32   \000"
 5537      414D4520 
 5537      20202046 
 5537      41543332 
 5537      20202000 
 5538              		.align	2
 5539              	.LC3:
 5540 0014 EBFE904D 		.ascii	"\353\376\220MSDOS5.0\000"
 5540      53444F53 
ARM GAS  /var/folders/sy/x1dkwsgj58j1lmy_hry3vpdm0000gn/T//cc0MFmUD.s 			page 97


 5540      352E3000 
 5541              		.align	2
 5542              	.LC4:
 5543 0020 4E4F204E 		.ascii	"NO NAME    FAT     \000"
 5543      414D4520 
 5543      20202046 
 5543      41542020 
 5543      20202000 
 5544              		.section	.text.f_mkfs,"ax",%progbits
 5545              		.align	1
 5546              		.p2align 2,,3
 5547              		.global	f_mkfs
 5548              		.syntax unified
 5549              		.thumb
 5550              		.thumb_func
 5551              		.fpu fpv5-d16
 5553              	f_mkfs:
 5554              		@ args = 4, pretend = 0, frame = 40
 5555              		@ frame_needed = 0, uses_anonymous_args = 0
 5556 0000 2DE9F04F 		push	{r4, r5, r6, r7, r8, r9, r10, fp, lr}
 5557 0004 8BB0     		sub	sp, sp, #44
 5558 0006 0F46     		mov	r7, r1
 5559 0008 9046     		mov	r8, r2
 5560 000a 1D46     		mov	r5, r3
 5561 000c 0790     		str	r0, [sp, #28]
 5562 000e 07A8     		add	r0, sp, #28
 5563 0010 FFF7FEFF 		bl	get_ldnumber
 5564 0014 0028     		cmp	r0, #0
 5565 0016 C0F2D480 		blt	.L1469
 5566 001a BB4B     		ldr	r3, .L1534
 5567 001c 53F82030 		ldr	r3, [r3, r0, lsl #2]
 5568 0020 0BB1     		cbz	r3, .L1415
 5569 0022 0022     		movs	r2, #0
 5570 0024 1A70     		strb	r2, [r3]
 5571              	.L1415:
 5572 0026 C4B2     		uxtb	r4, r0
 5573 0028 2046     		mov	r0, r4
 5574 002a FFF7FEFF 		bl	disk_initialize
 5575 002e C607     		lsls	r6, r0, #31
 5576 0030 00F1C380 		bmi	.L1470
 5577 0034 4007     		lsls	r0, r0, #29
 5578 0036 19D4     		bmi	.L1471
 5579 0038 08AA     		add	r2, sp, #32
 5580 003a 0321     		movs	r1, #3
 5581 003c 2046     		mov	r0, r4
 5582 003e FFF7FEFF 		bl	disk_ioctl
 5583 0042 28B9     		cbnz	r0, .L1416
 5584 0044 089A     		ldr	r2, [sp, #32]
 5585 0046 531E     		subs	r3, r2, #1
 5586 0048 B3F5004F 		cmp	r3, #32768
 5587 004c C0F0B180 		bcc	.L1522
 5588              	.L1416:
 5589 0050 0123     		movs	r3, #1
 5590 0052 0893     		str	r3, [sp, #32]
 5591              	.L1417:
 5592 0054 B8F1000F 		cmp	r8, #0
 5593 0058 11D0     		beq	.L1418
ARM GAS  /var/folders/sy/x1dkwsgj58j1lmy_hry3vpdm0000gn/T//cc0MFmUD.s 			page 98


 5594 005a A8F50072 		sub	r2, r8, #512
 5595 005e AB4B     		ldr	r3, .L1534+4
 5596 0060 9A42     		cmp	r2, r3
 5597 0062 07D9     		bls	.L1419
 5598              	.L1420:
 5599 0064 1320     		movs	r0, #19
 5600 0066 0BB0     		add	sp, sp, #44
 5601              		@ sp needed
 5602 0068 BDE8F08F 		pop	{r4, r5, r6, r7, r8, r9, r10, fp, pc}
 5603              	.L1471:
 5604 006c 0A20     		movs	r0, #10
 5605              	.L1512:
 5606 006e 0BB0     		add	sp, sp, #44
 5607              		@ sp needed
 5608 0070 BDE8F08F 		pop	{r4, r5, r6, r7, r8, r9, r10, fp, pc}
 5609              	.L1419:
 5610 0074 08F1FF33 		add	r3, r8, #-1
 5611 0078 13EA080F 		tst	r3, r8
 5612 007c F2D1     		bne	.L1420
 5613              	.L1418:
 5614 007e A44E     		ldr	r6, .L1534+8
 5615 0080 149B     		ldr	r3, [sp, #80]
 5616 0082 1E40     		ands	r6, r6, r3
 5617 0084 002E     		cmp	r6, #0
 5618 0086 00F09080 		beq	.L1423
 5619 008a 09AA     		add	r2, sp, #36
 5620 008c 0121     		movs	r1, #1
 5621 008e 2046     		mov	r0, r4
 5622 0090 FFF7FEFF 		bl	disk_ioctl
 5623 0094 8146     		mov	r9, r0
 5624 0096 0028     		cmp	r0, #0
 5625 0098 40F05881 		bne	.L1472
 5626 009c 17F00803 		ands	r3, r7, #8
 5627 00a0 0493     		str	r3, [sp, #16]
 5628 00a2 099B     		ldr	r3, [sp, #36]
 5629 00a4 40F05481 		bne	.L1422
 5630 00a8 3E2B     		cmp	r3, #62
 5631 00aa 7ED9     		bls	.L1423
 5632 00ac 3F3B     		subs	r3, r3, #63
 5633 00ae 4FF03F0A 		mov	r10, #63
 5634              	.L1466:
 5635 00b2 7F2B     		cmp	r3, #127
 5636 00b4 0993     		str	r3, [sp, #36]
 5637 00b6 78D9     		bls	.L1423
 5638 00b8 B8F5813F 		cmp	r8, #66048
 5639 00bc D2D2     		bcs	.L1420
 5640 00be 17F00201 		ands	r1, r7, #2
 5641 00c2 4FEA5822 		lsr	r2, r8, #9
 5642 00c6 0691     		str	r1, [sp, #24]
 5643 00c8 00F07381 		beq	.L1424
 5644 00cc 07F00701 		and	r1, r7, #7
 5645 00d0 0229     		cmp	r1, #2
 5646 00d2 00F04381 		beq	.L1425
 5647 00d6 F907     		lsls	r1, r7, #31
 5648 00d8 40F14081 		bpl	.L1425
 5649              	.L1521:
 5650 00dc DDF820C0 		ldr	ip, [sp, #32]
ARM GAS  /var/folders/sy/x1dkwsgj58j1lmy_hry3vpdm0000gn/T//cc0MFmUD.s 			page 99


 5651              	.L1426:
 5652 00e0 002A     		cmp	r2, #0
 5653 00e2 00F06A81 		beq	.L1523
 5654 00e6 1746     		mov	r7, r2
 5655              	.L1431:
 5656 00e8 40F6F570 		movw	r0, #4085
 5657 00ec B3FBF7F1 		udiv	r1, r3, r7
 5658 00f0 8142     		cmp	r1, r0
 5659 00f2 4AD9     		bls	.L1434
 5660              	.L1526:
 5661 00f4 0231     		adds	r1, r1, #2
 5662 00f6 0220     		movs	r0, #2
 5663 00f8 4900     		lsls	r1, r1, #1
 5664 00fa 0190     		str	r0, [sp, #4]
 5665              	.L1435:
 5666 00fc 0AF12100 		add	r0, r10, #33
 5667 0100 01F2FF11 		addw	r1, r1, #511
 5668 0104 CCF1000E 		rsb	lr, ip, #0
 5669 0108 4FF0010B 		mov	fp, #1
 5670 010c 00EB5121 		add	r1, r0, r1, lsr #9
 5671 0110 0CF1FF30 		add	r0, ip, #-1
 5672 0114 0844     		add	r0, r0, r1
 5673 0116 00EA0E00 		and	r0, r0, lr
 5674 011a A0EB0A00 		sub	r0, r0, r10
 5675 011e 2138     		subs	r0, r0, #33
 5676 0120 0290     		str	r0, [sp, #8]
 5677 0122 0AF10100 		add	r0, r10, #1
 5678 0126 0590     		str	r0, [sp, #20]
 5679 0128 2020     		movs	r0, #32
 5680 012a 0390     		str	r0, [sp, #12]
 5681              	.L1465:
 5682 012c A1EB0A01 		sub	r1, r1, r10
 5683 0130 01EB0711 		add	r1, r1, r7, lsl #4
 5684 0134 9942     		cmp	r1, r3
 5685 0136 38D8     		bhi	.L1423
 5686 0138 0299     		ldr	r1, [sp, #8]
 5687 013a 0BEB0108 		add	r8, fp, r1
 5688 013e 0399     		ldr	r1, [sp, #12]
 5689 0140 A3EB0808 		sub	r8, r3, r8
 5690 0144 A8EB0108 		sub	r8, r8, r1
 5691 0148 0199     		ldr	r1, [sp, #4]
 5692 014a 0329     		cmp	r1, #3
 5693 014c B8FBF7F8 		udiv	r8, r8, r7
 5694 0150 3BD0     		beq	.L1524
 5695 0152 0199     		ldr	r1, [sp, #4]
 5696 0154 0229     		cmp	r1, #2
 5697 0156 40F02382 		bne	.L1438
 5698 015a 4FF6F571 		movw	r1, #65525
 5699 015e 8845     		cmp	r8, r1
 5700 0160 1BD9     		bls	.L1439
 5701 0162 002A     		cmp	r2, #0
 5702 0164 40F0F680 		bne	.L1440
 5703 0168 7F00     		lsls	r7, r7, #1
 5704 016a 402F     		cmp	r7, #64
 5705 016c 40F24A81 		bls	.L1525
 5706 0170 069A     		ldr	r2, [sp, #24]
 5707 0172 002A     		cmp	r2, #0
ARM GAS  /var/folders/sy/x1dkwsgj58j1lmy_hry3vpdm0000gn/T//cc0MFmUD.s 			page 100


 5708 0174 40F03881 		bne	.L1461
 5709 0178 802F     		cmp	r7, #128
 5710 017a 16D8     		bhi	.L1423
 5711 017c 40F6F570 		movw	r0, #4085
 5712 0180 3A46     		mov	r2, r7
 5713 0182 B3FBF7F1 		udiv	r1, r3, r7
 5714 0186 8142     		cmp	r1, r0
 5715 0188 B4D8     		bhi	.L1526
 5716              	.L1434:
 5717 018a 01EB4101 		add	r1, r1, r1, lsl #1
 5718 018e 0120     		movs	r0, #1
 5719 0190 0131     		adds	r1, r1, #1
 5720 0192 0190     		str	r0, [sp, #4]
 5721 0194 4908     		lsrs	r1, r1, #1
 5722 0196 0331     		adds	r1, r1, #3
 5723 0198 B0E7     		b	.L1435
 5724              	.L1439:
 5725 019a 40F6F571 		movw	r1, #4085
 5726 019e 8845     		cmp	r8, r1
 5727 01a0 18D8     		bhi	.L1437
 5728 01a2 12B9     		cbnz	r2, .L1423
 5729 01a4 7A00     		lsls	r2, r7, #1
 5730 01a6 802A     		cmp	r2, #128
 5731 01a8 9AD9     		bls	.L1426
 5732              	.L1423:
 5733 01aa 0E20     		movs	r0, #14
 5734 01ac 0BB0     		add	sp, sp, #44
 5735              		@ sp needed
 5736 01ae BDE8F08F 		pop	{r4, r5, r6, r7, r8, r9, r10, fp, pc}
 5737              	.L1522:
 5738 01b2 1A42     		tst	r2, r3
 5739 01b4 3FF44EAF 		beq	.L1417
 5740 01b8 4AE7     		b	.L1416
 5741              	.L1470:
 5742 01ba 0320     		movs	r0, #3
 5743 01bc 0BB0     		add	sp, sp, #44
 5744              		@ sp needed
 5745 01be BDE8F08F 		pop	{r4, r5, r6, r7, r8, r9, r10, fp, pc}
 5746              	.L1469:
 5747 01c2 0B20     		movs	r0, #11
 5748 01c4 0BB0     		add	sp, sp, #44
 5749              		@ sp needed
 5750 01c6 BDE8F08F 		pop	{r4, r5, r6, r7, r8, r9, r10, fp, pc}
 5751              	.L1524:
 5752 01ca 4FF6F571 		movw	r1, #65525
 5753 01ce 8845     		cmp	r8, r1
 5754 01d0 40F20281 		bls	.L1527
 5755              	.L1437:
 5756 01d4 4FF40072 		mov	r2, #512
 5757 01d8 0021     		movs	r1, #0
 5758 01da 2846     		mov	r0, r5
 5759 01dc 0693     		str	r3, [sp, #24]
 5760 01de FFF7FEFF 		bl	memset
 5761 01e2 DFF838C1 		ldr	ip, .L1534+20
 5762 01e6 05F10B00 		add	r0, r5, #11
 5763 01ea 2A46     		mov	r2, r5
 5764 01ec EB21     		movs	r1, #235
ARM GAS  /var/folders/sy/x1dkwsgj58j1lmy_hry3vpdm0000gn/T//cc0MFmUD.s 			page 101


 5765 01ee 069B     		ldr	r3, [sp, #24]
 5766 01f0 01E0     		b	.L1443
 5767              	.L1528:
 5768 01f2 1CF8011F 		ldrb	r1, [ip, #1]!	@ zero_extendqisi2
 5769              	.L1443:
 5770 01f6 02F8011B 		strb	r1, [r2], #1
 5771 01fa 8242     		cmp	r2, r0
 5772 01fc F9D1     		bne	.L1528
 5773 01fe 019A     		ldr	r2, [sp, #4]
 5774 0200 85F80EB0 		strb	fp, [r5, #14]
 5775 0204 CBF3072B 		ubfx	fp, fp, #8, #8
 5776 0208 032A     		cmp	r2, #3
 5777 020a 4FF00002 		mov	r2, #0
 5778 020e 6F73     		strb	r7, [r5, #13]
 5779 0210 EA72     		strb	r2, [r5, #11]
 5780 0212 18BF     		it	ne
 5781 0214 4FF00209 		movne	r9, #2
 5782 0218 6A74     		strb	r2, [r5, #17]
 5783 021a 0222     		movs	r2, #2
 5784 021c B3F5803F 		cmp	r3, #65536
 5785 0220 85F80FB0 		strb	fp, [r5, #15]
 5786 0224 2A73     		strb	r2, [r5, #12]
 5787 0226 4FF00102 		mov	r2, #1
 5788 022a 85F81290 		strb	r9, [r5, #18]
 5789 022e 2A74     		strb	r2, [r5, #16]
 5790 0230 80F0EA80 		bcs	.L1445
 5791 0234 EB74     		strb	r3, [r5, #19]
 5792 0236 C3F30723 		ubfx	r3, r3, #8, #8
 5793 023a 2B75     		strb	r3, [r5, #20]
 5794              	.L1446:
 5795 023c F823     		movs	r3, #248
 5796 023e 4FF00009 		mov	r9, #0
 5797 0242 6B75     		strb	r3, [r5, #21]
 5798 0244 3F23     		movs	r3, #63
 5799 0246 85F81990 		strb	r9, [r5, #25]
 5800 024a 2B76     		strb	r3, [r5, #24]
 5801 024c FF23     		movs	r3, #255
 5802 024e 85F81B90 		strb	r9, [r5, #27]
 5803 0252 AB76     		strb	r3, [r5, #26]
 5804 0254 5FFA8AF3 		uxtb	r3, r10
 5805 0258 85F81D90 		strb	r9, [r5, #29]
 5806 025c 0693     		str	r3, [sp, #24]
 5807 025e 2B77     		strb	r3, [r5, #28]
 5808 0260 019B     		ldr	r3, [sp, #4]
 5809 0262 85F81E90 		strb	r9, [r5, #30]
 5810 0266 032B     		cmp	r3, #3
 5811 0268 85F81F90 		strb	r9, [r5, #31]
 5812 026c 00F0F080 		beq	.L1529
 5813 0270 FFF7FEFF 		bl	get_fattime
 5814 0274 0299     		ldr	r1, [sp, #8]
 5815 0276 020A     		lsrs	r2, r0, #8
 5816 0278 264B     		ldr	r3, .L1534+12
 5817 027a 85F82700 		strb	r0, [r5, #39]
 5818 027e 85F82820 		strb	r2, [r5, #40]
 5819 0282 020C     		lsrs	r2, r0, #16
 5820 0284 000E     		lsrs	r0, r0, #24
 5821 0286 A975     		strb	r1, [r5, #22]
ARM GAS  /var/folders/sy/x1dkwsgj58j1lmy_hry3vpdm0000gn/T//cc0MFmUD.s 			page 102


 5822 0288 85F82920 		strb	r2, [r5, #41]
 5823 028c C1F30722 		ubfx	r2, r1, #8, #8
 5824 0290 85F82A00 		strb	r0, [r5, #42]
 5825 0294 4E21     		movs	r1, #78
 5826 0296 EA75     		strb	r2, [r5, #23]
 5827 0298 8022     		movs	r2, #128
 5828 029a 03F11200 		add	r0, r3, #18
 5829 029e 85F82420 		strb	r2, [r5, #36]
 5830 02a2 2922     		movs	r2, #41
 5831 02a4 85F82620 		strb	r2, [r5, #38]
 5832 02a8 05F12B02 		add	r2, r5, #43
 5833 02ac 01E0     		b	.L1451
 5834              	.L1530:
 5835 02ae 13F8011F 		ldrb	r1, [r3, #1]!	@ zero_extendqisi2
 5836              	.L1451:
 5837 02b2 9842     		cmp	r0, r3
 5838 02b4 02F8011B 		strb	r1, [r2], #1
 5839 02b8 F9D1     		bne	.L1530
 5840 02ba 5523     		movs	r3, #85
 5841 02bc 2946     		mov	r1, r5
 5842 02be 5246     		mov	r2, r10
 5843 02c0 2046     		mov	r0, r4
 5844 02c2 85F8FE31 		strb	r3, [r5, #510]
 5845 02c6 AA23     		movs	r3, #170
 5846 02c8 85F8FF31 		strb	r3, [r5, #511]
 5847 02cc 0123     		movs	r3, #1
 5848 02ce FFF7FEFF 		bl	disk_write
 5849 02d2 0146     		mov	r1, r0
 5850 02d4 0028     		cmp	r0, #0
 5851 02d6 39D1     		bne	.L1472
 5852 02d8 3246     		mov	r2, r6
 5853 02da 2846     		mov	r0, r5
 5854 02dc FFF7FEFF 		bl	memset
 5855 02e0 019B     		ldr	r3, [sp, #4]
 5856 02e2 012B     		cmp	r3, #1
 5857 02e4 0C4B     		ldr	r3, .L1534+16
 5858 02e6 18BF     		it	ne
 5859 02e8 6FF00703 		mvnne	r3, #7
 5860 02ec 1B0E     		lsrs	r3, r3, #24
 5861 02ee EB70     		strb	r3, [r5, #3]
 5862 02f0 FF23     		movs	r3, #255
 5863 02f2 6B70     		strb	r3, [r5, #1]
 5864 02f4 AB70     		strb	r3, [r5, #2]
 5865 02f6 F823     		movs	r3, #248
 5866 02f8 2B70     		strb	r3, [r5]
 5867              	.L1452:
 5868 02fa 149B     		ldr	r3, [sp, #80]
 5869 02fc DDF80880 		ldr	r8, [sp, #8]
 5870 0300 5E0A     		lsrs	r6, r3, #9
 5871 0302 DDF81490 		ldr	r9, [sp, #20]
 5872 0306 10E0     		b	.L1454
 5873              	.L1535:
 5874              		.align	2
 5875              	.L1534:
 5876 0308 00000000 		.word	.LANCHOR1
 5877 030c 00FEFF00 		.word	16776704
 5878 0310 00FEFFFF 		.word	-512
ARM GAS  /var/folders/sy/x1dkwsgj58j1lmy_hry3vpdm0000gn/T//cc0MFmUD.s 			page 103


 5879 0314 20000000 		.word	.LC4
 5880 0318 F8FFFF00 		.word	16777208
 5881 031c 14000000 		.word	.LC3
 5882              	.L1453:
 5883 0320 FFF7FEFF 		bl	memset
 5884 0324 B8EB0B08 		subs	r8, r8, fp
 5885 0328 7AD0     		beq	.L1531
 5886              	.L1454:
 5887 032a B045     		cmp	r8, r6
 5888 032c C346     		mov	fp, r8
 5889 032e 4A46     		mov	r2, r9
 5890 0330 2946     		mov	r1, r5
 5891 0332 28BF     		it	cs
 5892 0334 B346     		movcs	fp, r6
 5893 0336 2046     		mov	r0, r4
 5894 0338 5B46     		mov	r3, fp
 5895 033a D944     		add	r9, r9, fp
 5896 033c FFF7FEFF 		bl	disk_write
 5897 0340 0146     		mov	r1, r0
 5898 0342 4FF40072 		mov	r2, #512
 5899 0346 2846     		mov	r0, r5
 5900 0348 0029     		cmp	r1, #0
 5901 034a E9D0     		beq	.L1453
 5902              	.L1472:
 5903 034c 0120     		movs	r0, #1
 5904 034e 8EE6     		b	.L1512
 5905              	.L1422:
 5906 0350 8246     		mov	r10, r0
 5907 0352 AEE6     		b	.L1466
 5908              	.L1440:
 5909 0354 0699     		ldr	r1, [sp, #24]
 5910 0356 0029     		cmp	r1, #0
 5911 0358 3FF427AF 		beq	.L1423
 5912              	.L1425:
 5913 035c 002A     		cmp	r2, #0
 5914 035e 43D0     		beq	.L1461
 5915 0360 1146     		mov	r1, r2
 5916              	.L1427:
 5917 0362 BE4F     		ldr	r7, .L1536
 5918 0364 B3FBF2F0 		udiv	r0, r3, r2
 5919 0368 0744     		add	r7, r7, r0
 5920 036a 8000     		lsls	r0, r0, #2
 5921 036c 00F20720 		addw	r0, r0, #519
 5922 0370 400A     		lsrs	r0, r0, #9
 5923 0372 0290     		str	r0, [sp, #8]
 5924 0374 BA48     		ldr	r0, .L1536+4
 5925 0376 8742     		cmp	r7, r0
 5926 0378 3FF617AF 		bhi	.L1423
 5927 037c 1746     		mov	r7, r2
 5928 037e 0A46     		mov	r2, r1
 5929 0380 0321     		movs	r1, #3
 5930 0382 0AF1200E 		add	lr, r10, #32
 5931 0386 DDF820C0 		ldr	ip, [sp, #32]
 5932 038a 0191     		str	r1, [sp, #4]
 5933 038c 0021     		movs	r1, #0
 5934 038e 0CF1FF30 		add	r0, ip, #-1
 5935 0392 CCF10008 		rsb	r8, ip, #0
ARM GAS  /var/folders/sy/x1dkwsgj58j1lmy_hry3vpdm0000gn/T//cc0MFmUD.s 			page 104


 5936 0396 0391     		str	r1, [sp, #12]
 5937 0398 0299     		ldr	r1, [sp, #8]
 5938 039a 7144     		add	r1, r1, lr
 5939 039c 0844     		add	r0, r0, r1
 5940 039e 00EA080B 		and	fp, r0, r8
 5941 03a2 ABEB010B 		sub	fp, fp, r1
 5942 03a6 0EEB0B00 		add	r0, lr, fp
 5943 03aa 0BF1200B 		add	fp, fp, #32
 5944 03ae 0590     		str	r0, [sp, #20]
 5945 03b0 BCE6     		b	.L1465
 5946              	.L1424:
 5947 03b2 FF07     		lsls	r7, r7, #31
 5948 03b4 7FF556AE 		bpl	.L1420
 5949 03b8 90E6     		b	.L1521
 5950              	.L1523:
 5951 03ba 0127     		movs	r7, #1
 5952 03bc 4FEA133E 		lsr	lr, r3, #12
 5953 03c0 A848     		ldr	r0, .L1536+8
 5954 03c2 3946     		mov	r1, r7
 5955 03c4 05E0     		b	.L1432
 5956              	.L1433:
 5957 03c6 30F8021B 		ldrh	r1, [r0], #2
 5958 03ca 7F00     		lsls	r7, r7, #1
 5959 03cc 0029     		cmp	r1, #0
 5960 03ce 3FF48BAE 		beq	.L1431
 5961              	.L1432:
 5962 03d2 7145     		cmp	r1, lr
 5963 03d4 F7D9     		bls	.L1433
 5964 03d6 87E6     		b	.L1431
 5965              	.L1527:
 5966 03d8 002A     		cmp	r2, #0
 5967 03da 7FF4E6AE 		bne	.L1423
 5968 03de 012F     		cmp	r7, #1
 5969 03e0 7FF6E3AE 		bls	.L1423
 5970 03e4 7A08     		lsrs	r2, r7, #1
 5971 03e6 B9E7     		b	.L1425
 5972              	.L1461:
 5973 03e8 0122     		movs	r2, #1
 5974 03ea 5F0C     		lsrs	r7, r3, #17
 5975 03ec 9E48     		ldr	r0, .L1536+12
 5976 03ee 1146     		mov	r1, r2
 5977 03f0 04E0     		b	.L1428
 5978              	.L1429:
 5979 03f2 30F8021B 		ldrh	r1, [r0], #2
 5980 03f6 5200     		lsls	r2, r2, #1
 5981 03f8 0029     		cmp	r1, #0
 5982 03fa B2D0     		beq	.L1427
 5983              	.L1428:
 5984 03fc B942     		cmp	r1, r7
 5985 03fe F8D9     		bls	.L1429
 5986 0400 0021     		movs	r1, #0
 5987 0402 AEE7     		b	.L1427
 5988              	.L1525:
 5989 0404 3A46     		mov	r2, r7
 5990 0406 6BE6     		b	.L1426
 5991              	.L1445:
 5992 0408 1A0A     		lsrs	r2, r3, #8
ARM GAS  /var/folders/sy/x1dkwsgj58j1lmy_hry3vpdm0000gn/T//cc0MFmUD.s 			page 105


 5993 040a 85F82030 		strb	r3, [r5, #32]
 5994 040e 85F82120 		strb	r2, [r5, #33]
 5995 0412 1A0C     		lsrs	r2, r3, #16
 5996 0414 1B0E     		lsrs	r3, r3, #24
 5997 0416 85F82220 		strb	r2, [r5, #34]
 5998 041a 85F82330 		strb	r3, [r5, #35]
 5999 041e 0DE7     		b	.L1446
 6000              	.L1531:
 6001 0420 039B     		ldr	r3, [sp, #12]
 6002 0422 019A     		ldr	r2, [sp, #4]
 6003 0424 032A     		cmp	r2, #3
 6004 0426 18BF     		it	ne
 6005 0428 1F46     		movne	r7, r3
 6006 042a 03E0     		b	.L1457
 6007              	.L1533:
 6008 042c B7EB0807 		subs	r7, r7, r8
 6009 0430 00F0BE80 		beq	.L1532
 6010              	.L1457:
 6011 0434 B742     		cmp	r7, r6
 6012 0436 B846     		mov	r8, r7
 6013 0438 4A46     		mov	r2, r9
 6014 043a 2946     		mov	r1, r5
 6015 043c 28BF     		it	cs
 6016 043e B046     		movcs	r8, r6
 6017 0440 2046     		mov	r0, r4
 6018 0442 4346     		mov	r3, r8
 6019 0444 C144     		add	r9, r9, r8
 6020 0446 FFF7FEFF 		bl	disk_write
 6021 044a 0028     		cmp	r0, #0
 6022 044c EED0     		beq	.L1533
 6023 044e 7DE7     		b	.L1472
 6024              	.L1529:
 6025 0450 FFF7FEFF 		bl	get_fattime
 6026 0454 0299     		ldr	r1, [sp, #8]
 6027 0456 020A     		lsrs	r2, r0, #8
 6028 0458 844B     		ldr	r3, .L1536+16
 6029 045a 85F84300 		strb	r0, [r5, #67]
 6030 045e 85F84420 		strb	r2, [r5, #68]
 6031 0462 020C     		lsrs	r2, r0, #16
 6032 0464 000E     		lsrs	r0, r0, #24
 6033 0466 85F82410 		strb	r1, [r5, #36]
 6034 046a 85F84520 		strb	r2, [r5, #69]
 6035 046e 0A0A     		lsrs	r2, r1, #8
 6036 0470 85F84600 		strb	r0, [r5, #70]
 6037 0474 03F11300 		add	r0, r3, #19
 6038 0478 85F82520 		strb	r2, [r5, #37]
 6039 047c 0A0C     		lsrs	r2, r1, #16
 6040 047e 85F82D90 		strb	r9, [r5, #45]
 6041 0482 85F82620 		strb	r2, [r5, #38]
 6042 0486 0A0E     		lsrs	r2, r1, #24
 6043 0488 85F82E90 		strb	r9, [r5, #46]
 6044 048c 85F82720 		strb	r2, [r5, #39]
 6045 0490 0222     		movs	r2, #2
 6046 0492 85F82F90 		strb	r9, [r5, #47]
 6047 0496 85F82C20 		strb	r2, [r5, #44]
 6048 049a 0122     		movs	r2, #1
 6049 049c 85F83190 		strb	r9, [r5, #49]
ARM GAS  /var/folders/sy/x1dkwsgj58j1lmy_hry3vpdm0000gn/T//cc0MFmUD.s 			page 106


 6050 04a0 85F83020 		strb	r2, [r5, #48]
 6051 04a4 0622     		movs	r2, #6
 6052 04a6 85F83390 		strb	r9, [r5, #51]
 6053 04aa 85F83220 		strb	r2, [r5, #50]
 6054 04ae 8022     		movs	r2, #128
 6055 04b0 85F84020 		strb	r2, [r5, #64]
 6056 04b4 2922     		movs	r2, #41
 6057 04b6 85F84220 		strb	r2, [r5, #66]
 6058 04ba 05F14602 		add	r2, r5, #70
 6059              	.L1448:
 6060 04be 13F8011B 		ldrb	r1, [r3], #1	@ zero_extendqisi2
 6061 04c2 8342     		cmp	r3, r0
 6062 04c4 02F8011F 		strb	r1, [r2, #1]!
 6063 04c8 F9D1     		bne	.L1448
 6064 04ca 4FF05503 		mov	r3, #85
 6065 04ce 4FF0AA0B 		mov	fp, #170
 6066 04d2 5246     		mov	r2, r10
 6067 04d4 2946     		mov	r1, r5
 6068 04d6 85F8FE31 		strb	r3, [r5, #510]
 6069 04da 2046     		mov	r0, r4
 6070 04dc 0123     		movs	r3, #1
 6071 04de 85F8FFB1 		strb	fp, [r5, #511]
 6072 04e2 FFF7FEFF 		bl	disk_write
 6073 04e6 8146     		mov	r9, r0
 6074 04e8 0028     		cmp	r0, #0
 6075 04ea 7FF42FAF 		bne	.L1472
 6076 04ee 0123     		movs	r3, #1
 6077 04f0 0AF10602 		add	r2, r10, #6
 6078 04f4 2946     		mov	r1, r5
 6079 04f6 2046     		mov	r0, r4
 6080 04f8 FFF7FEFF 		bl	disk_write
 6081 04fc 4FF40072 		mov	r2, #512
 6082 0500 4946     		mov	r1, r9
 6083 0502 2846     		mov	r0, r5
 6084 0504 FFF7FEFF 		bl	memset
 6085 0508 4FF05503 		mov	r3, #85
 6086 050c 08F1FF38 		add	r8, r8, #-1
 6087 0510 0AF10702 		add	r2, r10, #7
 6088 0514 85F8FE31 		strb	r3, [r5, #510]
 6089 0518 5223     		movs	r3, #82
 6090 051a 85F8E881 		strb	r8, [r5, #488]
 6091 051e 2946     		mov	r1, r5
 6092 0520 2B70     		strb	r3, [r5]
 6093 0522 2046     		mov	r0, r4
 6094 0524 6B70     		strb	r3, [r5, #1]
 6095 0526 6123     		movs	r3, #97
 6096 0528 85F8FFB1 		strb	fp, [r5, #511]
 6097 052c AB70     		strb	r3, [r5, #2]
 6098 052e 85F8E731 		strb	r3, [r5, #487]
 6099 0532 4123     		movs	r3, #65
 6100 0534 EB70     		strb	r3, [r5, #3]
 6101 0536 85F8E631 		strb	r3, [r5, #486]
 6102 053a 7223     		movs	r3, #114
 6103 053c 85F8E431 		strb	r3, [r5, #484]
 6104 0540 85F8E531 		strb	r3, [r5, #485]
 6105 0544 4FEA1823 		lsr	r3, r8, #8
 6106 0548 85F8E931 		strb	r3, [r5, #489]
ARM GAS  /var/folders/sy/x1dkwsgj58j1lmy_hry3vpdm0000gn/T//cc0MFmUD.s 			page 107


 6107 054c 4FEA1843 		lsr	r3, r8, #16
 6108 0550 4FEA1868 		lsr	r8, r8, #24
 6109 0554 85F8EA31 		strb	r3, [r5, #490]
 6110 0558 0223     		movs	r3, #2
 6111 055a 85F8EB81 		strb	r8, [r5, #491]
 6112 055e 85F8EC31 		strb	r3, [r5, #492]
 6113 0562 0123     		movs	r3, #1
 6114 0564 FFF7FEFF 		bl	disk_write
 6115 0568 0123     		movs	r3, #1
 6116 056a 2946     		mov	r1, r5
 6117 056c 2046     		mov	r0, r4
 6118 056e 0AEB0302 		add	r2, r10, r3
 6119 0572 FFF7FEFF 		bl	disk_write
 6120 0576 3246     		mov	r2, r6
 6121 0578 4946     		mov	r1, r9
 6122 057a 2846     		mov	r0, r5
 6123 057c FFF7FEFF 		bl	memset
 6124 0580 FF23     		movs	r3, #255
 6125 0582 6B70     		strb	r3, [r5, #1]
 6126 0584 AB70     		strb	r3, [r5, #2]
 6127 0586 EB70     		strb	r3, [r5, #3]
 6128 0588 2B71     		strb	r3, [r5, #4]
 6129 058a 6B71     		strb	r3, [r5, #5]
 6130 058c AB71     		strb	r3, [r5, #6]
 6131 058e EB71     		strb	r3, [r5, #7]
 6132 0590 2B72     		strb	r3, [r5, #8]
 6133 0592 6B72     		strb	r3, [r5, #9]
 6134 0594 AB72     		strb	r3, [r5, #10]
 6135 0596 F823     		movs	r3, #248
 6136 0598 2B70     		strb	r3, [r5]
 6137 059a 0F23     		movs	r3, #15
 6138 059c EB72     		strb	r3, [r5, #11]
 6139 059e ACE6     		b	.L1452
 6140              	.L1438:
 6141 05a0 40F6F572 		movw	r2, #4085
 6142 05a4 9045     		cmp	r8, r2
 6143 05a6 3FF600AE 		bhi	.L1423
 6144 05aa 0122     		movs	r2, #1
 6145 05ac 0192     		str	r2, [sp, #4]
 6146 05ae 11E6     		b	.L1437
 6147              	.L1532:
 6148 05b0 019A     		ldr	r2, [sp, #4]
 6149 05b2 032A     		cmp	r2, #3
 6150 05b4 4FD0     		beq	.L1478
 6151 05b6 099B     		ldr	r3, [sp, #36]
 6152 05b8 B3F5803F 		cmp	r3, #65536
 6153 05bc 49D2     		bcs	.L1479
 6154 05be 022A     		cmp	r2, #2
 6155 05c0 0CBF     		ite	eq
 6156 05c2 0426     		moveq	r6, #4
 6157 05c4 0126     		movne	r6, #1
 6158              	.L1458:
 6159 05c6 049B     		ldr	r3, [sp, #16]
 6160 05c8 D3BB     		cbnz	r3, .L1460
 6161 05ca 049F     		ldr	r7, [sp, #16]
 6162 05cc 4FF40072 		mov	r2, #512
 6163 05d0 2846     		mov	r0, r5
ARM GAS  /var/folders/sy/x1dkwsgj58j1lmy_hry3vpdm0000gn/T//cc0MFmUD.s 			page 108


 6164 05d2 3946     		mov	r1, r7
 6165 05d4 FFF7FEFF 		bl	memset
 6166 05d8 0999     		ldr	r1, [sp, #36]
 6167 05da 069B     		ldr	r3, [sp, #24]
 6168 05dc 43F6C160 		movw	r0, #16065
 6169 05e0 85F8CA11 		strb	r1, [r5, #458]
 6170 05e4 3A46     		mov	r2, r7
 6171 05e6 85F8C631 		strb	r3, [r5, #454]
 6172 05ea 01EB0A03 		add	r3, r1, r10
 6173 05ee 85F8C261 		strb	r6, [r5, #450]
 6174 05f2 B3FBF0F3 		udiv	r3, r3, r0
 6175 05f6 85F8C531 		strb	r3, [r5, #453]
 6176 05fa 9B08     		lsrs	r3, r3, #2
 6177 05fc 080C     		lsrs	r0, r1, #16
 6178 05fe 43F03F03 		orr	r3, r3, #63
 6179 0602 85F8CC01 		strb	r0, [r5, #460]
 6180 0606 5520     		movs	r0, #85
 6181 0608 85F8C431 		strb	r3, [r5, #452]
 6182 060c 0B0A     		lsrs	r3, r1, #8
 6183 060e 85F8FE01 		strb	r0, [r5, #510]
 6184 0612 AA20     		movs	r0, #170
 6185 0614 85F8CB31 		strb	r3, [r5, #459]
 6186 0618 0B0E     		lsrs	r3, r1, #24
 6187 061a 85F8FF01 		strb	r0, [r5, #511]
 6188 061e FE20     		movs	r0, #254
 6189 0620 85F8CD31 		strb	r3, [r5, #461]
 6190 0624 0123     		movs	r3, #1
 6191 0626 85F8C301 		strb	r0, [r5, #451]
 6192 062a 2946     		mov	r1, r5
 6193 062c 2046     		mov	r0, r4
 6194 062e 85F8BF31 		strb	r3, [r5, #447]
 6195 0632 85F8C031 		strb	r3, [r5, #448]
 6196 0636 FFF7FEFF 		bl	disk_write
 6197 063a 0028     		cmp	r0, #0
 6198 063c 7FF486AE 		bne	.L1472
 6199              	.L1460:
 6200 0640 0022     		movs	r2, #0
 6201 0642 2046     		mov	r0, r4
 6202 0644 1146     		mov	r1, r2
 6203 0646 FFF7FEFF 		bl	disk_ioctl
 6204 064a 0038     		subs	r0, r0, #0
 6205 064c 18BF     		it	ne
 6206 064e 0120     		movne	r0, #1
 6207 0650 0DE5     		b	.L1512
 6208              	.L1479:
 6209 0652 0626     		movs	r6, #6
 6210 0654 B7E7     		b	.L1458
 6211              	.L1478:
 6212 0656 0C26     		movs	r6, #12
 6213 0658 B5E7     		b	.L1458
 6214              	.L1537:
 6215 065a 00BF     		.align	2
 6216              	.L1536:
 6217 065c 0A00FFFF 		.word	-65526
 6218 0660 FFFFFE0F 		.word	268369919
 6219 0664 02000000 		.word	.LANCHOR7+2
 6220 0668 02000000 		.word	.LANCHOR6+2
ARM GAS  /var/folders/sy/x1dkwsgj58j1lmy_hry3vpdm0000gn/T//cc0MFmUD.s 			page 109


 6221 066c 00000000 		.word	.LC2
 6223              		.section	.text.f_gets,"ax",%progbits
 6224              		.align	1
 6225              		.p2align 2,,3
 6226              		.global	f_gets
 6227              		.syntax unified
 6228              		.thumb
 6229              		.thumb_func
 6230              		.fpu fpv5-d16
 6232              	f_gets:
 6233              		@ args = 0, pretend = 0, frame = 8
 6234              		@ frame_needed = 0, uses_anonymous_args = 0
 6235 0000 2DE9F041 		push	{r4, r5, r6, r7, r8, lr}
 6236 0004 0024     		movs	r4, #0
 6237 0006 82B0     		sub	sp, sp, #8
 6238 0008 8046     		mov	r8, r0
 6239 000a 4F1E     		subs	r7, r1, #1
 6240 000c 1646     		mov	r6, r2
 6241 000e 0546     		mov	r5, r0
 6242              	.L1543:
 6243 0010 BC42     		cmp	r4, r7
 6244 0012 01AB     		add	r3, sp, #4
 6245 0014 4FF00102 		mov	r2, #1
 6246 0018 6946     		mov	r1, sp
 6247 001a 3046     		mov	r0, r6
 6248 001c 14DA     		bge	.L1546
 6249 001e FFF7FEFF 		bl	f_read
 6250 0022 019B     		ldr	r3, [sp, #4]
 6251 0024 012B     		cmp	r3, #1
 6252 0026 0FD1     		bne	.L1546
 6253 0028 9DF80030 		ldrb	r3, [sp]	@ zero_extendqisi2
 6254 002c 0D2B     		cmp	r3, #13
 6255 002e EFD0     		beq	.L1543
 6256 0030 0A2B     		cmp	r3, #10
 6257 0032 04F10104 		add	r4, r4, #1
 6258 0036 05F8013B 		strb	r3, [r5], #1
 6259 003a E9D1     		bne	.L1543
 6260 003c 0023     		movs	r3, #0
 6261 003e 4046     		mov	r0, r8
 6262 0040 2B70     		strb	r3, [r5]
 6263 0042 02B0     		add	sp, sp, #8
 6264              		@ sp needed
 6265 0044 BDE8F081 		pop	{r4, r5, r6, r7, r8, pc}
 6266              	.L1546:
 6267 0048 0023     		movs	r3, #0
 6268 004a 9C42     		cmp	r4, r3
 6269 004c 2B70     		strb	r3, [r5]
 6270 004e 08BF     		it	eq
 6271 0050 9846     		moveq	r8, r3
 6272 0052 4046     		mov	r0, r8
 6273 0054 02B0     		add	sp, sp, #8
 6274              		@ sp needed
 6275 0056 BDE8F081 		pop	{r4, r5, r6, r7, r8, pc}
 6277 005a 00BF     		.section	.text.f_putc,"ax",%progbits
 6278              		.align	1
 6279              		.p2align 2,,3
 6280              		.global	f_putc
ARM GAS  /var/folders/sy/x1dkwsgj58j1lmy_hry3vpdm0000gn/T//cc0MFmUD.s 			page 110


 6281              		.syntax unified
 6282              		.thumb
 6283              		.thumb_func
 6284              		.fpu fpv5-d16
 6286              	f_putc:
 6287              		@ args = 0, pretend = 0, frame = 80
 6288              		@ frame_needed = 0, uses_anonymous_args = 0
 6289 0000 00B5     		push	{lr}
 6290 0002 8446     		mov	ip, r0
 6291 0004 95B0     		sub	sp, sp, #84
 6292 0006 0A46     		mov	r2, r1
 6293 0008 0023     		movs	r3, #0
 6294 000a 01A8     		add	r0, sp, #4
 6295 000c 6146     		mov	r1, ip
 6296 000e 0393     		str	r3, [sp, #12]
 6297 0010 CDE90123 		strd	r2, r3, [sp, #4]
 6298 0014 FFF7FEFF 		bl	putc_bfd
 6299 0018 029A     		ldr	r2, [sp, #8]
 6300 001a 002A     		cmp	r2, #0
 6301 001c 0DDB     		blt	.L1554
 6302 001e 6B46     		mov	r3, sp
 6303 0020 04A9     		add	r1, sp, #16
 6304 0022 0198     		ldr	r0, [sp, #4]
 6305 0024 FFF7FEFF 		bl	f_write
 6306 0028 38B9     		cbnz	r0, .L1554
 6307 002a 029A     		ldr	r2, [sp, #8]
 6308 002c 009B     		ldr	r3, [sp]
 6309 002e 9A42     		cmp	r2, r3
 6310 0030 03D1     		bne	.L1554
 6311 0032 0398     		ldr	r0, [sp, #12]
 6312 0034 15B0     		add	sp, sp, #84
 6313              		@ sp needed
 6314 0036 5DF804FB 		ldr	pc, [sp], #4
 6315              	.L1554:
 6316 003a 4FF0FF30 		mov	r0, #-1
 6317 003e 15B0     		add	sp, sp, #84
 6318              		@ sp needed
 6319 0040 5DF804FB 		ldr	pc, [sp], #4
 6321              		.section	.text.f_puts,"ax",%progbits
 6322              		.align	1
 6323              		.p2align 2,,3
 6324              		.global	f_puts
 6325              		.syntax unified
 6326              		.thumb
 6327              		.thumb_func
 6328              		.fpu fpv5-d16
 6330              	f_puts:
 6331              		@ args = 0, pretend = 0, frame = 80
 6332              		@ frame_needed = 0, uses_anonymous_args = 0
 6333 0000 70B5     		push	{r4, r5, r6, lr}
 6334 0002 0023     		movs	r3, #0
 6335 0004 94B0     		sub	sp, sp, #80
 6336 0006 0478     		ldrb	r4, [r0]	@ zero_extendqisi2
 6337 0008 0646     		mov	r6, r0
 6338 000a 0191     		str	r1, [sp, #4]
 6339 000c CDE90233 		strd	r3, r3, [sp, #8]
 6340 0010 3CB9     		cbnz	r4, .L1562
ARM GAS  /var/folders/sy/x1dkwsgj58j1lmy_hry3vpdm0000gn/T//cc0MFmUD.s 			page 111


 6341 0012 38E0     		b	.L1566
 6342              	.L1561:
 6343 0014 039B     		ldr	r3, [sp, #12]
 6344 0016 0295     		str	r5, [sp, #8]
 6345 0018 0133     		adds	r3, r3, #1
 6346 001a 0393     		str	r3, [sp, #12]
 6347              	.L1560:
 6348 001c 16F8014F 		ldrb	r4, [r6, #1]!	@ zero_extendqisi2
 6349 0020 ECB1     		cbz	r4, .L1569
 6350              	.L1562:
 6351 0022 0A2C     		cmp	r4, #10
 6352 0024 16D0     		beq	.L1570
 6353              	.L1558:
 6354 0026 029B     		ldr	r3, [sp, #8]
 6355 0028 14AA     		add	r2, sp, #80
 6356 002a 002B     		cmp	r3, #0
 6357 002c 03F10105 		add	r5, r3, #1
 6358 0030 1A44     		add	r2, r2, r3
 6359 0032 F3DB     		blt	.L1560
 6360 0034 3C2D     		cmp	r5, #60
 6361 0036 02F8404C 		strb	r4, [r2, #-64]
 6362 003a EBDD     		ble	.L1561
 6363 003c 2A46     		mov	r2, r5
 6364 003e 6B46     		mov	r3, sp
 6365 0040 04A9     		add	r1, sp, #16
 6366 0042 0198     		ldr	r0, [sp, #4]
 6367 0044 FFF7FEFF 		bl	f_write
 6368 0048 009B     		ldr	r3, [sp]
 6369 004a 5D1B     		subs	r5, r3, r5
 6370 004c 18BF     		it	ne
 6371 004e 4FF0FF35 		movne	r5, #-1
 6372 0052 DFE7     		b	.L1561
 6373              	.L1570:
 6374 0054 0D21     		movs	r1, #13
 6375 0056 01A8     		add	r0, sp, #4
 6376 0058 FFF7FEFF 		bl	putc_bfd
 6377 005c E3E7     		b	.L1558
 6378              	.L1569:
 6379 005e 029A     		ldr	r2, [sp, #8]
 6380 0060 002A     		cmp	r2, #0
 6381 0062 0CDB     		blt	.L1565
 6382 0064 0198     		ldr	r0, [sp, #4]
 6383              	.L1557:
 6384 0066 6B46     		mov	r3, sp
 6385 0068 04A9     		add	r1, sp, #16
 6386 006a FFF7FEFF 		bl	f_write
 6387 006e 30B9     		cbnz	r0, .L1565
 6388 0070 029A     		ldr	r2, [sp, #8]
 6389 0072 009B     		ldr	r3, [sp]
 6390 0074 9A42     		cmp	r2, r3
 6391 0076 02D1     		bne	.L1565
 6392 0078 0398     		ldr	r0, [sp, #12]
 6393 007a 14B0     		add	sp, sp, #80
 6394              		@ sp needed
 6395 007c 70BD     		pop	{r4, r5, r6, pc}
 6396              	.L1565:
 6397 007e 4FF0FF30 		mov	r0, #-1
ARM GAS  /var/folders/sy/x1dkwsgj58j1lmy_hry3vpdm0000gn/T//cc0MFmUD.s 			page 112


 6398 0082 14B0     		add	sp, sp, #80
 6399              		@ sp needed
 6400 0084 70BD     		pop	{r4, r5, r6, pc}
 6401              	.L1566:
 6402 0086 0846     		mov	r0, r1
 6403 0088 2246     		mov	r2, r4
 6404 008a ECE7     		b	.L1557
 6406              		.section	.text.f_printf,"ax",%progbits
 6407              		.align	1
 6408              		.p2align 2,,3
 6409              		.global	f_printf
 6410              		.syntax unified
 6411              		.thumb
 6412              		.thumb_func
 6413              		.fpu fpv5-d16
 6415              	f_printf:
 6416              		@ args = 4, pretend = 12, frame = 128
 6417              		@ frame_needed = 0, uses_anonymous_args = 1
 6418 0000 0EB4     		push	{r1, r2, r3}
 6419 0002 2DE9F04F 		push	{r4, r5, r6, r7, r8, r9, r10, fp, lr}
 6420 0006 A0B0     		sub	sp, sp, #128
 6421 0008 0023     		movs	r3, #0
 6422 000a 29AA     		add	r2, sp, #164
 6423 000c 0F93     		str	r3, [sp, #60]
 6424 000e 52F8047B 		ldr	r7, [r2], #4
 6425 0012 CDE90D03 		strd	r0, r3, [sp, #52]
 6426 0016 3B46     		mov	r3, r7
 6427 0018 0392     		str	r2, [sp, #12]
 6428 001a 13F8011B 		ldrb	r1, [r3], #1	@ zero_extendqisi2
 6429 001e 49B9     		cbnz	r1, .L1573
 6430 0020 59E0     		b	.L1572
 6431              	.L1670:
 6432 0022 0DA8     		add	r0, sp, #52
 6433 0024 1F46     		mov	r7, r3
 6434 0026 FFF7FEFF 		bl	putc_bfd
 6435              	.L1575:
 6436 002a 3B46     		mov	r3, r7
 6437 002c 13F8011B 		ldrb	r1, [r3], #1	@ zero_extendqisi2
 6438 0030 0029     		cmp	r1, #0
 6439 0032 50D0     		beq	.L1572
 6440              	.L1573:
 6441 0034 2529     		cmp	r1, #37
 6442 0036 F4D1     		bne	.L1670
 6443 0038 7978     		ldrb	r1, [r7, #1]	@ zero_extendqisi2
 6444 003a 3029     		cmp	r1, #48
 6445 003c 00F02481 		beq	.L1671
 6446 0040 2D29     		cmp	r1, #45
 6447 0042 00F02581 		beq	.L1672
 6448 0046 0237     		adds	r7, r7, #2
 6449 0048 0020     		movs	r0, #0
 6450              	.L1577:
 6451 004a A1F13003 		sub	r3, r1, #48
 6452 004e 0024     		movs	r4, #0
 6453 0050 092B     		cmp	r3, #9
 6454 0052 0AD8     		bhi	.L1580
 6455              	.L1579:
 6456 0054 04EB8404 		add	r4, r4, r4, lsl #2
ARM GAS  /var/folders/sy/x1dkwsgj58j1lmy_hry3vpdm0000gn/T//cc0MFmUD.s 			page 113


 6457 0058 01EB4404 		add	r4, r1, r4, lsl #1
 6458 005c 17F8011B 		ldrb	r1, [r7], #1	@ zero_extendqisi2
 6459 0060 A1F13003 		sub	r3, r1, #48
 6460 0064 303C     		subs	r4, r4, #48
 6461 0066 092B     		cmp	r3, #9
 6462 0068 F4D9     		bls	.L1579
 6463              	.L1580:
 6464 006a 01F0DF03 		and	r3, r1, #223
 6465 006e 4C2B     		cmp	r3, #76
 6466 0070 03D1     		bne	.L1581
 6467 0072 40F00400 		orr	r0, r0, #4
 6468 0076 17F8011B 		ldrb	r1, [r7], #1	@ zero_extendqisi2
 6469              	.L1581:
 6470 007a 61B3     		cbz	r1, .L1572
 6471 007c A1F16103 		sub	r3, r1, #97
 6472 0080 192B     		cmp	r3, #25
 6473 0082 00F2FF80 		bhi	.L1622
 6474 0086 A1F12005 		sub	r5, r1, #32
 6475 008a EDB2     		uxtb	r5, r5
 6476              	.L1582:
 6477 008c A5F14203 		sub	r3, r5, #66
 6478 0090 162B     		cmp	r3, #22
 6479 0092 18D8     		bhi	.L1583
 6480 0094 DFE813F0 		tbh	[pc, r3, lsl #1]
 6481              	.L1585:
 6482 0098 0801     		.2byte	(.L1623-.L1585)/2
 6483 009a 4900     		.2byte	(.L1589-.L1585)/2
 6484 009c 3600     		.2byte	(.L1586-.L1585)/2
 6485 009e 1700     		.2byte	(.L1583-.L1585)/2
 6486 00a0 1700     		.2byte	(.L1583-.L1585)/2
 6487 00a2 1700     		.2byte	(.L1583-.L1585)/2
 6488 00a4 1700     		.2byte	(.L1583-.L1585)/2
 6489 00a6 1700     		.2byte	(.L1583-.L1585)/2
 6490 00a8 1700     		.2byte	(.L1583-.L1585)/2
 6491 00aa 1700     		.2byte	(.L1583-.L1585)/2
 6492 00ac 1700     		.2byte	(.L1583-.L1585)/2
 6493 00ae 1700     		.2byte	(.L1583-.L1585)/2
 6494 00b0 1700     		.2byte	(.L1583-.L1585)/2
 6495 00b2 7E00     		.2byte	(.L1588-.L1585)/2
 6496 00b4 1700     		.2byte	(.L1583-.L1585)/2
 6497 00b6 1700     		.2byte	(.L1583-.L1585)/2
 6498 00b8 1700     		.2byte	(.L1583-.L1585)/2
 6499 00ba 5100     		.2byte	(.L1587-.L1585)/2
 6500 00bc 1700     		.2byte	(.L1583-.L1585)/2
 6501 00be 3600     		.2byte	(.L1586-.L1585)/2
 6502 00c0 1700     		.2byte	(.L1583-.L1585)/2
 6503 00c2 1700     		.2byte	(.L1583-.L1585)/2
 6504 00c4 0A01     		.2byte	(.L1584-.L1585)/2
 6505              		.p2align 1
 6506              	.L1583:
 6507 00c6 0DA8     		add	r0, sp, #52
 6508 00c8 FFF7FEFF 		bl	putc_bfd
 6509 00cc 3B46     		mov	r3, r7
 6510 00ce 13F8011B 		ldrb	r1, [r3], #1	@ zero_extendqisi2
 6511 00d2 0029     		cmp	r1, #0
 6512 00d4 AED1     		bne	.L1573
 6513              	.L1572:
ARM GAS  /var/folders/sy/x1dkwsgj58j1lmy_hry3vpdm0000gn/T//cc0MFmUD.s 			page 114


 6514 00d6 0E9A     		ldr	r2, [sp, #56]
 6515 00d8 002A     		cmp	r2, #0
 6516 00da C0F21581 		blt	.L1615
 6517 00de 04AB     		add	r3, sp, #16
 6518 00e0 10A9     		add	r1, sp, #64
 6519 00e2 0D98     		ldr	r0, [sp, #52]
 6520 00e4 FFF7FEFF 		bl	f_write
 6521 00e8 0028     		cmp	r0, #0
 6522 00ea 40F00D81 		bne	.L1615
 6523 00ee 0E9A     		ldr	r2, [sp, #56]
 6524 00f0 049B     		ldr	r3, [sp, #16]
 6525 00f2 9A42     		cmp	r2, r3
 6526 00f4 40F00881 		bne	.L1615
 6527 00f8 0F98     		ldr	r0, [sp, #60]
 6528 00fa 20B0     		add	sp, sp, #128
 6529              		@ sp needed
 6530 00fc BDE8F04F 		pop	{r4, r5, r6, r7, r8, r9, r10, fp, lr}
 6531 0100 03B0     		add	sp, sp, #12
 6532 0102 7047     		bx	lr
 6533              	.L1586:
 6534 0104 4207     		lsls	r2, r0, #29
 6535 0106 00F1D380 		bmi	.L1673
 6536 010a 442D     		cmp	r5, #68
 6537 010c 40F0C480 		bne	.L1625
 6538 0110 039B     		ldr	r3, [sp, #12]
 6539 0112 442D     		cmp	r5, #68
 6540 0114 4FF00A02 		mov	r2, #10
 6541 0118 03F10406 		add	r6, r3, #4
 6542 011c 0396     		str	r6, [sp, #12]
 6543 011e 1E68     		ldr	r6, [r3]
 6544 0120 3346     		mov	r3, r6
 6545 0122 42D0     		beq	.L1674
 6546              	.L1626:
 6547 0124 4FF00008 		mov	r8, #0
 6548 0128 46E0     		b	.L1602
 6549              	.L1589:
 6550 012a 039B     		ldr	r3, [sp, #12]
 6551 012c 0DA8     		add	r0, sp, #52
 6552 012e 1A1D     		adds	r2, r3, #4
 6553 0130 1978     		ldrb	r1, [r3]	@ zero_extendqisi2
 6554 0132 0392     		str	r2, [sp, #12]
 6555 0134 FFF7FEFF 		bl	putc_bfd
 6556 0138 77E7     		b	.L1575
 6557              	.L1587:
 6558 013a 039B     		ldr	r3, [sp, #12]
 6559 013c 1E68     		ldr	r6, [r3]
 6560 013e 0433     		adds	r3, r3, #4
 6561 0140 3178     		ldrb	r1, [r6]	@ zero_extendqisi2
 6562 0142 0393     		str	r3, [sp, #12]
 6563 0144 0029     		cmp	r1, #0
 6564 0146 00F0E680 		beq	.L1591
 6565 014a 3346     		mov	r3, r6
 6566 014c C6F10105 		rsb	r5, r6, #1
 6567              	.L1592:
 6568 0150 05EB0308 		add	r8, r5, r3
 6569 0154 13F8012F 		ldrb	r2, [r3, #1]!	@ zero_extendqisi2
 6570 0158 002A     		cmp	r2, #0
ARM GAS  /var/folders/sy/x1dkwsgj58j1lmy_hry3vpdm0000gn/T//cc0MFmUD.s 			page 115


 6571 015a F9D1     		bne	.L1592
 6572 015c 8007     		lsls	r0, r0, #30
 6573 015e 40F1A980 		bpl	.L1675
 6574 0162 08F10105 		add	r5, r8, #1
 6575 0166 0DF1340B 		add	fp, sp, #52
 6576              	.L1597:
 6577 016a 5846     		mov	r0, fp
 6578 016c FFF7FEFF 		bl	putc_bfd
 6579 0170 16F8011F 		ldrb	r1, [r6, #1]!	@ zero_extendqisi2
 6580 0174 0029     		cmp	r1, #0
 6581 0176 F8D1     		bne	.L1597
 6582              	.L1596:
 6583 0178 A045     		cmp	r8, r4
 6584 017a BFF456AF 		bcs	.L1575
 6585 017e 0DF1340B 		add	fp, sp, #52
 6586              	.L1598:
 6587 0182 2021     		movs	r1, #32
 6588 0184 5846     		mov	r0, fp
 6589 0186 FFF7FEFF 		bl	putc_bfd
 6590 018a AC42     		cmp	r4, r5
 6591 018c 05F10105 		add	r5, r5, #1
 6592 0190 F7D8     		bhi	.L1598
 6593 0192 4AE7     		b	.L1575
 6594              	.L1588:
 6595 0194 0822     		movs	r2, #8
 6596              	.L1669:
 6597 0196 4307     		lsls	r3, r0, #29
 6598 0198 7FD5     		bpl	.L1601
 6599              	.L1616:
 6600 019a 039B     		ldr	r3, [sp, #12]
 6601 019c 442D     		cmp	r5, #68
 6602 019e 03F10406 		add	r6, r3, #4
 6603 01a2 0396     		str	r6, [sp, #12]
 6604 01a4 1E68     		ldr	r6, [r3]
 6605 01a6 3346     		mov	r3, r6
 6606 01a8 BCD1     		bne	.L1626
 6607              	.L1674:
 6608 01aa 002E     		cmp	r6, #0
 6609 01ac BADA     		bge	.L1626
 6610 01ae 7342     		rsbs	r3, r6, #0
 6611 01b0 40F00800 		orr	r0, r0, #8
 6612 01b4 4FF00808 		mov	r8, #8
 6613              	.L1602:
 6614 01b8 7829     		cmp	r1, #120
 6615 01ba 0DF11409 		add	r9, sp, #20
 6616 01be 4FF0000C 		mov	ip, #0
 6617 01c2 0CBF     		ite	eq
 6618 01c4 4FF0270A 		moveq	r10, #39
 6619 01c8 4FF0070A 		movne	r10, #7
 6620 01cc 4946     		mov	r1, r9
 6621 01ce 00E0     		b	.L1604
 6622              	.L1627:
 6623 01d0 B446     		mov	ip, r6
 6624              	.L1604:
 6625 01d2 9E46     		mov	lr, r3
 6626 01d4 0CF10106 		add	r6, ip, #1
 6627 01d8 B3FBF2F5 		udiv	r5, r3, r2
ARM GAS  /var/folders/sy/x1dkwsgj58j1lmy_hry3vpdm0000gn/T//cc0MFmUD.s 			page 116


 6628 01dc 02FB153B 		mls	fp, r2, r5, r3
 6629 01e0 2B46     		mov	r3, r5
 6630 01e2 5FFA8BF5 		uxtb	r5, fp
 6631 01e6 BBF1090F 		cmp	fp, #9
 6632 01ea 0AEB050B 		add	fp, r10, r5
 6633 01ee 88BF     		it	hi
 6634 01f0 5FFA8BF5 		uxtbhi	r5, fp
 6635 01f4 9645     		cmp	lr, r2
 6636 01f6 05F13005 		add	r5, r5, #48
 6637 01fa EDB2     		uxtb	r5, r5
 6638 01fc 01F8015B 		strb	r5, [r1], #1
 6639 0200 01D3     		bcc	.L1633
 6640 0202 1F2E     		cmp	r6, #31
 6641 0204 E4D9     		bls	.L1627
 6642              	.L1633:
 6643 0206 B8F1000F 		cmp	r8, #0
 6644 020a 08D0     		beq	.L1606
 6645 020c 20AB     		add	r3, sp, #128
 6646 020e 4FF02D02 		mov	r2, #45
 6647 0212 2D25     		movs	r5, #45
 6648 0214 3344     		add	r3, r3, r6
 6649 0216 0CF10206 		add	r6, ip, #2
 6650 021a 03F86C2C 		strb	r2, [r3, #-108]
 6651              	.L1606:
 6652 021e 10F0010F 		tst	r0, #1
 6653 0222 14BF     		ite	ne
 6654 0224 4FF03008 		movne	r8, #48
 6655 0228 4FF02008 		moveq	r8, #32
 6656 022c 8307     		lsls	r3, r0, #30
 6657 022e 62D4     		bmi	.L1629
 6658 0230 A642     		cmp	r6, r4
 6659 0232 06F1010A 		add	r10, r6, #1
 6660 0236 62D2     		bcs	.L1630
 6661 0238 631C     		adds	r3, r4, #1
 6662 023a 0DF1340B 		add	fp, sp, #52
 6663 023e 0193     		str	r3, [sp, #4]
 6664              	.L1609:
 6665 0240 4146     		mov	r1, r8
 6666 0242 5846     		mov	r0, fp
 6667 0244 FFF7FEFF 		bl	putc_bfd
 6668 0248 5445     		cmp	r4, r10
 6669 024a 0AF1010A 		add	r10, r10, #1
 6670 024e F7D1     		bne	.L1609
 6671              	.L1608:
 6672 0250 013E     		subs	r6, r6, #1
 6673 0252 2946     		mov	r1, r5
 6674 0254 4E44     		add	r6, r6, r9
 6675 0256 01E0     		b	.L1611
 6676              	.L1676:
 6677 0258 16F8011D 		ldrb	r1, [r6, #-1]!	@ zero_extendqisi2
 6678              	.L1611:
 6679 025c 5846     		mov	r0, fp
