ARM GAS  /var/folders/sy/x1dkwsgj58j1lmy_hry3vpdm0000gn/T//ccfKzTGQ.s 			page 1


   1              		.cpu cortex-m7
   2              		.eabi_attribute 28, 1
   3              		.eabi_attribute 20, 1
   4              		.eabi_attribute 21, 1
   5              		.eabi_attribute 23, 3
   6              		.eabi_attribute 24, 1
   7              		.eabi_attribute 25, 1
   8              		.eabi_attribute 26, 1
   9              		.eabi_attribute 30, 2
  10              		.eabi_attribute 34, 1
  11              		.eabi_attribute 18, 4
  12              		.file	"ff_gen_drv.c"
  13              		.text
  14              		.section	.text.FATFS_LinkDriverEx,"ax",%progbits
  15              		.align	1
  16              		.p2align 2,,3
  17              		.global	FATFS_LinkDriverEx
  18              		.arch armv7e-m
  19              		.syntax unified
  20              		.thumb
  21              		.thumb_func
  22              		.fpu fpv5-d16
  24              	FATFS_LinkDriverEx:
  25              		@ args = 0, pretend = 0, frame = 0
  26              		@ frame_needed = 0, uses_anonymous_args = 0
  27              		@ link register save eliminated.
  28 0000 0F4B     		ldr	r3, .L6
  29 0002 30B4     		push	{r4, r5}
  30 0004 5D7A     		ldrb	r5, [r3, #9]	@ zero_extendqisi2
  31 0006 C5B9     		cbnz	r5, .L3
  32 0008 0446     		mov	r4, r0
  33 000a 05F0FF00 		and	r0, r5, #255
  34 000e 5D7A     		ldrb	r5, [r3, #9]	@ zero_extendqisi2
  35 0010 5855     		strb	r0, [r3, r5]
  36 0012 5D7A     		ldrb	r5, [r3, #9]	@ zero_extendqisi2
  37 0014 03EB8505 		add	r5, r3, r5, lsl #2
  38 0018 6C60     		str	r4, [r5, #4]
  39 001a 5C7A     		ldrb	r4, [r3, #9]	@ zero_extendqisi2
  40 001c 1C44     		add	r4, r4, r3
  41 001e 2272     		strb	r2, [r4, #8]
  42 0020 5A7A     		ldrb	r2, [r3, #9]	@ zero_extendqisi2
  43 0022 541C     		adds	r4, r2, #1
  44 0024 3032     		adds	r2, r2, #48
  45 0026 E4B2     		uxtb	r4, r4
  46 0028 5C72     		strb	r4, [r3, #9]
  47 002a 3A24     		movs	r4, #58
  48 002c 2F23     		movs	r3, #47
  49 002e 0A70     		strb	r2, [r1]
  50 0030 4C70     		strb	r4, [r1, #1]
  51 0032 C870     		strb	r0, [r1, #3]
  52 0034 8B70     		strb	r3, [r1, #2]
  53 0036 30BC     		pop	{r4, r5}
  54 0038 7047     		bx	lr
  55              	.L3:
  56 003a 0120     		movs	r0, #1
  57 003c 30BC     		pop	{r4, r5}
  58 003e 7047     		bx	lr
ARM GAS  /var/folders/sy/x1dkwsgj58j1lmy_hry3vpdm0000gn/T//ccfKzTGQ.s 			page 2


  59              	.L7:
  60              		.align	2
  61              	.L6:
  62 0040 00000000 		.word	.LANCHOR0
  64              		.section	.text.FATFS_LinkDriver,"ax",%progbits
  65              		.align	1
  66              		.p2align 2,,3
  67              		.global	FATFS_LinkDriver
  68              		.syntax unified
  69              		.thumb
  70              		.thumb_func
  71              		.fpu fpv5-d16
  73              	FATFS_LinkDriver:
  74              		@ args = 0, pretend = 0, frame = 0
  75              		@ frame_needed = 0, uses_anonymous_args = 0
  76              		@ link register save eliminated.
  77 0000 104B     		ldr	r3, .L12
  78 0002 10B4     		push	{r4}
  79 0004 5C7A     		ldrb	r4, [r3, #9]	@ zero_extendqisi2
  80 0006 CCB9     		cbnz	r4, .L10
  81 0008 0246     		mov	r2, r0
  82 000a 04F0FF00 		and	r0, r4, #255
  83 000e 5C7A     		ldrb	r4, [r3, #9]	@ zero_extendqisi2
  84 0010 1855     		strb	r0, [r3, r4]
  85 0012 5C7A     		ldrb	r4, [r3, #9]	@ zero_extendqisi2
  86 0014 03EB8404 		add	r4, r3, r4, lsl #2
  87 0018 6260     		str	r2, [r4, #4]
  88 001a 5C7A     		ldrb	r4, [r3, #9]	@ zero_extendqisi2
  89 001c 5A7A     		ldrb	r2, [r3, #9]	@ zero_extendqisi2
  90 001e 1C44     		add	r4, r4, r3
  91 0020 2072     		strb	r0, [r4, #8]
  92 0022 541C     		adds	r4, r2, #1
  93 0024 3032     		adds	r2, r2, #48
  94 0026 E4B2     		uxtb	r4, r4
  95 0028 5C72     		strb	r4, [r3, #9]
  96 002a 3A24     		movs	r4, #58
  97 002c 2F23     		movs	r3, #47
  98 002e 0A70     		strb	r2, [r1]
  99 0030 4C70     		strb	r4, [r1, #1]
 100 0032 C870     		strb	r0, [r1, #3]
 101 0034 5DF8044B 		ldr	r4, [sp], #4
 102 0038 8B70     		strb	r3, [r1, #2]
 103 003a 7047     		bx	lr
 104              	.L10:
 105 003c 0120     		movs	r0, #1
 106 003e 5DF8044B 		ldr	r4, [sp], #4
 107 0042 7047     		bx	lr
 108              	.L13:
 109              		.align	2
 110              	.L12:
 111 0044 00000000 		.word	.LANCHOR0
 113              		.section	.text.FATFS_UnLinkDriverEx,"ax",%progbits
 114              		.align	1
 115              		.p2align 2,,3
 116              		.global	FATFS_UnLinkDriverEx
 117              		.syntax unified
 118              		.thumb
ARM GAS  /var/folders/sy/x1dkwsgj58j1lmy_hry3vpdm0000gn/T//ccfKzTGQ.s 			page 3


 119              		.thumb_func
 120              		.fpu fpv5-d16
 122              	FATFS_UnLinkDriverEx:
 123              		@ args = 0, pretend = 0, frame = 0
 124              		@ frame_needed = 0, uses_anonymous_args = 0
 125              		@ link register save eliminated.
 126 0000 0C4A     		ldr	r2, .L22
 127 0002 537A     		ldrb	r3, [r2, #9]	@ zero_extendqisi2
 128 0004 9BB1     		cbz	r3, .L17
 129 0006 0378     		ldrb	r3, [r0]	@ zero_extendqisi2
 130 0008 303B     		subs	r3, r3, #48
 131 000a DBB2     		uxtb	r3, r3
 132 000c 02EB8300 		add	r0, r2, r3, lsl #2
 133 0010 4168     		ldr	r1, [r0, #4]
 134 0012 61B1     		cbz	r1, .L17
 135 0014 1344     		add	r3, r3, r2
 136 0016 10B4     		push	{r4}
 137 0018 517A     		ldrb	r1, [r2, #9]	@ zero_extendqisi2
 138 001a 0024     		movs	r4, #0
 139 001c 0139     		subs	r1, r1, #1
 140 001e 1C72     		strb	r4, [r3, #8]
 141 0020 4460     		str	r4, [r0, #4]
 142 0022 2046     		mov	r0, r4
 143 0024 CBB2     		uxtb	r3, r1
 144 0026 5372     		strb	r3, [r2, #9]
 145 0028 5DF8044B 		ldr	r4, [sp], #4
 146 002c 7047     		bx	lr
 147              	.L17:
 148 002e 0120     		movs	r0, #1
 149 0030 7047     		bx	lr
 150              	.L23:
 151 0032 00BF     		.align	2
 152              	.L22:
 153 0034 00000000 		.word	.LANCHOR0
 155              		.section	.text.FATFS_UnLinkDriver,"ax",%progbits
 156              		.align	1
 157              		.p2align 2,,3
 158              		.global	FATFS_UnLinkDriver
 159              		.syntax unified
 160              		.thumb
 161              		.thumb_func
 162              		.fpu fpv5-d16
 164              	FATFS_UnLinkDriver:
 165              		@ args = 0, pretend = 0, frame = 0
 166              		@ frame_needed = 0, uses_anonymous_args = 0
 167              		@ link register save eliminated.
 168 0000 0C4A     		ldr	r2, .L32
 169 0002 537A     		ldrb	r3, [r2, #9]	@ zero_extendqisi2
 170 0004 9BB1     		cbz	r3, .L27
 171 0006 0378     		ldrb	r3, [r0]	@ zero_extendqisi2
 172 0008 303B     		subs	r3, r3, #48
 173 000a DBB2     		uxtb	r3, r3
 174 000c 02EB8300 		add	r0, r2, r3, lsl #2
 175 0010 4168     		ldr	r1, [r0, #4]
 176 0012 61B1     		cbz	r1, .L27
 177 0014 1344     		add	r3, r3, r2
 178 0016 10B4     		push	{r4}
ARM GAS  /var/folders/sy/x1dkwsgj58j1lmy_hry3vpdm0000gn/T//ccfKzTGQ.s 			page 4


 179 0018 517A     		ldrb	r1, [r2, #9]	@ zero_extendqisi2
 180 001a 0024     		movs	r4, #0
 181 001c 0139     		subs	r1, r1, #1
 182 001e 1C72     		strb	r4, [r3, #8]
 183 0020 4460     		str	r4, [r0, #4]
 184 0022 2046     		mov	r0, r4
 185 0024 CBB2     		uxtb	r3, r1
 186 0026 5372     		strb	r3, [r2, #9]
 187 0028 5DF8044B 		ldr	r4, [sp], #4
 188 002c 7047     		bx	lr
 189              	.L27:
 190 002e 0120     		movs	r0, #1
 191 0030 7047     		bx	lr
 192              	.L33:
 193 0032 00BF     		.align	2
 194              	.L32:
 195 0034 00000000 		.word	.LANCHOR0
 197              		.section	.text.FATFS_GetAttachedDriversNbr,"ax",%progbits
 198              		.align	1
 199              		.p2align 2,,3
 200              		.global	FATFS_GetAttachedDriversNbr
 201              		.syntax unified
 202              		.thumb
 203              		.thumb_func
 204              		.fpu fpv5-d16
 206              	FATFS_GetAttachedDriversNbr:
 207              		@ args = 0, pretend = 0, frame = 0
 208              		@ frame_needed = 0, uses_anonymous_args = 0
 209              		@ link register save eliminated.
 210 0000 014B     		ldr	r3, .L35
 211 0002 587A     		ldrb	r0, [r3, #9]	@ zero_extendqisi2
 212 0004 7047     		bx	lr
 213              	.L36:
 214 0006 00BF     		.align	2
 215              	.L35:
 216 0008 00000000 		.word	.LANCHOR0
 218              		.global	disk
 219              		.section	.bss.disk,"aw",%nobits
 220              		.align	2
 221              		.set	.LANCHOR0,. + 0
 224              	disk:
 225 0000 00000000 		.space	12
 225      00000000 
 225      00000000 
 226              		.ident	"GCC: (GNU Arm Embedded Toolchain 10-2020-q4-major) 10.2.1 20201103 (release)"
ARM GAS  /var/folders/sy/x1dkwsgj58j1lmy_hry3vpdm0000gn/T//ccfKzTGQ.s 			page 5

