ARM GAS  /var/folders/sy/x1dkwsgj58j1lmy_hry3vpdm0000gn/T//cch4V49g.s 			page 1


   1              		.cpu cortex-m7
   2              		.eabi_attribute 28, 1
   3              		.eabi_attribute 20, 1
   4              		.eabi_attribute 21, 1
   5              		.eabi_attribute 23, 3
   6              		.eabi_attribute 24, 1
   7              		.eabi_attribute 25, 1
   8              		.eabi_attribute 26, 1
   9              		.eabi_attribute 30, 2
  10              		.eabi_attribute 34, 1
  11              		.eabi_attribute 18, 4
  12              		.file	"main.cpp"
  13              		.text
  14              		.section	.text._ZN5daisy11MidiHandlerD2Ev,"axG",%progbits,_ZN5daisy11MidiHandlerD5Ev,comdat
  15              		.align	1
  16              		.p2align 2,,3
  17              		.weak	_ZN5daisy11MidiHandlerD2Ev
  18              		.arch armv7e-m
  19              		.syntax unified
  20              		.thumb
  21              		.thumb_func
  22              		.fpu fpv5-d16
  24              	_ZN5daisy11MidiHandlerD2Ev:
  25              		@ args = 0, pretend = 0, frame = 0
  26              		@ frame_needed = 0, uses_anonymous_args = 0
  27              		@ link register save eliminated.
  28 0000 7047     		bx	lr
  30              		.weak	_ZN5daisy11MidiHandlerD1Ev
  31              		.thumb_set _ZN5daisy11MidiHandlerD1Ev,_ZN5daisy11MidiHandlerD2Ev
  32 0002 00BF     		.section	.text._Z21ModulationSourceEnterP10ScreenNode,"ax",%progbits
  33              		.align	1
  34              		.p2align 2,,3
  35              		.global	_Z21ModulationSourceEnterP10ScreenNode
  36              		.syntax unified
  37              		.thumb
  38              		.thumb_func
  39              		.fpu fpv5-d16
  41              	_Z21ModulationSourceEnterP10ScreenNode:
  42              		@ args = 0, pretend = 0, frame = 0
  43              		@ frame_needed = 0, uses_anonymous_args = 0
  44              		@ link register save eliminated.
  45 0000 024B     		ldr	r3, .L4
  46 0002 4268     		ldr	r2, [r0, #4]
  47 0004 C3F8102D 		str	r2, [r3, #3344]
  48 0008 7047     		bx	lr
  49              	.L5:
  50 000a 00BF     		.align	2
  51              	.L4:
  52 000c 00000000 		.word	.LANCHOR0
  54              		.section	.text._Z20ModulationSourceBackP10ScreenNode,"ax",%progbits
  55              		.align	1
  56              		.p2align 2,,3
  57              		.global	_Z20ModulationSourceBackP10ScreenNode
  58              		.syntax unified
  59              		.thumb
  60              		.thumb_func
  61              		.fpu fpv5-d16
ARM GAS  /var/folders/sy/x1dkwsgj58j1lmy_hry3vpdm0000gn/T//cch4V49g.s 			page 2


  63              	_Z20ModulationSourceBackP10ScreenNode:
  64              		@ args = 0, pretend = 0, frame = 0
  65              		@ frame_needed = 0, uses_anonymous_args = 0
  66              		@ link register save eliminated.
  67 0000 024B     		ldr	r3, .L7
  68 0002 0022     		movs	r2, #0
  69 0004 C3F8102D 		str	r2, [r3, #3344]
  70 0008 7047     		bx	lr
  71              	.L8:
  72 000a 00BF     		.align	2
  73              	.L7:
  74 000c 00000000 		.word	.LANCHOR0
  76              		.section	.text._Z26ModulationDestinationEnterP10ScreenNode,"ax",%progbits
  77              		.align	1
  78              		.p2align 2,,3
  79              		.global	_Z26ModulationDestinationEnterP10ScreenNode
  80              		.syntax unified
  81              		.thumb
  82              		.thumb_func
  83              		.fpu fpv5-d16
  85              	_Z26ModulationDestinationEnterP10ScreenNode:
  86              		@ args = 0, pretend = 0, frame = 0
  87              		@ frame_needed = 0, uses_anonymous_args = 0
  88              		@ link register save eliminated.
  89 0000 024B     		ldr	r3, .L10
  90 0002 4268     		ldr	r2, [r0, #4]
  91 0004 C3F80C2D 		str	r2, [r3, #3340]
  92 0008 7047     		bx	lr
  93              	.L11:
  94 000a 00BF     		.align	2
  95              	.L10:
  96 000c 00000000 		.word	.LANCHOR0
  98              		.section	.text._Z25ModulationDestinationBackP10ScreenNode,"ax",%progbits
  99              		.align	1
 100              		.p2align 2,,3
 101              		.global	_Z25ModulationDestinationBackP10ScreenNode
 102              		.syntax unified
 103              		.thumb
 104              		.thumb_func
 105              		.fpu fpv5-d16
 107              	_Z25ModulationDestinationBackP10ScreenNode:
 108              		@ args = 0, pretend = 0, frame = 0
 109              		@ frame_needed = 0, uses_anonymous_args = 0
 110              		@ link register save eliminated.
 111 0000 024B     		ldr	r3, .L13
 112 0002 0022     		movs	r2, #0
 113 0004 C3F80C2D 		str	r2, [r3, #3340]
 114 0008 7047     		bx	lr
 115              	.L14:
 116 000a 00BF     		.align	2
 117              	.L13:
 118 000c 00000000 		.word	.LANCHOR0
 120              		.section	.text._ZN3LFO6UpdateEv,"ax",%progbits
 121              		.align	1
 122              		.p2align 2,,3
 123              		.global	_ZN3LFO6UpdateEv
 124              		.syntax unified
ARM GAS  /var/folders/sy/x1dkwsgj58j1lmy_hry3vpdm0000gn/T//cch4V49g.s 			page 3


 125              		.thumb
 126              		.thumb_func
 127              		.fpu fpv5-d16
 129              	_ZN3LFO6UpdateEv:
 130              		@ args = 0, pretend = 0, frame = 0
 131              		@ frame_needed = 0, uses_anonymous_args = 0
 132              		@ link register save eliminated.
 133 0000 7047     		bx	lr
 135              		.global	_ZN10MonoEngine3EndEv
 136              		.thumb_set _ZN10MonoEngine3EndEv,_ZN3LFO6UpdateEv
 137 0002 00BF     		.section	.text._ZN7GlobalsD2Ev,"axG",%progbits,_ZN7GlobalsD5Ev,comdat
 138              		.align	1
 139              		.p2align 2,,3
 140              		.weak	_ZN7GlobalsD2Ev
 141              		.syntax unified
 142              		.thumb
 143              		.thumb_func
 144              		.fpu fpv5-d16
 146              	_ZN7GlobalsD2Ev:
 147              		@ args = 0, pretend = 0, frame = 0
 148              		@ frame_needed = 0, uses_anonymous_args = 0
 149              		@ link register save eliminated.
 150 0000 7047     		bx	lr
 152              		.weak	_ZN7GlobalsD1Ev
 153              		.thumb_set _ZN7GlobalsD1Ev,_ZN7GlobalsD2Ev
 154 0002 00BF     		.section	.text._ZN14WaveMorphParam10RenderFillEPN5daisy10DaisyPatchE,"axG",%progbits,_ZN14WaveMorp
 155              		.align	1
 156              		.p2align 2,,3
 157              		.weak	_ZN14WaveMorphParam10RenderFillEPN5daisy10DaisyPatchE
 158              		.syntax unified
 159              		.thumb
 160              		.thumb_func
 161              		.fpu fpv5-d16
 163              	_ZN14WaveMorphParam10RenderFillEPN5daisy10DaisyPatchE:
 164              		@ args = 0, pretend = 0, frame = 0
 165              		@ frame_needed = 0, uses_anonymous_args = 0
 166 0000 2DE9F843 		push	{r3, r4, r5, r6, r7, r8, r9, lr}
 167 0004 0026     		movs	r6, #0
 168 0006 4FF0FF34 		mov	r4, #-1
 169 000a 8146     		mov	r9, r0
 170 000c 01F6F848 		addw	r8, r1, #3320
 171              	.L22:
 172 0010 07EE906A 		vmov	s15, r6	@ int
 173 0014 B6EE007A 		vmov.f32	s14, #5.0e-1
 174 0018 DFED230A 		vldr.32	s1, .L28
 175 001c F8EEE77A 		vcvt.f32.s32	s15, s15
 176 0020 99ED030A 		vldr.32	s0, [r9, #12]
 177 0024 D9E91223 		ldrd	r2, r3, [r9, #72]
 178 0028 77EE877A 		vadd.f32	s15, s15, s14
 179 002c 67EEA07A 		vmul.f32	s15, s15, s1
 180 0030 BBB3     		cbz	r3, .L23
 181 0032 D3ED030A 		vldr.32	s1, [r3, #12]
 182              	.L18:
 183 0036 77EEA00A 		vadd.f32	s1, s15, s1
 184 003a 9047     		blx	r2
 185 003c B7EE006A 		vmov.f32	s12, #1.0e+0
 186 0040 B6EE007A 		vmov.f32	s14, #5.0e-1
ARM GAS  /var/folders/sy/x1dkwsgj58j1lmy_hry3vpdm0000gn/T//cch4V49g.s 			page 4


 187 0044 DFED196A 		vldr.32	s13, .L28+4
 188 0048 DFED197A 		vldr.32	s15, .L28+8
 189 004c 002C     		cmp	r4, #0
 190 004e 30EE060A 		vadd.f32	s0, s0, s12
 191 0052 27EE407A 		vnmul.f32	s14, s14, s0
 192 0056 E7EE267A 		vfma.f32	s15, s14, s13
 193 005a FDEEE77A 		vcvt.s32.f32	s15, s15
 194 005e 17EE905A 		vmov	r5, s15	@ int
 195 0062 12DD     		ble	.L19
 196 0064 A542     		cmp	r5, r4
 197 0066 CCBF     		ite	gt
 198 0068 0127     		movgt	r7, #1
 199 006a 4FF0FF37 		movle	r7, #-1
 200              	.L21:
 201 006e 2246     		mov	r2, r4
 202 0070 0123     		movs	r3, #1
 203 0072 3146     		mov	r1, r6
 204 0074 4046     		mov	r0, r8
 205 0076 FFF7FEFF 		bl	_ZN5daisy11OledDisplay9DrawPixelEjjb
 206 007a AC42     		cmp	r4, r5
 207 007c 3C44     		add	r4, r4, r7
 208 007e F6D1     		bne	.L21
 209 0080 0136     		adds	r6, r6, #1
 210 0082 802E     		cmp	r6, #128
 211 0084 0BD0     		beq	.L27
 212              	.L24:
 213 0086 2C46     		mov	r4, r5
 214 0088 C2E7     		b	.L22
 215              	.L19:
 216 008a 3146     		mov	r1, r6
 217 008c 0136     		adds	r6, r6, #1
 218 008e 0123     		movs	r3, #1
 219 0090 17EE902A 		vmov	r2, s15	@ int
 220 0094 4046     		mov	r0, r8
 221 0096 FFF7FEFF 		bl	_ZN5daisy11OledDisplay9DrawPixelEjjb
 222 009a 802E     		cmp	r6, #128
 223 009c F3D1     		bne	.L24
 224              	.L27:
 225 009e BDE8F883 		pop	{r3, r4, r5, r6, r7, r8, r9, pc}
 226              	.L23:
 227 00a2 DFED040A 		vldr.32	s1, .L28+12
 228 00a6 C6E7     		b	.L18
 229              	.L29:
 230              		.align	2
 231              	.L28:
 232 00a8 0000003C 		.word	1006632960
 233 00ac 00004042 		.word	1111490560
 234 00b0 00007842 		.word	1115160576
 235 00b4 00000000 		.word	0
 237              		.section	.text._ZN22LinearFillNumericParam10RenderFillEPN5daisy10DaisyPatchE,"axG",%progbits,_ZN22
 238              		.align	1
 239              		.p2align 2,,3
 240              		.weak	_ZN22LinearFillNumericParam10RenderFillEPN5daisy10DaisyPatchE
 241              		.syntax unified
 242              		.thumb
 243              		.thumb_func
 244              		.fpu fpv5-d16
ARM GAS  /var/folders/sy/x1dkwsgj58j1lmy_hry3vpdm0000gn/T//cch4V49g.s 			page 5


 246              	_ZN22LinearFillNumericParam10RenderFillEPN5daisy10DaisyPatchE:
 247              		@ args = 0, pretend = 0, frame = 0
 248              		@ frame_needed = 0, uses_anonymous_args = 0
 249 0000 D0ED037A 		vldr.32	s15, [r0, #12]
 250 0004 90ED017A 		vldr.32	s14, [r0, #4]
 251 0008 B4EEE77A 		vcmpe.f32	s14, s15
 252 000c 2DE9F041 		push	{r4, r5, r6, r7, r8, lr}
 253 0010 F1EE10FA 		vmrs	APSR_nzcv, FPSCR
 254 0014 0F46     		mov	r7, r1
 255 0016 08DA     		bge	.L31
 256 0018 D0ED026A 		vldr.32	s13, [r0, #8]
 257 001c F4EEE76A 		vcmpe.f32	s13, s15
 258 0020 F1EE10FA 		vmrs	APSR_nzcv, FPSCR
 259 0024 23D8     		bhi	.L39
 260 0026 B0EE667A 		vmov.f32	s14, s13
 261              	.L31:
 262 002a 174B     		ldr	r3, .L42
 263 002c 4FF00A08 		mov	r8, #10
 264 0030 0025     		movs	r5, #0
 265 0032 D3ED007A 		vldr.32	s15, [r3]	@ int
 266 0036 F8EEE77A 		vcvt.f32.s32	s15, s15
 267 003a 67EE877A 		vmul.f32	s15, s15, s14
 268 003e F8FE677A 		vrinta.f32	s15, s15
 269 0042 FDEEE77A 		vcvt.s32.f32	s15, s15
 270 0046 17EE906A 		vmov	r6, s15	@ int
 271              	.L34:
 272 004a 0024     		movs	r4, #0
 273 004c 03E0     		b	.L33
 274              	.L41:
 275 004e FFF7FEFF 		bl	_ZN5daisy11OledDisplay9DrawPixelEjjb
 276 0052 802C     		cmp	r4, #128
 277 0054 12D0     		beq	.L40
 278              	.L33:
 279 0056 0123     		movs	r3, #1
 280 0058 AE42     		cmp	r6, r5
 281 005a 2146     		mov	r1, r4
 282 005c 4246     		mov	r2, r8
 283 005e 04F10104 		add	r4, r4, #1
 284 0062 07F6F840 		addw	r0, r7, #3320
 285 0066 1D44     		add	r5, r5, r3
 286 0068 F1DC     		bgt	.L41
 287              	.L30:
 288 006a BDE8F081 		pop	{r4, r5, r6, r7, r8, pc}
 289              	.L39:
 290 006e 77EEC77A 		vsub.f32	s15, s15, s14
 291 0072 76EEC76A 		vsub.f32	s13, s13, s14
 292 0076 87EEA67A 		vdiv.f32	s14, s15, s13
 293 007a D6E7     		b	.L31
 294              	.L40:
 295 007c 08F10108 		add	r8, r8, #1
 296 0080 B8F14A0F 		cmp	r8, #74
 297 0084 E1D1     		bne	.L34
 298 0086 F0E7     		b	.L30
 299              	.L43:
 300              		.align	2
 301              	.L42:
 302 0088 00000000 		.word	.LANCHOR1
ARM GAS  /var/folders/sy/x1dkwsgj58j1lmy_hry3vpdm0000gn/T//cch4V49g.s 			page 6


 304              		.section	.rodata._ZNSt7__cxx1112basic_stringIcSt11char_traitsIcESaIcEEC2EPKcRKS3_.constprop.0.str1
 305              		.align	2
 306              	.LC0:
 307 0000 62617369 		.ascii	"basic_string::_M_construct null not valid\000"
 307      635F7374 
 307      72696E67 
 307      3A3A5F4D 
 307      5F636F6E 
 308              		.section	.text._ZNSt7__cxx1112basic_stringIcSt11char_traitsIcESaIcEEC2EPKcRKS3_.constprop.0,"ax",%
 309              		.align	1
 310              		.p2align 2,,3
 311              		.syntax unified
 312              		.thumb
 313              		.thumb_func
 314              		.fpu fpv5-d16
 316              	_ZNSt7__cxx1112basic_stringIcSt11char_traitsIcESaIcEEC2EPKcRKS3_.constprop.0:
 317              		@ args = 0, pretend = 0, frame = 8
 318              		@ frame_needed = 0, uses_anonymous_args = 0
 319 0000 F0B5     		push	{r4, r5, r6, r7, lr}
 320 0002 00F10807 		add	r7, r0, #8
 321 0006 83B0     		sub	sp, sp, #12
 322 0008 0760     		str	r7, [r0]
 323 000a 31B3     		cbz	r1, .L45
 324 000c 0446     		mov	r4, r0
 325 000e 0846     		mov	r0, r1
 326 0010 0E46     		mov	r6, r1
 327 0012 FFF7FEFF 		bl	strlen
 328 0016 0F28     		cmp	r0, #15
 329 0018 0546     		mov	r5, r0
 330 001a 0190     		str	r0, [sp, #4]
 331 001c 0CD8     		bhi	.L56
 332 001e 0128     		cmp	r0, #1
 333 0020 07D1     		bne	.L49
 334 0022 3378     		ldrb	r3, [r6]	@ zero_extendqisi2
 335 0024 2372     		strb	r3, [r4, #8]
 336              	.L50:
 337 0026 0023     		movs	r3, #0
 338 0028 2046     		mov	r0, r4
 339 002a 6560     		str	r5, [r4, #4]
 340 002c 7B55     		strb	r3, [r7, r5]
 341 002e 03B0     		add	sp, sp, #12
 342              		@ sp needed
 343 0030 F0BD     		pop	{r4, r5, r6, r7, pc}
 344              	.L49:
 345 0032 0028     		cmp	r0, #0
 346 0034 F7D0     		beq	.L50
 347 0036 08E0     		b	.L48
 348              	.L56:
 349 0038 0022     		movs	r2, #0
 350 003a 01A9     		add	r1, sp, #4
 351 003c 2046     		mov	r0, r4
 352 003e FFF7FEFF 		bl	_ZNSt7__cxx1112basic_stringIcSt11char_traitsIcESaIcEE9_M_createERjj
 353 0042 019B     		ldr	r3, [sp, #4]
 354 0044 0746     		mov	r7, r0
 355 0046 2060     		str	r0, [r4]
 356 0048 A360     		str	r3, [r4, #8]
 357              	.L48:
ARM GAS  /var/folders/sy/x1dkwsgj58j1lmy_hry3vpdm0000gn/T//cch4V49g.s 			page 7


 358 004a 2A46     		mov	r2, r5
 359 004c 3846     		mov	r0, r7
 360 004e 3146     		mov	r1, r6
 361 0050 FFF7FEFF 		bl	memcpy
 362 0054 019D     		ldr	r5, [sp, #4]
 363 0056 2768     		ldr	r7, [r4]
 364 0058 E5E7     		b	.L50
 365              	.L45:
 366 005a 0148     		ldr	r0, .L57
 367 005c FFF7FEFF 		bl	_ZSt19__throw_logic_errorPKc
 368              	.L58:
 369              		.align	2
 370              	.L57:
 371 0060 00000000 		.word	.LC0
 373              		.section	.text._ZNSt7__cxx1112basic_stringIcSt11char_traitsIcESaIcEE12_M_constructIPcEEvT_S7_St20f
 374              		.align	1
 375              		.p2align 2,,3
 376              		.syntax unified
 377              		.thumb
 378              		.thumb_func
 379              		.fpu fpv5-d16
 381              	_ZNSt7__cxx1112basic_stringIcSt11char_traitsIcESaIcEE12_M_constructIPcEEvT_S7_St20forward_iterator_
 382              		@ args = 0, pretend = 0, frame = 8
 383              		@ frame_needed = 0, uses_anonymous_args = 0
 384 0000 70B5     		push	{r4, r5, r6, lr}
 385 0002 0546     		mov	r5, r0
 386 0004 82B0     		sub	sp, sp, #8
 387 0006 0E46     		mov	r6, r1
 388 0008 02B1     		cbz	r2, .L60
 389 000a 41B3     		cbz	r1, .L76
 390              	.L60:
 391 000c 941B     		subs	r4, r2, r6
 392 000e 0F2C     		cmp	r4, #15
 393 0010 0194     		str	r4, [sp, #4]
 394 0012 11D8     		bhi	.L77
 395 0014 012C     		cmp	r4, #1
 396 0016 2868     		ldr	r0, [r5]
 397 0018 08D1     		bne	.L63
 398 001a 3378     		ldrb	r3, [r6]	@ zero_extendqisi2
 399 001c 0370     		strb	r3, [r0]
 400 001e 0023     		movs	r3, #0
 401 0020 019C     		ldr	r4, [sp, #4]
 402 0022 2868     		ldr	r0, [r5]
 403 0024 6C60     		str	r4, [r5, #4]
 404 0026 0355     		strb	r3, [r0, r4]
 405 0028 02B0     		add	sp, sp, #8
 406              		@ sp needed
 407 002a 70BD     		pop	{r4, r5, r6, pc}
 408              	.L63:
 409 002c 64B9     		cbnz	r4, .L62
 410 002e 0023     		movs	r3, #0
 411 0030 6C60     		str	r4, [r5, #4]
 412 0032 0355     		strb	r3, [r0, r4]
 413 0034 02B0     		add	sp, sp, #8
 414              		@ sp needed
 415 0036 70BD     		pop	{r4, r5, r6, pc}
 416              	.L77:
ARM GAS  /var/folders/sy/x1dkwsgj58j1lmy_hry3vpdm0000gn/T//cch4V49g.s 			page 8


 417 0038 0022     		movs	r2, #0
 418 003a 01A9     		add	r1, sp, #4
 419 003c 2846     		mov	r0, r5
 420 003e FFF7FEFF 		bl	_ZNSt7__cxx1112basic_stringIcSt11char_traitsIcESaIcEE9_M_createERjj
 421 0042 019B     		ldr	r3, [sp, #4]
 422 0044 2860     		str	r0, [r5]
 423 0046 AB60     		str	r3, [r5, #8]
 424              	.L62:
 425 0048 2246     		mov	r2, r4
 426 004a 3146     		mov	r1, r6
 427 004c FFF7FEFF 		bl	memcpy
 428 0050 019C     		ldr	r4, [sp, #4]
 429 0052 2868     		ldr	r0, [r5]
 430 0054 0023     		movs	r3, #0
 431 0056 6C60     		str	r4, [r5, #4]
 432 0058 0355     		strb	r3, [r0, r4]
 433 005a 02B0     		add	sp, sp, #8
 434              		@ sp needed
 435 005c 70BD     		pop	{r4, r5, r6, pc}
 436              	.L76:
 437 005e 0148     		ldr	r0, .L78
 438 0060 FFF7FEFF 		bl	_ZSt19__throw_logic_errorPKc
 439              	.L79:
 440              		.align	2
 441              	.L78:
 442 0064 00000000 		.word	.LC0
 444              		.section	.text._ZN16ModulationSource7SetMenuEP9MenuState,"ax",%progbits
 445              		.align	1
 446              		.p2align 2,,3
 447              		.global	_ZN16ModulationSource7SetMenuEP9MenuState
 448              		.syntax unified
 449              		.thumb
 450              		.thumb_func
 451              		.fpu fpv5-d16
 453              	_ZN16ModulationSource7SetMenuEP9MenuState:
 454              		@ args = 0, pretend = 0, frame = 32
 455              		@ frame_needed = 0, uses_anonymous_args = 0
 456 0000 2DE9F04F 		push	{r4, r5, r6, r7, r8, r9, r10, fp, lr}
 457 0004 8146     		mov	r9, r0
 458 0006 89B0     		sub	sp, sp, #36
 459 0008 01F5C473 		add	r3, r1, #392
 460 000c 01F13808 		add	r8, r1, #56
 461 0010 59F8245F 		ldr	r5, [r9, #36]!
 462 0014 0193     		str	r3, [sp, #4]
 463              	.L85:
 464 0016 A8F13804 		sub	r4, r8, #56
 465              	.L84:
 466 001a A945     		cmp	r9, r5
 467 001c 1DD0     		beq	.L81
 468 001e AB68     		ldr	r3, [r5, #8]
 469 0020 04AF     		add	r7, sp, #16
 470 0022 02A8     		add	r0, sp, #8
 471 0024 C3B1     		cbz	r3, .L82
 472 0026 6668     		ldr	r6, [r4, #4]
 473 0028 0297     		str	r7, [sp, #8]
 474 002a D3E90112 		ldrd	r1, r2, [r3, #4]
 475 002e 0A44     		add	r2, r2, r1
ARM GAS  /var/folders/sy/x1dkwsgj58j1lmy_hry3vpdm0000gn/T//cch4V49g.s 			page 9


 476 0030 FFF7FEFF 		bl	_ZNSt7__cxx1112basic_stringIcSt11char_traitsIcESaIcEE12_M_constructIPcEEvT_S7_St20forward_itera
 477 0034 AB68     		ldr	r3, [r5, #8]
 478 0036 3046     		mov	r0, r6
 479 0038 02A9     		add	r1, sp, #8
 480 003a D3F81CB0 		ldr	fp, [r3, #28]
 481 003e D3F82CA0 		ldr	r10, [r3, #44]
 482 0042 FFF7FEFF 		bl	_ZNSt7__cxx1112basic_stringIcSt11char_traitsIcESaIcEE9_M_assignERKS4_
 483 0046 0298     		ldr	r0, [sp, #8]
 484 0048 B842     		cmp	r0, r7
 485 004a C6E906BA 		strd	fp, r10, [r6, #24]
 486 004e 03D0     		beq	.L82
 487 0050 0499     		ldr	r1, [sp, #16]
 488 0052 0131     		adds	r1, r1, #1
 489 0054 FFF7FEFF 		bl	_ZdlPvj
 490              	.L82:
 491 0058 2D68     		ldr	r5, [r5]
 492              	.L81:
 493 005a 0434     		adds	r4, r4, #4
 494 005c 4445     		cmp	r4, r8
 495 005e DCD1     		bne	.L84
 496 0060 04F13808 		add	r8, r4, #56
 497 0064 019B     		ldr	r3, [sp, #4]
 498 0066 4345     		cmp	r3, r8
 499 0068 D5D1     		bne	.L85
 500 006a 09B0     		add	sp, sp, #36
 501              		@ sp needed
 502 006c BDE8F08F 		pop	{r4, r5, r6, r7, r8, r9, r10, fp, pc}
 504              		.section	.text._ZL4Backv,"ax",%progbits
 505              		.align	1
 506              		.p2align 2,,3
 507              		.syntax unified
 508              		.thumb
 509              		.thumb_func
 510              		.fpu fpv5-d16
 512              	_ZL4Backv:
 513              		@ args = 0, pretend = 0, frame = 0
 514              		@ frame_needed = 0, uses_anonymous_args = 0
 515 0000 70B5     		push	{r4, r5, r6, lr}
 516 0002 294D     		ldr	r5, .L123
 517 0004 294E     		ldr	r6, .L123+4
 518 0006 2B68     		ldr	r3, [r5]
 519              	.L101:
 520 0008 DA69     		ldr	r2, [r3, #28]
 521 000a 0AB1     		cbz	r2, .L93
 522 000c 1846     		mov	r0, r3
 523 000e 9047     		blx	r2
 524              	.L93:
 525 0010 3268     		ldr	r2, [r6]
 526 0012 9368     		ldr	r3, [r2, #8]
 527 0014 002B     		cmp	r3, #0
 528 0016 41D0     		beq	.L92
 529 0018 1468     		ldr	r4, [r2]
 530 001a 013B     		subs	r3, r3, #1
 531 001c A168     		ldr	r1, [r4, #8]
 532 001e 2046     		mov	r0, r4
 533 0020 9360     		str	r3, [r2, #8]
 534 0022 2960     		str	r1, [r5]
ARM GAS  /var/folders/sy/x1dkwsgj58j1lmy_hry3vpdm0000gn/T//cch4V49g.s 			page 10


 535 0024 FFF7FEFF 		bl	_ZNSt8__detail15_List_node_base9_M_unhookEv
 536 0028 2046     		mov	r0, r4
 537 002a 0C21     		movs	r1, #12
 538 002c FFF7FEFF 		bl	_ZdlPvj
 539 0030 2B68     		ldr	r3, [r5]
 540 0032 9868     		ldr	r0, [r3, #8]
 541 0034 98B1     		cbz	r0, .L95
 542 0036 1E4C     		ldr	r4, .L123+8
 543 0038 D4F8142D 		ldr	r2, [r4, #3348]
 544 003c 9042     		cmp	r0, r2
 545 003e 0ED0     		beq	.L95
 546 0040 22B1     		cbz	r2, .L96
 547 0042 1368     		ldr	r3, [r2]
 548 0044 1B49     		ldr	r1, .L123+12
 549 0046 DB68     		ldr	r3, [r3, #12]
 550 0048 8B42     		cmp	r3, r1
 551 004a 28D1     		bne	.L122
 552              	.L96:
 553 004c 0368     		ldr	r3, [r0]
 554 004e 1A4A     		ldr	r2, .L123+16
 555 0050 9B68     		ldr	r3, [r3, #8]
 556 0052 92ED000A 		vldr.32	s0, [r2]
 557 0056 C4F8140D 		str	r0, [r4, #3348]
 558 005a 9847     		blx	r3
 559 005c 2B68     		ldr	r3, [r5]
 560              	.L95:
 561 005e 5868     		ldr	r0, [r3, #4]
 562 0060 B8B1     		cbz	r0, .L97
 563 0062 164A     		ldr	r2, .L123+20
 564 0064 1B6A     		ldr	r3, [r3, #32]
 565 0066 1168     		ldr	r1, [r2]
 566 0068 01F5A87C 		add	ip, r1, #336
 567 006c 01F5C47E 		add	lr, r1, #392
 568 0070 0B60     		str	r3, [r1]
 569              	.L99:
 570 0072 ACF5A873 		sub	r3, ip, #336
 571              	.L98:
 572 0076 5A68     		ldr	r2, [r3, #4]
 573 0078 3833     		adds	r3, r3, #56
 574 007a 0024     		movs	r4, #0
 575 007c 9C45     		cmp	ip, r3
 576 007e D461     		str	r4, [r2, #28]
 577 0080 F9D1     		bne	.L98
 578 0082 0CF1040C 		add	ip, ip, #4
 579 0086 F445     		cmp	ip, lr
 580 0088 F3D1     		bne	.L99
 581 008a 0368     		ldr	r3, [r0]
 582 008c 1B68     		ldr	r3, [r3]
 583 008e 9847     		blx	r3
 584 0090 2B68     		ldr	r3, [r5]
 585              	.L97:
 586 0092 5A69     		ldr	r2, [r3, #20]
 587 0094 12B1     		cbz	r2, .L92
 588 0096 D26A     		ldr	r2, [r2, #44]
 589 0098 002A     		cmp	r2, #0
 590 009a B5D0     		beq	.L101
 591              	.L92:
ARM GAS  /var/folders/sy/x1dkwsgj58j1lmy_hry3vpdm0000gn/T//cch4V49g.s 			page 11


 592 009c 70BD     		pop	{r4, r5, r6, pc}
 593              	.L122:
 594 009e 1046     		mov	r0, r2
 595 00a0 9847     		blx	r3
 596 00a2 2B68     		ldr	r3, [r5]
 597 00a4 9868     		ldr	r0, [r3, #8]
 598 00a6 D1E7     		b	.L96
 599              	.L124:
 600              		.align	2
 601              	.L123:
 602 00a8 00000000 		.word	.LANCHOR2
 603 00ac 00000000 		.word	.LANCHOR3
 604 00b0 00000000 		.word	.LANCHOR0
 605 00b4 00000000 		.word	_ZN3LFO6UpdateEv
 606 00b8 00000000 		.word	.LANCHOR4
 607 00bc 00000000 		.word	.LANCHOR5
 609              		.section	.text._ZN10MonoEngine17HandleMidiMessageEN5daisy9MidiEventE,"ax",%progbits
 610              		.align	1
 611              		.p2align 2,,3
 612              		.global	_ZN10MonoEngine17HandleMidiMessageEN5daisy9MidiEventE
 613              		.syntax unified
 614              		.thumb
 615              		.thumb_func
 616              		.fpu fpv5-d16
 618              	_ZN10MonoEngine17HandleMidiMessageEN5daisy9MidiEventE:
 619              		@ args = 0, pretend = 0, frame = 16
 620              		@ frame_needed = 0, uses_anonymous_args = 0
 621 0000 2DE9F041 		push	{r4, r5, r6, r7, r8, lr}
 622 0004 2DED028B 		vpush.64	{d8}
 623 0008 84B0     		sub	sp, sp, #16
 624 000a 0546     		mov	r5, r0
 625 000c 04AC     		add	r4, sp, #16
 626 000e 04E90E00 		stmdb	r4, {r1, r2, r3}
 627 0012 9DF80430 		ldrb	r3, [sp, #4]	@ zero_extendqisi2
 628 0016 9DF80C60 		ldrb	r6, [sp, #12]	@ zero_extendqisi2
 629 001a 012B     		cmp	r3, #1
 630 001c 53D0     		beq	.L145
 631 001e ABB3     		cbz	r3, .L146
 632 0020 052B     		cmp	r3, #5
 633 0022 16D1     		bne	.L144
 634 0024 07EE906A 		vmov	s15, r6	@ int
 635 0028 DFED356A 		vldr.32	s13, .L147
 636 002c D0F8EC21 		ldr	r2, [r0, #492]
 637 0030 F8EEE77A 		vcvt.f32.s32	s15, s15
 638 0034 1146     		mov	r1, r2
 639 0036 87EEA67A 		vdiv.f32	s14, s15, s13
 640 003a 51F8243F 		ldr	r3, [r1, #36]!
 641 003e 8B42     		cmp	r3, r1
 642 0040 82ED0D7A 		vstr.32	s14, [r2, #52]
 643 0044 05D0     		beq	.L144
 644              	.L133:
 645 0046 9A68     		ldr	r2, [r3, #8]
 646 0048 1B68     		ldr	r3, [r3]
 647 004a 82ED0C7A 		vstr.32	s14, [r2, #48]
 648 004e 8B42     		cmp	r3, r1
 649 0050 F9D1     		bne	.L133
 650              	.L144:
ARM GAS  /var/folders/sy/x1dkwsgj58j1lmy_hry3vpdm0000gn/T//cch4V49g.s 			page 12


 651 0052 D5F80C22 		ldr	r2, [r5, #524]
 652              	.L127:
 653 0056 D5F8E031 		ldr	r3, [r5, #480]
 654 005a F7EE007A 		vmov.f32	s15, #1.0e+0
 655 005e 002A     		cmp	r2, #0
 656 0060 9FED287A 		vldr.32	s14, .L147+4
 657 0064 1946     		mov	r1, r3
 658 0066 47FE277A 		vseleq.f32	s15, s14, s15
 659 006a C3ED0D7A 		vstr.32	s15, [r3, #52]
 660 006e 51F8243F 		ldr	r3, [r1, #36]!
 661 0072 8B42     		cmp	r3, r1
 662 0074 05D0     		beq	.L125
 663              	.L135:
 664 0076 9A68     		ldr	r2, [r3, #8]
 665 0078 1B68     		ldr	r3, [r3]
 666 007a C2ED0C7A 		vstr.32	s15, [r2, #48]
 667 007e 8B42     		cmp	r3, r1
 668 0080 F9D1     		bne	.L135
 669              	.L125:
 670 0082 04B0     		add	sp, sp, #16
 671              		@ sp needed
 672 0084 BDEC028B 		vldm	sp!, {d8}
 673 0088 BDE8F081 		pop	{r4, r5, r6, r7, r8, pc}
 674              	.L146:
 675 008c D0F80442 		ldr	r4, [r0, #516]
 676 0090 00F50177 		add	r7, r0, #516
 677 0094 BC42     		cmp	r4, r7
 678 0096 03D1     		bne	.L131
 679 0098 DBE7     		b	.L144
 680              	.L130:
 681 009a 2468     		ldr	r4, [r4]
 682 009c BC42     		cmp	r4, r7
 683 009e D8D0     		beq	.L144
 684              	.L131:
 685 00a0 A368     		ldr	r3, [r4, #8]
 686 00a2 9E42     		cmp	r6, r3
 687 00a4 F9D1     		bne	.L130
 688 00a6 D5F80C32 		ldr	r3, [r5, #524]
 689 00aa 2046     		mov	r0, r4
 690 00ac D4F80080 		ldr	r8, [r4]
 691 00b0 013B     		subs	r3, r3, #1
 692 00b2 C5F80C32 		str	r3, [r5, #524]
 693 00b6 FFF7FEFF 		bl	_ZNSt8__detail15_List_node_base9_M_unhookEv
 694 00ba 2046     		mov	r0, r4
 695 00bc 1021     		movs	r1, #16
 696 00be 4446     		mov	r4, r8
 697 00c0 FFF7FEFF 		bl	_ZdlPvj
 698 00c4 E9E7     		b	.L130
 699              	.L145:
 700 00c6 9DF80D30 		ldrb	r3, [sp, #13]	@ zero_extendqisi2
 701 00ca 1020     		movs	r0, #16
 702 00cc 9FED0C7A 		vldr.32	s14, .L147
 703 00d0 07EE903A 		vmov	s15, r3	@ int
 704 00d4 D5F80412 		ldr	r1, [r5, #516]
 705 00d8 F8EE677A 		vcvt.f32.u32	s15, s15
 706 00dc 0091     		str	r1, [sp]
 707 00de 87EE878A 		vdiv.f32	s16, s15, s14
ARM GAS  /var/folders/sy/x1dkwsgj58j1lmy_hry3vpdm0000gn/T//cch4V49g.s 			page 13


 708 00e2 FFF7FEFF 		bl	_Znwj
 709 00e6 0099     		ldr	r1, [sp]
 710 00e8 8660     		str	r6, [r0, #8]
 711 00ea 80ED038A 		vstr.32	s16, [r0, #12]
 712 00ee FFF7FEFF 		bl	_ZNSt8__detail15_List_node_base7_M_hookEPS0_
 713 00f2 D5F80C22 		ldr	r2, [r5, #524]
 714 00f6 0132     		adds	r2, r2, #1
 715 00f8 C5F80C22 		str	r2, [r5, #524]
 716 00fc ABE7     		b	.L127
 717              	.L148:
 718 00fe 00BF     		.align	2
 719              	.L147:
 720 0100 0000FE42 		.word	1123942400
 721 0104 00000000 		.word	0
 723              		.section	.text._ZL5EnterP10ScreenNode,"ax",%progbits
 724              		.align	1
 725              		.p2align 2,,3
 726              		.syntax unified
 727              		.thumb
 728              		.thumb_func
 729              		.fpu fpv5-d16
 731              	_ZL5EnterP10ScreenNode:
 732              		@ args = 0, pretend = 0, frame = 8
 733              		@ frame_needed = 0, uses_anonymous_args = 0
 734 0000 70B5     		push	{r4, r5, r6, lr}
 735 0002 294D     		ldr	r5, .L173
 736 0004 82B0     		sub	sp, sp, #8
 737 0006 0446     		mov	r4, r0
 738 0008 2B68     		ldr	r3, [r5]
 739 000a 73B1     		cbz	r3, .L150
 740 000c 274B     		ldr	r3, .L173+4
 741 000e 0C20     		movs	r0, #12
 742 0010 1E68     		ldr	r6, [r3]
 743 0012 3168     		ldr	r1, [r6]
 744 0014 0191     		str	r1, [sp, #4]
 745 0016 FFF7FEFF 		bl	_Znwj
 746 001a 2B68     		ldr	r3, [r5]
 747 001c 0199     		ldr	r1, [sp, #4]
 748 001e 8360     		str	r3, [r0, #8]
 749 0020 FFF7FEFF 		bl	_ZNSt8__detail15_List_node_base7_M_hookEPS0_
 750 0024 B368     		ldr	r3, [r6, #8]
 751 0026 0133     		adds	r3, r3, #1
 752 0028 B360     		str	r3, [r6, #8]
 753              	.L150:
 754 002a A068     		ldr	r0, [r4, #8]
 755 002c 2C60     		str	r4, [r5]
 756 002e 98B1     		cbz	r0, .L151
 757 0030 1F4E     		ldr	r6, .L173+8
 758 0032 D6F8143D 		ldr	r3, [r6, #3348]
 759 0036 9842     		cmp	r0, r3
 760 0038 0ED0     		beq	.L151
 761 003a 23B1     		cbz	r3, .L152
 762 003c 1A68     		ldr	r2, [r3]
 763 003e 1D49     		ldr	r1, .L173+12
 764 0040 D268     		ldr	r2, [r2, #12]
 765 0042 8A42     		cmp	r2, r1
 766 0044 2BD1     		bne	.L172
ARM GAS  /var/folders/sy/x1dkwsgj58j1lmy_hry3vpdm0000gn/T//cch4V49g.s 			page 14


 767              	.L152:
 768 0046 0368     		ldr	r3, [r0]
 769 0048 1B4A     		ldr	r2, .L173+16
 770 004a 9B68     		ldr	r3, [r3, #8]
 771 004c 92ED000A 		vldr.32	s0, [r2]
 772 0050 C6F8140D 		str	r0, [r6, #3348]
 773 0054 9847     		blx	r3
 774 0056 2C68     		ldr	r4, [r5]
 775              	.L151:
 776 0058 6068     		ldr	r0, [r4, #4]
 777 005a B8B1     		cbz	r0, .L153
 778 005c 174A     		ldr	r2, .L173+20
 779 005e 236A     		ldr	r3, [r4, #32]
 780 0060 1168     		ldr	r1, [r2]
 781 0062 01F5A87C 		add	ip, r1, #336
 782 0066 01F5C47E 		add	lr, r1, #392
 783 006a 0B60     		str	r3, [r1]
 784              	.L155:
 785 006c ACF5A873 		sub	r3, ip, #336
 786              	.L154:
 787 0070 5A68     		ldr	r2, [r3, #4]
 788 0072 3833     		adds	r3, r3, #56
 789 0074 0024     		movs	r4, #0
 790 0076 9C45     		cmp	ip, r3
 791 0078 D461     		str	r4, [r2, #28]
 792 007a F9D1     		bne	.L154
 793 007c 0CF1040C 		add	ip, ip, #4
 794 0080 F445     		cmp	ip, lr
 795 0082 F3D1     		bne	.L155
 796 0084 0368     		ldr	r3, [r0]
 797 0086 1B68     		ldr	r3, [r3]
 798 0088 9847     		blx	r3
 799 008a 2C68     		ldr	r4, [r5]
 800              	.L153:
 801 008c A369     		ldr	r3, [r4, #24]
 802 008e 23B1     		cbz	r3, .L149
 803 0090 2046     		mov	r0, r4
 804 0092 02B0     		add	sp, sp, #8
 805              		@ sp needed
 806 0094 BDE87040 		pop	{r4, r5, r6, lr}
 807 0098 1847     		bx	r3	@ indirect register sibling call
 808              	.L149:
 809 009a 02B0     		add	sp, sp, #8
 810              		@ sp needed
 811 009c 70BD     		pop	{r4, r5, r6, pc}
 812              	.L172:
 813 009e 1846     		mov	r0, r3
 814 00a0 9047     		blx	r2
 815 00a2 2B68     		ldr	r3, [r5]
 816 00a4 9868     		ldr	r0, [r3, #8]
 817 00a6 CEE7     		b	.L152
 818              	.L174:
 819              		.align	2
 820              	.L173:
 821 00a8 00000000 		.word	.LANCHOR2
 822 00ac 00000000 		.word	.LANCHOR3
 823 00b0 00000000 		.word	.LANCHOR0
ARM GAS  /var/folders/sy/x1dkwsgj58j1lmy_hry3vpdm0000gn/T//cch4V49g.s 			page 15


 824 00b4 00000000 		.word	_ZN3LFO6UpdateEv
 825 00b8 00000000 		.word	.LANCHOR4
 826 00bc 00000000 		.word	.LANCHOR5
 828              		.section	.text._ZN17ModulationSources7SetMenuEP9MenuState,"ax",%progbits
 829              		.align	1
 830              		.p2align 2,,3
 831              		.global	_ZN17ModulationSources7SetMenuEP9MenuState
 832              		.syntax unified
 833              		.thumb
 834              		.thumb_func
 835              		.fpu fpv5-d16
 837              	_ZN17ModulationSources7SetMenuEP9MenuState:
 838              		@ args = 0, pretend = 0, frame = 24
 839              		@ frame_needed = 0, uses_anonymous_args = 0
 840 0000 2DE9F04F 		push	{r4, r5, r6, r7, r8, r9, r10, fp, lr}
 841 0004 564C     		ldr	r4, .L217
 842 0006 87B0     		sub	sp, sp, #28
 843 0008 0D46     		mov	r5, r1
 844 000a 0E1D     		adds	r6, r1, #4
 845 000c 04F13807 		add	r7, r4, #56
 846 0010 07E0     		b	.L180
 847              	.L176:
 848 0012 636B     		ldr	r3, [r4, #52]
 849 0014 0BB1     		cbz	r3, .L178
 850 0016 DA6A     		ldr	r2, [r3, #44]
 851 0018 52BB     		cbnz	r2, .L213
 852              	.L178:
 853 001a BC42     		cmp	r4, r7
 854 001c 06F10406 		add	r6, r6, #4
 855 0020 47D0     		beq	.L214
 856              	.L180:
 857 0022 54F8043B 		ldr	r3, [r4], #4
 858 0026 002B     		cmp	r3, #0
 859 0028 F3D0     		beq	.L176
 860 002a DA6A     		ldr	r2, [r3, #44]
 861 002c 002A     		cmp	r2, #0
 862 002e F0D0     		beq	.L176
 863 0030 0DF10809 		add	r9, sp, #8
 864 0034 9A68     		ldr	r2, [r3, #8]
 865 0036 D6F80080 		ldr	r8, [r6]
 866 003a 6846     		mov	r0, sp
 867 003c CDF80090 		str	r9, [sp]
 868 0040 5968     		ldr	r1, [r3, #4]
 869 0042 0A44     		add	r2, r2, r1
 870 0044 FFF7FEFF 		bl	_ZNSt7__cxx1112basic_stringIcSt11char_traitsIcESaIcEE12_M_constructIPcEEvT_S7_St20forward_itera
 871 0048 54F8043C 		ldr	r3, [r4, #-4]
 872 004c 4046     		mov	r0, r8
 873 004e 6946     		mov	r1, sp
 874 0050 D3F81CB0 		ldr	fp, [r3, #28]
 875 0054 D3F830A0 		ldr	r10, [r3, #48]
 876 0058 FFF7FEFF 		bl	_ZNSt7__cxx1112basic_stringIcSt11char_traitsIcESaIcEE9_M_assignERKS4_
 877 005c 0098     		ldr	r0, [sp]
 878 005e 4845     		cmp	r0, r9
 879 0060 C8E906BA 		strd	fp, r10, [r8, #24]
 880 0064 D5D0     		beq	.L176
 881 0066 0299     		ldr	r1, [sp, #8]
 882 0068 0131     		adds	r1, r1, #1
ARM GAS  /var/folders/sy/x1dkwsgj58j1lmy_hry3vpdm0000gn/T//cch4V49g.s 			page 16


 883 006a FFF7FEFF 		bl	_ZdlPvj
 884 006e D0E7     		b	.L176
 885              	.L213:
 886 0070 0DF10809 		add	r9, sp, #8
 887 0074 9A68     		ldr	r2, [r3, #8]
 888 0076 D6F83880 		ldr	r8, [r6, #56]
 889 007a 6846     		mov	r0, sp
 890 007c CDF80090 		str	r9, [sp]
 891 0080 5968     		ldr	r1, [r3, #4]
 892 0082 0A44     		add	r2, r2, r1
 893 0084 FFF7FEFF 		bl	_ZNSt7__cxx1112basic_stringIcSt11char_traitsIcESaIcEE12_M_constructIPcEEvT_S7_St20forward_itera
 894 0088 636B     		ldr	r3, [r4, #52]
 895 008a 4046     		mov	r0, r8
 896 008c 6946     		mov	r1, sp
 897 008e D3F81CB0 		ldr	fp, [r3, #28]
 898 0092 D3F830A0 		ldr	r10, [r3, #48]
 899 0096 FFF7FEFF 		bl	_ZNSt7__cxx1112basic_stringIcSt11char_traitsIcESaIcEE9_M_assignERKS4_
 900 009a 0098     		ldr	r0, [sp]
 901 009c 4845     		cmp	r0, r9
 902 009e C8E906BA 		strd	fp, r10, [r8, #24]
 903 00a2 BAD0     		beq	.L178
 904 00a4 0299     		ldr	r1, [sp, #8]
 905 00a6 0436     		adds	r6, r6, #4
 906 00a8 0131     		adds	r1, r1, #1
 907 00aa FFF7FEFF 		bl	_ZdlPvj
 908 00ae BC42     		cmp	r4, r7
 909 00b0 B7D1     		bne	.L180
 910              	.L214:
 911 00b2 2C4C     		ldr	r4, .L217+4
 912 00b4 7435     		adds	r5, r5, #116
 913 00b6 04F13806 		add	r6, r4, #56
 914 00ba 07E0     		b	.L185
 915              	.L181:
 916 00bc 636B     		ldr	r3, [r4, #52]
 917 00be 0BB1     		cbz	r3, .L183
 918 00c0 DA6A     		ldr	r2, [r3, #44]
 919 00c2 4ABB     		cbnz	r2, .L215
 920              	.L183:
 921 00c4 B442     		cmp	r4, r6
 922 00c6 05F10405 		add	r5, r5, #4
 923 00ca 45D0     		beq	.L216
 924              	.L185:
 925 00cc 54F8043B 		ldr	r3, [r4], #4
 926 00d0 002B     		cmp	r3, #0
 927 00d2 F3D0     		beq	.L181
 928 00d4 DA6A     		ldr	r2, [r3, #44]
 929 00d6 002A     		cmp	r2, #0
 930 00d8 F0D0     		beq	.L181
 931 00da 0DF10808 		add	r8, sp, #8
 932 00de 9A68     		ldr	r2, [r3, #8]
 933 00e0 2F68     		ldr	r7, [r5]
 934 00e2 6846     		mov	r0, sp
 935 00e4 CDF80080 		str	r8, [sp]
 936 00e8 5968     		ldr	r1, [r3, #4]
 937 00ea 0A44     		add	r2, r2, r1
 938 00ec FFF7FEFF 		bl	_ZNSt7__cxx1112basic_stringIcSt11char_traitsIcESaIcEE12_M_constructIPcEEvT_S7_St20forward_itera
 939 00f0 54F8043C 		ldr	r3, [r4, #-4]
ARM GAS  /var/folders/sy/x1dkwsgj58j1lmy_hry3vpdm0000gn/T//cch4V49g.s 			page 17


 940 00f4 3846     		mov	r0, r7
 941 00f6 6946     		mov	r1, sp
 942 00f8 D3F81CA0 		ldr	r10, [r3, #28]
 943 00fc D3F83090 		ldr	r9, [r3, #48]
 944 0100 FFF7FEFF 		bl	_ZNSt7__cxx1112basic_stringIcSt11char_traitsIcESaIcEE9_M_assignERKS4_
 945 0104 0098     		ldr	r0, [sp]
 946 0106 4045     		cmp	r0, r8
 947 0108 C7E906A9 		strd	r10, r9, [r7, #24]
 948 010c D6D0     		beq	.L181
 949 010e 0299     		ldr	r1, [sp, #8]
 950 0110 0131     		adds	r1, r1, #1
 951 0112 FFF7FEFF 		bl	_ZdlPvj
 952 0116 D1E7     		b	.L181
 953              	.L215:
 954 0118 0DF10808 		add	r8, sp, #8
 955 011c 9A68     		ldr	r2, [r3, #8]
 956 011e AF6B     		ldr	r7, [r5, #56]
 957 0120 6846     		mov	r0, sp
 958 0122 CDF80080 		str	r8, [sp]
 959 0126 5968     		ldr	r1, [r3, #4]
 960 0128 0A44     		add	r2, r2, r1
 961 012a FFF7FEFF 		bl	_ZNSt7__cxx1112basic_stringIcSt11char_traitsIcESaIcEE12_M_constructIPcEEvT_S7_St20forward_itera
 962 012e 636B     		ldr	r3, [r4, #52]
 963 0130 3846     		mov	r0, r7
 964 0132 6946     		mov	r1, sp
 965 0134 D3F81CA0 		ldr	r10, [r3, #28]
 966 0138 D3F83090 		ldr	r9, [r3, #48]
 967 013c FFF7FEFF 		bl	_ZNSt7__cxx1112basic_stringIcSt11char_traitsIcESaIcEE9_M_assignERKS4_
 968 0140 0098     		ldr	r0, [sp]
 969 0142 4045     		cmp	r0, r8
 970 0144 C7E906A9 		strd	r10, r9, [r7, #24]
 971 0148 BCD0     		beq	.L183
 972 014a 0299     		ldr	r1, [sp, #8]
 973 014c 0435     		adds	r5, r5, #4
 974 014e 0131     		adds	r1, r1, #1
 975 0150 FFF7FEFF 		bl	_ZdlPvj
 976 0154 B442     		cmp	r4, r6
 977 0156 B9D1     		bne	.L185
 978              	.L216:
 979 0158 07B0     		add	sp, sp, #28
 980              		@ sp needed
 981 015a BDE8F08F 		pop	{r4, r5, r6, r7, r8, r9, r10, fp, pc}
 982              	.L218:
 983 015e 00BF     		.align	2
 984              	.L217:
 985 0160 2C000000 		.word	.LANCHOR6+44
 986 0164 9C000000 		.word	.LANCHOR6+156
 988              		.section	.text._Z8lfoWavesff,"ax",%progbits
 989              		.align	1
 990              		.p2align 2,,3
 991              		.global	_Z8lfoWavesff
 992              		.syntax unified
 993              		.thumb
 994              		.thumb_func
 995              		.fpu fpv5-d16
 997              	_Z8lfoWavesff:
 998              		@ args = 0, pretend = 0, frame = 0
ARM GAS  /var/folders/sy/x1dkwsgj58j1lmy_hry3vpdm0000gn/T//cch4V49g.s 			page 18


 999              		@ frame_needed = 0, uses_anonymous_args = 0
 1000              		@ link register save eliminated.
 1001 0000 FDEEE07A 		vcvt.s32.f32	s15, s1
 1002 0004 F8EEE77A 		vcvt.f32.s32	s15, s15
 1003 0008 70EEE70A 		vsub.f32	s1, s1, s15
 1004 000c F5EEC00A 		vcmpe.f32	s1, #0
 1005 0010 F1EE10FA 		vmrs	APSR_nzcv, FPSCR
 1006 0014 03D5     		bpl	.L220
 1007 0016 F7EE007A 		vmov.f32	s15, #1.0e+0
 1008 001a 70EEA70A 		vadd.f32	s1, s1, s15
 1009              	.L220:
 1010 001e B7EEC07A 		vcvt.f64.f32	d7, s0
 1011 0022 9FED556B 		vldr.64	d6, .L263
 1012 0026 B4EEC67B 		vcmpe.f64	d7, d6
 1013 002a F1EE10FA 		vmrs	APSR_nzcv, FPSCR
 1014 002e 13D5     		bpl	.L253
 1015 0030 B5EE000A 		vmov.f32	s0, #2.5e-1
 1016 0034 B6EE006B 		vmov.f64	d6, #5.0e-1
 1017 0038 30EE800A 		vadd.f32	s0, s1, s0
 1018 003c 9FED507B 		vldr.64	d7, .L263+8
 1019 0040 B7EEC00A 		vcvt.f64.f32	d0, s0
 1020 0044 30EE460B 		vsub.f64	d0, d0, d6
 1021 0048 30EE000B 		vadd.f64	d0, d0, d0
 1022 004c 20EE070B 		vmul.f64	d0, d0, d7
 1023 0050 B7EEC00B 		vcvt.f32.f64	s0, d0
 1024 0054 FFF7FEBF 		b	sinf
 1025              	.L253:
 1026 0058 9FED4B6B 		vldr.64	d6, .L263+16
 1027 005c B4EEC67B 		vcmpe.f64	d7, d6
 1028 0060 F1EE10FA 		vmrs	APSR_nzcv, FPSCR
 1029 0064 23D5     		bpl	.L254
 1030 0066 B6EE007A 		vmov.f32	s14, #5.0e-1
 1031 006a F5EE007A 		vmov.f32	s15, #2.5e-1
 1032 006e 60EE870A 		vmul.f32	s1, s1, s14
 1033 0072 F4EEE70A 		vcmpe.f32	s1, s15
 1034 0076 F1EE10FA 		vmrs	APSR_nzcv, FPSCR
 1035 007a 56D9     		bls	.L260
 1036 007c F4EEC70A 		vcmpe.f32	s1, s14
 1037 0080 F1EE10FA 		vmrs	APSR_nzcv, FPSCR
 1038 0084 64D9     		bls	.L261
 1039 0086 F6EE087A 		vmov.f32	s15, #7.5e-1
 1040 008a F4EEE70A 		vcmpe.f32	s1, s15
 1041 008e F1EE10FA 		vmrs	APSR_nzcv, FPSCR
 1042 0092 66D8     		bhi	.L257
 1043 0094 70EEC70A 		vsub.f32	s1, s1, s14
 1044 0098 F9EE007A 		vmov.f32	s15, #-4.0e+0
 1045 009c 60EEA70A 		vmul.f32	s1, s1, s15
 1046              	.L228:
 1047 00a0 F0EE007A 		vmov.f32	s15, #2.0e+0
 1048 00a4 BFEE000A 		vmov.f32	s0, #-1.0e+0
 1049 00a8 A0EEA70A 		vfma.f32	s0, s1, s15
 1050 00ac 7047     		bx	lr
 1051              	.L254:
 1052 00ae 9FED386B 		vldr.64	d6, .L263+24
 1053 00b2 B4EEC67B 		vcmpe.f64	d7, d6
 1054 00b6 F1EE10FA 		vmrs	APSR_nzcv, FPSCR
 1055 00ba 1ED4     		bmi	.L262
ARM GAS  /var/folders/sy/x1dkwsgj58j1lmy_hry3vpdm0000gn/T//cch4V49g.s 			page 19


 1056 00bc 9FED366B 		vldr.64	d6, .L263+32
 1057 00c0 B4EEC67B 		vcmpe.f64	d7, d6
 1058 00c4 F1EE10FA 		vmrs	APSR_nzcv, FPSCR
 1059 00c8 34D5     		bpl	.L259
 1060 00ca F6EE007A 		vmov.f32	s15, #5.0e-1
 1061 00ce B7EE007A 		vmov.f32	s14, #1.0e+0
 1062 00d2 F0EE006A 		vmov.f32	s13, #2.0e+0
 1063 00d6 E0EEA77A 		vfma.f32	s15, s1, s15
 1064 00da B7EE000A 		vmov.f32	s0, #1.0e+0
 1065 00de F4EEC77A 		vcmpe.f32	s15, s14
 1066 00e2 F1EE10FA 		vmrs	APSR_nzcv, FPSCR
 1067 00e6 C8BF     		it	gt
 1068 00e8 77EEC77A 		vsubgt.f32	s15, s15, s14
 1069 00ec BFEE007A 		vmov.f32	s14, #-1.0e+0
 1070 00f0 A7EEA67A 		vfma.f32	s14, s15, s13
 1071 00f4 A7EE660A 		vfms.f32	s0, s14, s13
 1072 00f8 7047     		bx	lr
 1073              	.L262:
 1074 00fa F6EE007A 		vmov.f32	s15, #5.0e-1
 1075 00fe B7EE007A 		vmov.f32	s14, #1.0e+0
 1076 0102 BFEE000A 		vmov.f32	s0, #-1.0e+0
 1077 0106 E0EEA77A 		vfma.f32	s15, s1, s15
 1078 010a F0EE406A 		vmov.f32	s13, s0
 1079 010e F4EEC77A 		vcmpe.f32	s15, s14
 1080 0112 F1EE10FA 		vmrs	APSR_nzcv, FPSCR
 1081 0116 C8BF     		it	gt
 1082 0118 77EEC77A 		vsubgt.f32	s15, s15, s14
 1083 011c B0EE007A 		vmov.f32	s14, #2.0e+0
 1084 0120 E7EE876A 		vfma.f32	s13, s15, s14
 1085 0124 A6EE870A 		vfma.f32	s0, s13, s14
 1086 0128 7047     		bx	lr
 1087              	.L260:
 1088 012a F1EE007A 		vmov.f32	s15, #4.0e+0
 1089 012e 60EEA70A 		vmul.f32	s1, s1, s15
 1090 0132 B5E7     		b	.L228
 1091              	.L259:
 1092 0134 B6EE007A 		vmov.f32	s14, #5.0e-1
 1093 0138 F7EE007A 		vmov.f32	s15, #1.0e+0
 1094 013c BFEE000A 		vmov.f32	s0, #-1.0e+0
 1095 0140 F4EEC70A 		vcmpe.f32	s1, s14
 1096 0144 F1EE10FA 		vmrs	APSR_nzcv, FPSCR
 1097 0148 88BF     		it	hi
 1098 014a B0EE670A 		vmovhi.f32	s0, s15
 1099 014e 7047     		bx	lr
 1100              	.L261:
 1101 0150 70EEE77A 		vsub.f32	s15, s1, s15
 1102 0154 B1EE007A 		vmov.f32	s14, #4.0e+0
 1103 0158 F7EE000A 		vmov.f32	s1, #1.0e+0
 1104 015c E7EEC70A 		vfms.f32	s1, s15, s14
 1105 0160 9EE7     		b	.L228
 1106              	.L257:
 1107 0162 70EEE77A 		vsub.f32	s15, s1, s15
 1108 0166 B1EE007A 		vmov.f32	s14, #4.0e+0
 1109 016a F7EE000A 		vmov.f32	s1, #1.0e+0
 1110 016e E7EEC70A 		vfms.f32	s1, s15, s14
 1111 0172 F1EE600A 		vneg.f32	s1, s1
 1112 0176 93E7     		b	.L228
ARM GAS  /var/folders/sy/x1dkwsgj58j1lmy_hry3vpdm0000gn/T//cch4V49g.s 			page 20


 1113              	.L264:
 1114              		.align	3
 1115              	.L263:
 1116 0178 9A999999 		.word	-1717986918
 1117 017c 9999C93F 		.word	1070176665
 1118 0180 00000060 		.word	1610612736
 1119 0184 FB210940 		.word	1074340347
 1120 0188 9A999999 		.word	-1717986918
 1121 018c 9999D93F 		.word	1071225241
 1122 0190 33333333 		.word	858993459
 1123 0194 3333E33F 		.word	1071854387
 1124 0198 9A999999 		.word	-1717986918
 1125 019c 9999E93F 		.word	1072273817
 1127              		.section	.text._Z10basicWavesff,"ax",%progbits
 1128              		.align	1
 1129              		.p2align 2,,3
 1130              		.global	_Z10basicWavesff
 1131              		.syntax unified
 1132              		.thumb
 1133              		.thumb_func
 1134              		.fpu fpv5-d16
 1136              	_Z10basicWavesff:
 1137              		@ args = 0, pretend = 0, frame = 0
 1138              		@ frame_needed = 0, uses_anonymous_args = 0
 1139              		@ link register save eliminated.
 1140 0000 FDEEE07A 		vcvt.s32.f32	s15, s1
 1141 0004 F8EEE77A 		vcvt.f32.s32	s15, s15
 1142 0008 70EEE70A 		vsub.f32	s1, s1, s15
 1143 000c F5EEC00A 		vcmpe.f32	s1, #0
 1144 0010 F1EE10FA 		vmrs	APSR_nzcv, FPSCR
 1145 0014 03D5     		bpl	.L266
 1146 0016 F7EE007A 		vmov.f32	s15, #1.0e+0
 1147 001a 70EEA70A 		vadd.f32	s1, s1, s15
 1148              	.L266:
 1149 001e B4EE007A 		vmov.f32	s14, #1.25e-1
 1150 0022 B4EEC70A 		vcmpe.f32	s0, s14
 1151 0026 F1EE10FA 		vmrs	APSR_nzcv, FPSCR
 1152 002a 0FD5     		bpl	.L322
 1153 002c B7EEE00A 		vcvt.f64.f32	d0, s1
 1154 0030 B6EE006B 		vmov.f64	d6, #5.0e-1
 1155 0034 9FED827B 		vldr.64	d7, .L335
 1156 0038 30EE460B 		vsub.f64	d0, d0, d6
 1157 003c 30EE000B 		vadd.f64	d0, d0, d0
 1158 0040 20EE070B 		vmul.f64	d0, d0, d7
 1159 0044 B7EEC00B 		vcvt.f32.f64	s0, d0
 1160 0048 FFF7FEBF 		b	sinf
 1161              	.L322:
 1162 004c F5EE007A 		vmov.f32	s15, #2.5e-1
 1163 0050 B4EEE70A 		vcmpe.f32	s0, s15
 1164 0054 F1EE10FA 		vmrs	APSR_nzcv, FPSCR
 1165 0058 1BD5     		bpl	.L323
 1166 005a F4EEE70A 		vcmpe.f32	s1, s15
 1167 005e F1EE10FA 		vmrs	APSR_nzcv, FPSCR
 1168 0062 4AD9     		bls	.L331
 1169 0064 B6EE000A 		vmov.f32	s0, #5.0e-1
 1170 0068 F4EEC00A 		vcmpe.f32	s1, s0
 1171 006c F1EE10FA 		vmrs	APSR_nzcv, FPSCR
ARM GAS  /var/folders/sy/x1dkwsgj58j1lmy_hry3vpdm0000gn/T//cch4V49g.s 			page 21


 1172 0070 40F29580 		bls	.L332
 1173 0074 F6EE087A 		vmov.f32	s15, #7.5e-1
 1174 0078 F4EEE70A 		vcmpe.f32	s1, s15
 1175 007c F1EE10FA 		vmrs	APSR_nzcv, FPSCR
 1176 0080 00F29680 		bhi	.L326
 1177 0084 30EEC00A 		vsub.f32	s0, s1, s0
 1178 0088 F9EE000A 		vmov.f32	s1, #-4.0e+0
 1179 008c 20EE200A 		vmul.f32	s0, s0, s1
 1180 0090 7047     		bx	lr
 1181              	.L323:
 1182 0092 F5EE086A 		vmov.f32	s13, #3.75e-1
 1183 0096 F6EE007A 		vmov.f32	s15, #5.0e-1
 1184 009a B4EEE60A 		vcmpe.f32	s0, s13
 1185 009e F1EE10FA 		vmrs	APSR_nzcv, FPSCR
 1186 00a2 18D4     		bmi	.L333
 1187 00a4 B4EEE70A 		vcmpe.f32	s0, s15
 1188 00a8 F1EE10FA 		vmrs	APSR_nzcv, FPSCR
 1189 00ac 2AD5     		bpl	.L328
 1190 00ae 70EEA70A 		vadd.f32	s1, s1, s15
 1191 00b2 F7EE007A 		vmov.f32	s15, #1.0e+0
 1192 00b6 BFEE000A 		vmov.f32	s0, #-1.0e+0
 1193 00ba F4EEE70A 		vcmpe.f32	s1, s15
 1194 00be F1EE10FA 		vmrs	APSR_nzcv, FPSCR
 1195 00c2 C8BF     		it	gt
 1196 00c4 70EEE70A 		vsubgt.f32	s1, s1, s15
 1197 00c8 F0EE007A 		vmov.f32	s15, #2.0e+0
 1198 00cc A0EEA70A 		vfma.f32	s0, s1, s15
 1199 00d0 B1EE400A 		vneg.f32	s0, s0
 1200 00d4 7047     		bx	lr
 1201              	.L333:
 1202 00d6 70EEA77A 		vadd.f32	s15, s1, s15
 1203 00da B7EE007A 		vmov.f32	s14, #1.0e+0
 1204 00de BFEE000A 		vmov.f32	s0, #-1.0e+0
 1205 00e2 F4EEC77A 		vcmpe.f32	s15, s14
 1206 00e6 F1EE10FA 		vmrs	APSR_nzcv, FPSCR
 1207 00ea C8BF     		it	gt
 1208 00ec 77EEC77A 		vsubgt.f32	s15, s15, s14
 1209 00f0 B0EE007A 		vmov.f32	s14, #2.0e+0
 1210 00f4 A7EE870A 		vfma.f32	s0, s15, s14
 1211 00f8 7047     		bx	lr
 1212              	.L331:
 1213 00fa B1EE000A 		vmov.f32	s0, #4.0e+0
 1214 00fe 20EE800A 		vmul.f32	s0, s1, s0
 1215 0102 7047     		bx	lr
 1216              	.L328:
 1217 0104 B6EE046A 		vmov.f32	s12, #6.25e-1
 1218 0108 B4EEC60A 		vcmpe.f32	s0, s12
 1219 010c F1EE10FA 		vmrs	APSR_nzcv, FPSCR
 1220 0110 59D4     		bmi	.L334
 1221 0112 B6EE087A 		vmov.f32	s14, #7.5e-1
 1222 0116 B4EEC70A 		vcmpe.f32	s0, s14
 1223 011a F1EE10FA 		vmrs	APSR_nzcv, FPSCR
 1224 011e 72D5     		bpl	.L330
 1225 0120 9FED497A 		vldr.32	s14, .L335+8
 1226 0124 F4EEC70A 		vcmpe.f32	s1, s14
 1227 0128 F1EE10FA 		vmrs	APSR_nzcv, FPSCR
 1228 012c 68D9     		bls	.L302
ARM GAS  /var/folders/sy/x1dkwsgj58j1lmy_hry3vpdm0000gn/T//cch4V49g.s 			page 22


 1229 012e B4EE087A 		vmov.f32	s14, #1.875e-1
 1230 0132 F4EEC70A 		vcmpe.f32	s1, s14
 1231 0136 F1EE10FA 		vmrs	APSR_nzcv, FPSCR
 1232 013a 73D9     		bls	.L299
 1233 013c F5EE047A 		vmov.f32	s15, #3.125e-1
 1234 0140 F4EEE70A 		vcmpe.f32	s1, s15
 1235 0144 F1EE10FA 		vmrs	APSR_nzcv, FPSCR
 1236 0148 69D9     		bls	.L300
 1237 014a F5EE0C7A 		vmov.f32	s15, #4.375e-1
 1238 014e F4EEE70A 		vcmpe.f32	s1, s15
 1239 0152 F1EE10FA 		vmrs	APSR_nzcv, FPSCR
 1240 0156 68D9     		bls	.L301
 1241 0158 F6EE027A 		vmov.f32	s15, #5.625e-1
 1242 015c F4EEE70A 		vcmpe.f32	s1, s15
 1243 0160 F1EE10FA 		vmrs	APSR_nzcv, FPSCR
 1244 0164 4CD9     		bls	.L302
 1245 0166 F6EE067A 		vmov.f32	s15, #6.875e-1
 1246 016a F4EEE70A 		vcmpe.f32	s1, s15
 1247 016e F1EE10FA 		vmrs	APSR_nzcv, FPSCR
 1248 0172 5DD9     		bls	.L303
 1249 0174 F6EE0A7A 		vmov.f32	s15, #8.125e-1
 1250 0178 F4EEE70A 		vcmpe.f32	s1, s15
 1251 017c F1EE10FA 		vmrs	APSR_nzcv, FPSCR
 1252 0180 59D9     		bls	.L304
 1253 0182 B6EE0E7A 		vmov.f32	s14, #9.375e-1
 1254 0186 DFED317A 		vldr.32	s15, .L335+12
 1255 018a BEEE000A 		vmov.f32	s0, #-5.0e-1
 1256 018e F4EEC70A 		vcmpe.f32	s1, s14
 1257 0192 F1EE10FA 		vmrs	APSR_nzcv, FPSCR
 1258 0196 88BF     		it	hi
 1259 0198 B0EE670A 		vmovhi.f32	s0, s15
 1260 019c 7047     		bx	lr
 1261              	.L332:
 1262 019e 70EEE77A 		vsub.f32	s15, s1, s15
 1263 01a2 B1EE007A 		vmov.f32	s14, #4.0e+0
 1264 01a6 B7EE000A 		vmov.f32	s0, #1.0e+0
 1265 01aa A7EEC70A 		vfms.f32	s0, s15, s14
 1266 01ae 7047     		bx	lr
 1267              	.L326:
 1268 01b0 70EEE77A 		vsub.f32	s15, s1, s15
 1269 01b4 B1EE007A 		vmov.f32	s14, #4.0e+0
 1270 01b8 B7EE000A 		vmov.f32	s0, #1.0e+0
 1271 01bc A7EEC70A 		vfms.f32	s0, s15, s14
 1272 01c0 B1EE400A 		vneg.f32	s0, s0
 1273 01c4 7047     		bx	lr
 1274              	.L334:
 1275 01c6 F4EEC70A 		vcmpe.f32	s1, s14
 1276 01ca F1EE10FA 		vmrs	APSR_nzcv, FPSCR
 1277 01ce 17D9     		bls	.L302
 1278 01d0 F4EEE60A 		vcmpe.f32	s1, s13
 1279 01d4 F1EE10FA 		vmrs	APSR_nzcv, FPSCR
 1280 01d8 21D9     		bls	.L300
 1281 01da F4EEC60A 		vcmpe.f32	s1, s12
 1282 01de F1EE10FA 		vmrs	APSR_nzcv, FPSCR
 1283 01e2 0DD9     		bls	.L302
 1284 01e4 B6EE0C7A 		vmov.f32	s14, #8.75e-1
 1285 01e8 DFED187A 		vldr.32	s15, .L335+12
ARM GAS  /var/folders/sy/x1dkwsgj58j1lmy_hry3vpdm0000gn/T//cch4V49g.s 			page 23


 1286 01ec BFEE000A 		vmov.f32	s0, #-1.0e+0
 1287 01f0 F4EEC70A 		vcmpe.f32	s1, s14
 1288 01f4 F1EE10FA 		vmrs	APSR_nzcv, FPSCR
 1289 01f8 88BF     		it	hi
 1290 01fa B0EE670A 		vmovhi.f32	s0, s15
 1291 01fe 7047     		bx	lr
 1292              	.L302:
 1293 0200 9FED120A 		vldr.32	s0, .L335+12
 1294 0204 7047     		bx	lr
 1295              	.L330:
 1296 0206 F4EEE70A 		vcmpe.f32	s1, s15
 1297 020a BFEE000A 		vmov.f32	s0, #-1.0e+0
 1298 020e F7EE000A 		vmov.f32	s1, #1.0e+0
 1299 0212 F1EE10FA 		vmrs	APSR_nzcv, FPSCR
 1300 0216 88BF     		it	hi
 1301 0218 B0EE600A 		vmovhi.f32	s0, s1
 1302 021c 7047     		bx	lr
 1303              	.L300:
 1304 021e B7EE000A 		vmov.f32	s0, #1.0e+0
 1305 0222 7047     		bx	lr
 1306              	.L299:
 1307 0224 B0EE670A 		vmov.f32	s0, s15
 1308 0228 7047     		bx	lr
 1309              	.L301:
 1310 022a B6EE000A 		vmov.f32	s0, #5.0e-1
 1311 022e 7047     		bx	lr
 1312              	.L303:
 1313 0230 BEEE000A 		vmov.f32	s0, #-5.0e-1
 1314 0234 7047     		bx	lr
 1315              	.L304:
 1316 0236 BFEE000A 		vmov.f32	s0, #-1.0e+0
 1317 023a 7047     		bx	lr
 1318              	.L336:
 1319 023c AFF30080 		.align	3
 1320              	.L335:
 1321 0240 00000060 		.word	1610612736
 1322 0244 FB210940 		.word	1074340347
 1323 0248 0000803D 		.word	1031798784
 1324 024c 00000000 		.word	0
 1326              		.section	.rodata._Z15createBPMModSubv.str1.4,"aMS",%progbits,1
 1327              		.align	2
 1328              	.LC1:
 1329 0000 6D6F6420 		.ascii	"mod sub\000"
 1329      73756200 
 1330              		.section	.text._Z15createBPMModSubv,"ax",%progbits
 1331              		.align	1
 1332              		.p2align 2,,3
 1333              		.global	_Z15createBPMModSubv
 1334              		.syntax unified
 1335              		.thumb
 1336              		.thumb_func
 1337              		.fpu fpv5-d16
 1339              	_Z15createBPMModSubv:
 1340              		@ args = 0, pretend = 0, frame = 24
 1341              		@ frame_needed = 0, uses_anonymous_args = 0
 1342 0000 264B     		ldr	r3, .L340
 1343 0002 0722     		movs	r2, #7
ARM GAS  /var/folders/sy/x1dkwsgj58j1lmy_hry3vpdm0000gn/T//cch4V49g.s 			page 24


 1344 0004 F0B5     		push	{r4, r5, r6, r7, lr}
 1345 0006 93E80300 		ldm	r3, {r0, r1}
 1346 000a 87B0     		sub	sp, sp, #28
 1347 000c 0025     		movs	r5, #0
 1348 000e 0B0C     		lsrs	r3, r1, #16
 1349 0010 0127     		movs	r7, #1
 1350 0012 02AE     		add	r6, sp, #8
 1351 0014 0290     		str	r0, [sp, #8]
 1352 0016 4820     		movs	r0, #72
 1353 0018 ADF80C10 		strh	r1, [sp, #12]	@ movhi
 1354 001c 8DF80E30 		strb	r3, [sp, #14]
 1355 0020 8DF80F50 		strb	r5, [sp, #15]
 1356 0024 CDE90062 		strd	r6, r2, [sp]
 1357 0028 FFF7FEFF 		bl	_Znwj
 1358 002c 1C4B     		ldr	r3, .L340+4
 1359 002e 0446     		mov	r4, r0
 1360 0030 4563     		str	r5, [r0, #52]
 1361 0032 0360     		str	r3, [r0]
 1362 0034 00F13803 		add	r3, r0, #56
 1363 0038 80F83850 		strb	r5, [r0, #56]
 1364 003c 6946     		mov	r1, sp
 1365 003e 0363     		str	r3, [r0, #48]
 1366 0040 3030     		adds	r0, r0, #48
 1367 0042 00F8147C 		strb	r7, [r0, #-20]
 1368 0046 FFF7FEFF 		bl	_ZNSt7__cxx1112basic_stringIcSt11char_traitsIcESaIcEE9_M_assignERKS4_
 1369 004a 4FF07E53 		mov	r3, #1065353216
 1370 004e 2420     		movs	r0, #36
 1371 0050 E360     		str	r3, [r4, #12]	@ float
 1372 0052 E362     		str	r3, [r4, #44]	@ float
 1373 0054 6362     		str	r3, [r4, #36]	@ float
 1374 0056 134B     		ldr	r3, .L340+8
 1375 0058 A362     		str	r3, [r4, #40]	@ float
 1376 005a A361     		str	r3, [r4, #24]	@ float
 1377 005c 0023     		movs	r3, #0
 1378 005e 6360     		str	r3, [r4, #4]	@ float
 1379 0060 114B     		ldr	r3, .L340+12
 1380 0062 A360     		str	r3, [r4, #8]	@ float
 1381 0064 FFF7FEFF 		bl	_Znwj
 1382 0068 104B     		ldr	r3, .L340+16
 1383 006a 4FF0FF32 		mov	r2, #-1
 1384 006e 0770     		strb	r7, [r0]
 1385 0070 2360     		str	r3, [r4]
 1386 0072 009B     		ldr	r3, [sp]
 1387 0074 C460     		str	r4, [r0, #12]
 1388 0076 B342     		cmp	r3, r6
 1389 0078 2061     		str	r0, [r4, #16]
 1390 007a 0262     		str	r2, [r0, #32]
 1391 007c C0E90155 		strd	r5, r5, [r0, #4]
 1392 0080 C0E90455 		strd	r5, r5, [r0, #16]
 1393 0084 C0E90655 		strd	r5, r5, [r0, #24]
 1394 0088 04D0     		beq	.L337
 1395 008a 0299     		ldr	r1, [sp, #8]
 1396 008c 1846     		mov	r0, r3
 1397 008e 3944     		add	r1, r1, r7
 1398 0090 FFF7FEFF 		bl	_ZdlPvj
 1399              	.L337:
 1400 0094 2046     		mov	r0, r4
ARM GAS  /var/folders/sy/x1dkwsgj58j1lmy_hry3vpdm0000gn/T//cch4V49g.s 			page 25


 1401 0096 07B0     		add	sp, sp, #28
 1402              		@ sp needed
 1403 0098 F0BD     		pop	{r4, r5, r6, r7, pc}
 1404              	.L341:
 1405 009a 00BF     		.align	2
 1406              	.L340:
 1407 009c 00000000 		.word	.LC1
 1408 00a0 08000000 		.word	_ZTV12NumericParam+8
 1409 00a4 0AD7233C 		.word	1008981770
 1410 00a8 00007042 		.word	1114636288
 1411 00ac 08000000 		.word	_ZTV10FloatParam+8
 1413              		.section	.rodata._Z34createZeroTo32HundredPercentModAddv.str1.4,"aMS",%progbits,1
 1414              		.align	2
 1415              	.LC2:
 1416 0000 6D6F6420 		.ascii	"mod add\000"
 1416      61646400 
 1417              		.section	.text._Z34createZeroTo32HundredPercentModAddv,"ax",%progbits
 1418              		.align	1
 1419              		.p2align 2,,3
 1420              		.global	_Z34createZeroTo32HundredPercentModAddv
 1421              		.syntax unified
 1422              		.thumb
 1423              		.thumb_func
 1424              		.fpu fpv5-d16
 1426              	_Z34createZeroTo32HundredPercentModAddv:
 1427              		@ args = 0, pretend = 0, frame = 24
 1428              		@ frame_needed = 0, uses_anonymous_args = 0
 1429 0000 274B     		ldr	r3, .L345
 1430 0002 0722     		movs	r2, #7
 1431 0004 F0B5     		push	{r4, r5, r6, r7, lr}
 1432 0006 93E80300 		ldm	r3, {r0, r1}
 1433 000a 87B0     		sub	sp, sp, #28
 1434 000c 0025     		movs	r5, #0
 1435 000e 0B0C     		lsrs	r3, r1, #16
 1436 0010 0127     		movs	r7, #1
 1437 0012 02AE     		add	r6, sp, #8
 1438 0014 0290     		str	r0, [sp, #8]
 1439 0016 4820     		movs	r0, #72
 1440 0018 ADF80C10 		strh	r1, [sp, #12]	@ movhi
 1441 001c 8DF80E30 		strb	r3, [sp, #14]
 1442 0020 8DF80F50 		strb	r5, [sp, #15]
 1443 0024 CDE90062 		strd	r6, r2, [sp]
 1444 0028 FFF7FEFF 		bl	_Znwj
 1445 002c 1D4B     		ldr	r3, .L345+4
 1446 002e 0446     		mov	r4, r0
 1447 0030 4563     		str	r5, [r0, #52]
 1448 0032 0360     		str	r3, [r0]
 1449 0034 00F13803 		add	r3, r0, #56
 1450 0038 80F83850 		strb	r5, [r0, #56]
 1451 003c 6946     		mov	r1, sp
 1452 003e 0363     		str	r3, [r0, #48]
 1453 0040 3030     		adds	r0, r0, #48
 1454 0042 00F8147C 		strb	r7, [r0, #-20]
 1455 0046 FFF7FEFF 		bl	_ZNSt7__cxx1112basic_stringIcSt11char_traitsIcESaIcEE9_M_assignERKS4_
 1456 004a 4FF07E53 		mov	r3, #1065353216
 1457 004e 2420     		movs	r0, #36
 1458 0050 E360     		str	r3, [r4, #12]	@ float
ARM GAS  /var/folders/sy/x1dkwsgj58j1lmy_hry3vpdm0000gn/T//cch4V49g.s 			page 26


 1459 0052 0023     		movs	r3, #0
 1460 0054 6360     		str	r3, [r4, #4]	@ float
 1461 0056 4FF08443 		mov	r3, #1107296256
 1462 005a A360     		str	r3, [r4, #8]	@ float
 1463 005c 124B     		ldr	r3, .L345+8
 1464 005e A362     		str	r3, [r4, #40]	@ float
 1465 0060 A361     		str	r3, [r4, #24]	@ float
 1466 0062 124B     		ldr	r3, .L345+12
 1467 0064 6362     		str	r3, [r4, #36]	@ float
 1468 0066 124B     		ldr	r3, .L345+16
 1469 0068 E362     		str	r3, [r4, #44]	@ float
 1470 006a FFF7FEFF 		bl	_Znwj
 1471 006e 114B     		ldr	r3, .L345+20
 1472 0070 4FF0FF32 		mov	r2, #-1
 1473 0074 0770     		strb	r7, [r0]
 1474 0076 2360     		str	r3, [r4]
 1475 0078 009B     		ldr	r3, [sp]
 1476 007a C460     		str	r4, [r0, #12]
 1477 007c B342     		cmp	r3, r6
 1478 007e 2061     		str	r0, [r4, #16]
 1479 0080 0262     		str	r2, [r0, #32]
 1480 0082 C0E90155 		strd	r5, r5, [r0, #4]
 1481 0086 C0E90455 		strd	r5, r5, [r0, #16]
 1482 008a C0E90655 		strd	r5, r5, [r0, #24]
 1483 008e 04D0     		beq	.L342
 1484 0090 0299     		ldr	r1, [sp, #8]
 1485 0092 1846     		mov	r0, r3
 1486 0094 3944     		add	r1, r1, r7
 1487 0096 FFF7FEFF 		bl	_ZdlPvj
 1488              	.L342:
 1489 009a 2046     		mov	r0, r4
 1490 009c 07B0     		add	sp, sp, #28
 1491              		@ sp needed
 1492 009e F0BD     		pop	{r4, r5, r6, r7, pc}
 1493              	.L346:
 1494              		.align	2
 1495              	.L345:
 1496 00a0 00000000 		.word	.LC2
 1497 00a4 08000000 		.word	_ZTV12NumericParam+8
 1498 00a8 6F12833A 		.word	981668463
 1499 00ac 0AD7233C 		.word	1008981770
 1500 00b0 CDCC4C3E 		.word	1045220557
 1501 00b4 08000000 		.word	_ZTV12PercentParam+8
 1503              		.section	.text._Z32createZeroToHundredPercentModSubv,"ax",%progbits
 1504              		.align	1
 1505              		.p2align 2,,3
 1506              		.global	_Z32createZeroToHundredPercentModSubv
 1507              		.syntax unified
 1508              		.thumb
 1509              		.thumb_func
 1510              		.fpu fpv5-d16
 1512              	_Z32createZeroToHundredPercentModSubv:
 1513              		@ args = 0, pretend = 0, frame = 24
 1514              		@ frame_needed = 0, uses_anonymous_args = 0
 1515 0000 264B     		ldr	r3, .L350
 1516 0002 0722     		movs	r2, #7
 1517 0004 F0B5     		push	{r4, r5, r6, r7, lr}
ARM GAS  /var/folders/sy/x1dkwsgj58j1lmy_hry3vpdm0000gn/T//cch4V49g.s 			page 27


 1518 0006 93E80300 		ldm	r3, {r0, r1}
 1519 000a 87B0     		sub	sp, sp, #28
 1520 000c 0025     		movs	r5, #0
 1521 000e 0B0C     		lsrs	r3, r1, #16
 1522 0010 0127     		movs	r7, #1
 1523 0012 02AE     		add	r6, sp, #8
 1524 0014 0290     		str	r0, [sp, #8]
 1525 0016 4820     		movs	r0, #72
 1526 0018 ADF80C10 		strh	r1, [sp, #12]	@ movhi
 1527 001c 8DF80E30 		strb	r3, [sp, #14]
 1528 0020 8DF80F50 		strb	r5, [sp, #15]
 1529 0024 CDE90062 		strd	r6, r2, [sp]
 1530 0028 FFF7FEFF 		bl	_Znwj
 1531 002c 1C4B     		ldr	r3, .L350+4
 1532 002e 0446     		mov	r4, r0
 1533 0030 4563     		str	r5, [r0, #52]
 1534 0032 0360     		str	r3, [r0]
 1535 0034 00F13803 		add	r3, r0, #56
 1536 0038 80F83850 		strb	r5, [r0, #56]
 1537 003c 6946     		mov	r1, sp
 1538 003e 0363     		str	r3, [r0, #48]
 1539 0040 3030     		adds	r0, r0, #48
 1540 0042 00F8147C 		strb	r7, [r0, #-20]
 1541 0046 FFF7FEFF 		bl	_ZNSt7__cxx1112basic_stringIcSt11char_traitsIcESaIcEE9_M_assignERKS4_
 1542 004a 0023     		movs	r3, #0
 1543 004c 2420     		movs	r0, #36
 1544 004e E360     		str	r3, [r4, #12]	@ float
 1545 0050 6360     		str	r3, [r4, #4]	@ float
 1546 0052 4FF07E53 		mov	r3, #1065353216
 1547 0056 A360     		str	r3, [r4, #8]	@ float
 1548 0058 124B     		ldr	r3, .L350+8
 1549 005a A362     		str	r3, [r4, #40]	@ float
 1550 005c A361     		str	r3, [r4, #24]	@ float
 1551 005e 124B     		ldr	r3, .L350+12
 1552 0060 6362     		str	r3, [r4, #36]	@ float
 1553 0062 124B     		ldr	r3, .L350+16
 1554 0064 E362     		str	r3, [r4, #44]	@ float
 1555 0066 FFF7FEFF 		bl	_Znwj
 1556 006a 114B     		ldr	r3, .L350+20
 1557 006c 4FF0FF32 		mov	r2, #-1
 1558 0070 0770     		strb	r7, [r0]
 1559 0072 2360     		str	r3, [r4]
 1560 0074 009B     		ldr	r3, [sp]
 1561 0076 C460     		str	r4, [r0, #12]
 1562 0078 B342     		cmp	r3, r6
 1563 007a 2061     		str	r0, [r4, #16]
 1564 007c 0262     		str	r2, [r0, #32]
 1565 007e C0E90155 		strd	r5, r5, [r0, #4]
 1566 0082 C0E90455 		strd	r5, r5, [r0, #16]
 1567 0086 C0E90655 		strd	r5, r5, [r0, #24]
 1568 008a 04D0     		beq	.L347
 1569 008c 0299     		ldr	r1, [sp, #8]
 1570 008e 1846     		mov	r0, r3
 1571 0090 3944     		add	r1, r1, r7
 1572 0092 FFF7FEFF 		bl	_ZdlPvj
 1573              	.L347:
 1574 0096 2046     		mov	r0, r4
ARM GAS  /var/folders/sy/x1dkwsgj58j1lmy_hry3vpdm0000gn/T//cch4V49g.s 			page 28


 1575 0098 07B0     		add	sp, sp, #28
 1576              		@ sp needed
 1577 009a F0BD     		pop	{r4, r5, r6, r7, pc}
 1578              	.L351:
 1579              		.align	2
 1580              	.L350:
 1581 009c 00000000 		.word	.LC1
 1582 00a0 08000000 		.word	_ZTV12NumericParam+8
 1583 00a4 6F12833A 		.word	981668463
 1584 00a8 0AD7233C 		.word	1008981770
 1585 00ac CDCC4C3D 		.word	1028443341
 1586 00b0 08000000 		.word	_ZTV12PercentParam+8
 1588              		.section	.text._Z34createZeroTo32HundredPercentModSubv,"ax",%progbits
 1589              		.align	1
 1590              		.p2align 2,,3
 1591              		.global	_Z34createZeroTo32HundredPercentModSubv
 1592              		.syntax unified
 1593              		.thumb
 1594              		.thumb_func
 1595              		.fpu fpv5-d16
 1597              	_Z34createZeroTo32HundredPercentModSubv:
 1598              		@ args = 0, pretend = 0, frame = 24
 1599              		@ frame_needed = 0, uses_anonymous_args = 0
 1600 0000 264B     		ldr	r3, .L355
 1601 0002 0722     		movs	r2, #7
 1602 0004 F0B5     		push	{r4, r5, r6, r7, lr}
 1603 0006 93E80300 		ldm	r3, {r0, r1}
 1604 000a 87B0     		sub	sp, sp, #28
 1605 000c 0025     		movs	r5, #0
 1606 000e 0B0C     		lsrs	r3, r1, #16
 1607 0010 0127     		movs	r7, #1
 1608 0012 02AE     		add	r6, sp, #8
 1609 0014 0290     		str	r0, [sp, #8]
 1610 0016 4820     		movs	r0, #72
 1611 0018 ADF80C10 		strh	r1, [sp, #12]	@ movhi
 1612 001c 8DF80E30 		strb	r3, [sp, #14]
 1613 0020 8DF80F50 		strb	r5, [sp, #15]
 1614 0024 CDE90062 		strd	r6, r2, [sp]
 1615 0028 FFF7FEFF 		bl	_Znwj
 1616 002c 1C4B     		ldr	r3, .L355+4
 1617 002e 0446     		mov	r4, r0
 1618 0030 4563     		str	r5, [r0, #52]
 1619 0032 0360     		str	r3, [r0]
 1620 0034 00F13803 		add	r3, r0, #56
 1621 0038 80F83850 		strb	r5, [r0, #56]
 1622 003c 6946     		mov	r1, sp
 1623 003e 0363     		str	r3, [r0, #48]
 1624 0040 3030     		adds	r0, r0, #48
 1625 0042 00F8147C 		strb	r7, [r0, #-20]
 1626 0046 FFF7FEFF 		bl	_ZNSt7__cxx1112basic_stringIcSt11char_traitsIcESaIcEE9_M_assignERKS4_
 1627 004a 0023     		movs	r3, #0
 1628 004c 2420     		movs	r0, #36
 1629 004e E360     		str	r3, [r4, #12]	@ float
 1630 0050 6360     		str	r3, [r4, #4]	@ float
 1631 0052 4FF08443 		mov	r3, #1107296256
 1632 0056 A360     		str	r3, [r4, #8]	@ float
 1633 0058 124B     		ldr	r3, .L355+8
ARM GAS  /var/folders/sy/x1dkwsgj58j1lmy_hry3vpdm0000gn/T//cch4V49g.s 			page 29


 1634 005a A362     		str	r3, [r4, #40]	@ float
 1635 005c A361     		str	r3, [r4, #24]	@ float
 1636 005e 124B     		ldr	r3, .L355+12
 1637 0060 6362     		str	r3, [r4, #36]	@ float
 1638 0062 124B     		ldr	r3, .L355+16
 1639 0064 E362     		str	r3, [r4, #44]	@ float
 1640 0066 FFF7FEFF 		bl	_Znwj
 1641 006a 114B     		ldr	r3, .L355+20
 1642 006c 4FF0FF32 		mov	r2, #-1
 1643 0070 0770     		strb	r7, [r0]
 1644 0072 2360     		str	r3, [r4]
 1645 0074 009B     		ldr	r3, [sp]
 1646 0076 C460     		str	r4, [r0, #12]
 1647 0078 B342     		cmp	r3, r6
 1648 007a 2061     		str	r0, [r4, #16]
 1649 007c 0262     		str	r2, [r0, #32]
 1650 007e C0E90155 		strd	r5, r5, [r0, #4]
 1651 0082 C0E90455 		strd	r5, r5, [r0, #16]
 1652 0086 C0E90655 		strd	r5, r5, [r0, #24]
 1653 008a 04D0     		beq	.L352
 1654 008c 0299     		ldr	r1, [sp, #8]
 1655 008e 1846     		mov	r0, r3
 1656 0090 3944     		add	r1, r1, r7
 1657 0092 FFF7FEFF 		bl	_ZdlPvj
 1658              	.L352:
 1659 0096 2046     		mov	r0, r4
 1660 0098 07B0     		add	sp, sp, #28
 1661              		@ sp needed
 1662 009a F0BD     		pop	{r4, r5, r6, r7, pc}
 1663              	.L356:
 1664              		.align	2
 1665              	.L355:
 1666 009c 00000000 		.word	.LC1
 1667 00a0 08000000 		.word	_ZTV12NumericParam+8
 1668 00a4 6F12833A 		.word	981668463
 1669 00a8 0AD7233C 		.word	1008981770
 1670 00ac CDCC4C3E 		.word	1045220557
 1671 00b0 08000000 		.word	_ZTV12PercentParam+8
 1673              		.section	.text._Z16createFreqModSubv,"ax",%progbits
 1674              		.align	1
 1675              		.p2align 2,,3
 1676              		.global	_Z16createFreqModSubv
 1677              		.syntax unified
 1678              		.thumb
 1679              		.thumb_func
 1680              		.fpu fpv5-d16
 1682              	_Z16createFreqModSubv:
 1683              		@ args = 0, pretend = 0, frame = 24
 1684              		@ frame_needed = 0, uses_anonymous_args = 0
 1685 0000 274B     		ldr	r3, .L360
 1686 0002 0722     		movs	r2, #7
 1687 0004 F0B5     		push	{r4, r5, r6, r7, lr}
 1688 0006 93E80300 		ldm	r3, {r0, r1}
 1689 000a 87B0     		sub	sp, sp, #28
 1690 000c 0025     		movs	r5, #0
 1691 000e 0B0C     		lsrs	r3, r1, #16
 1692 0010 0127     		movs	r7, #1
ARM GAS  /var/folders/sy/x1dkwsgj58j1lmy_hry3vpdm0000gn/T//cch4V49g.s 			page 30


 1693 0012 02AE     		add	r6, sp, #8
 1694 0014 0290     		str	r0, [sp, #8]
 1695 0016 4820     		movs	r0, #72
 1696 0018 ADF80C10 		strh	r1, [sp, #12]	@ movhi
 1697 001c 8DF80E30 		strb	r3, [sp, #14]
 1698 0020 8DF80F50 		strb	r5, [sp, #15]
 1699 0024 CDE90062 		strd	r6, r2, [sp]
 1700 0028 FFF7FEFF 		bl	_Znwj
 1701 002c 1D4B     		ldr	r3, .L360+4
 1702 002e 0446     		mov	r4, r0
 1703 0030 4563     		str	r5, [r0, #52]
 1704 0032 0360     		str	r3, [r0]
 1705 0034 00F13803 		add	r3, r0, #56
 1706 0038 80F83850 		strb	r5, [r0, #56]
 1707 003c 6946     		mov	r1, sp
 1708 003e 0363     		str	r3, [r0, #48]
 1709 0040 3030     		adds	r0, r0, #48
 1710 0042 00F8147C 		strb	r7, [r0, #-20]
 1711 0046 FFF7FEFF 		bl	_ZNSt7__cxx1112basic_stringIcSt11char_traitsIcESaIcEE9_M_assignERKS4_
 1712 004a 4FF07A53 		mov	r3, #1048576000
 1713 004e 2420     		movs	r0, #36
 1714 0050 E360     		str	r3, [r4, #12]	@ float
 1715 0052 0023     		movs	r3, #0
 1716 0054 6360     		str	r3, [r4, #4]	@ float
 1717 0056 4FF08243 		mov	r3, #1090519040
 1718 005a A360     		str	r3, [r4, #8]	@ float
 1719 005c 124B     		ldr	r3, .L360+8
 1720 005e A362     		str	r3, [r4, #40]	@ float
 1721 0060 A361     		str	r3, [r4, #24]	@ float
 1722 0062 124B     		ldr	r3, .L360+12
 1723 0064 6362     		str	r3, [r4, #36]	@ float
 1724 0066 124B     		ldr	r3, .L360+16
 1725 0068 E362     		str	r3, [r4, #44]	@ float
 1726 006a FFF7FEFF 		bl	_Znwj
 1727 006e 114B     		ldr	r3, .L360+20
 1728 0070 4FF0FF32 		mov	r2, #-1
 1729 0074 0770     		strb	r7, [r0]
 1730 0076 2360     		str	r3, [r4]
 1731 0078 009B     		ldr	r3, [sp]
 1732 007a C460     		str	r4, [r0, #12]
 1733 007c B342     		cmp	r3, r6
 1734 007e 2061     		str	r0, [r4, #16]
 1735 0080 0262     		str	r2, [r0, #32]
 1736 0082 C0E90155 		strd	r5, r5, [r0, #4]
 1737 0086 C0E90455 		strd	r5, r5, [r0, #16]
 1738 008a C0E90655 		strd	r5, r5, [r0, #24]
 1739 008e 04D0     		beq	.L357
 1740 0090 0299     		ldr	r1, [sp, #8]
 1741 0092 1846     		mov	r0, r3
 1742 0094 3944     		add	r1, r1, r7
 1743 0096 FFF7FEFF 		bl	_ZdlPvj
 1744              	.L357:
 1745 009a 2046     		mov	r0, r4
 1746 009c 07B0     		add	sp, sp, #28
 1747              		@ sp needed
 1748 009e F0BD     		pop	{r4, r5, r6, r7, pc}
 1749              	.L361:
ARM GAS  /var/folders/sy/x1dkwsgj58j1lmy_hry3vpdm0000gn/T//cch4V49g.s 			page 31


 1750              		.align	2
 1751              	.L360:
 1752 00a0 00000000 		.word	.LC1
 1753 00a4 08000000 		.word	_ZTV12NumericParam+8
 1754 00a8 6F12833A 		.word	981668463
 1755 00ac 0AD7233C 		.word	1008981770
 1756 00b0 CDCC4C3D 		.word	1028443341
 1757 00b4 08000000 		.word	_ZTV12PercentParam+8
 1759              		.section	.text._Z16createFreqModAddv,"ax",%progbits
 1760              		.align	1
 1761              		.p2align 2,,3
 1762              		.global	_Z16createFreqModAddv
 1763              		.syntax unified
 1764              		.thumb
 1765              		.thumb_func
 1766              		.fpu fpv5-d16
 1768              	_Z16createFreqModAddv:
 1769              		@ args = 0, pretend = 0, frame = 24
 1770              		@ frame_needed = 0, uses_anonymous_args = 0
 1771 0000 274B     		ldr	r3, .L365
 1772 0002 0722     		movs	r2, #7
 1773 0004 F0B5     		push	{r4, r5, r6, r7, lr}
 1774 0006 93E80300 		ldm	r3, {r0, r1}
 1775 000a 87B0     		sub	sp, sp, #28
 1776 000c 0025     		movs	r5, #0
 1777 000e 0B0C     		lsrs	r3, r1, #16
 1778 0010 0127     		movs	r7, #1
 1779 0012 02AE     		add	r6, sp, #8
 1780 0014 0290     		str	r0, [sp, #8]
 1781 0016 4820     		movs	r0, #72
 1782 0018 ADF80C10 		strh	r1, [sp, #12]	@ movhi
 1783 001c 8DF80E30 		strb	r3, [sp, #14]
 1784 0020 8DF80F50 		strb	r5, [sp, #15]
 1785 0024 CDE90062 		strd	r6, r2, [sp]
 1786 0028 FFF7FEFF 		bl	_Znwj
 1787 002c 1D4B     		ldr	r3, .L365+4
 1788 002e 0446     		mov	r4, r0
 1789 0030 4563     		str	r5, [r0, #52]
 1790 0032 0360     		str	r3, [r0]
 1791 0034 00F13803 		add	r3, r0, #56
 1792 0038 80F83850 		strb	r5, [r0, #56]
 1793 003c 6946     		mov	r1, sp
 1794 003e 0363     		str	r3, [r0, #48]
 1795 0040 3030     		adds	r0, r0, #48
 1796 0042 00F8147C 		strb	r7, [r0, #-20]
 1797 0046 FFF7FEFF 		bl	_ZNSt7__cxx1112basic_stringIcSt11char_traitsIcESaIcEE9_M_assignERKS4_
 1798 004a 4FF07C53 		mov	r3, #1056964608
 1799 004e 2420     		movs	r0, #36
 1800 0050 E360     		str	r3, [r4, #12]	@ float
 1801 0052 0023     		movs	r3, #0
 1802 0054 6360     		str	r3, [r4, #4]	@ float
 1803 0056 4FF08243 		mov	r3, #1090519040
 1804 005a A360     		str	r3, [r4, #8]	@ float
 1805 005c 124B     		ldr	r3, .L365+8
 1806 005e A362     		str	r3, [r4, #40]	@ float
 1807 0060 A361     		str	r3, [r4, #24]	@ float
 1808 0062 124B     		ldr	r3, .L365+12
ARM GAS  /var/folders/sy/x1dkwsgj58j1lmy_hry3vpdm0000gn/T//cch4V49g.s 			page 32


 1809 0064 6362     		str	r3, [r4, #36]	@ float
 1810 0066 124B     		ldr	r3, .L365+16
 1811 0068 E362     		str	r3, [r4, #44]	@ float
 1812 006a FFF7FEFF 		bl	_Znwj
 1813 006e 114B     		ldr	r3, .L365+20
 1814 0070 4FF0FF32 		mov	r2, #-1
 1815 0074 0770     		strb	r7, [r0]
 1816 0076 2360     		str	r3, [r4]
 1817 0078 009B     		ldr	r3, [sp]
 1818 007a C460     		str	r4, [r0, #12]
 1819 007c B342     		cmp	r3, r6
 1820 007e 2061     		str	r0, [r4, #16]
 1821 0080 0262     		str	r2, [r0, #32]
 1822 0082 C0E90155 		strd	r5, r5, [r0, #4]
 1823 0086 C0E90455 		strd	r5, r5, [r0, #16]
 1824 008a C0E90655 		strd	r5, r5, [r0, #24]
 1825 008e 04D0     		beq	.L362
 1826 0090 0299     		ldr	r1, [sp, #8]
 1827 0092 1846     		mov	r0, r3
 1828 0094 3944     		add	r1, r1, r7
 1829 0096 FFF7FEFF 		bl	_ZdlPvj
 1830              	.L362:
 1831 009a 2046     		mov	r0, r4
 1832 009c 07B0     		add	sp, sp, #28
 1833              		@ sp needed
 1834 009e F0BD     		pop	{r4, r5, r6, r7, pc}
 1835              	.L366:
 1836              		.align	2
 1837              	.L365:
 1838 00a0 00000000 		.word	.LC2
 1839 00a4 08000000 		.word	_ZTV12NumericParam+8
 1840 00a8 6F12833A 		.word	981668463
 1841 00ac 0AD7233C 		.word	1008981770
 1842 00b0 CDCC4C3D 		.word	1028443341
 1843 00b4 08000000 		.word	_ZTV12PercentParam+8
 1845              		.section	.text._Z18createDetuneModAddv,"ax",%progbits
 1846              		.align	1
 1847              		.p2align 2,,3
 1848              		.global	_Z18createDetuneModAddv
 1849              		.syntax unified
 1850              		.thumb
 1851              		.thumb_func
 1852              		.fpu fpv5-d16
 1854              	_Z18createDetuneModAddv:
 1855              		@ args = 0, pretend = 0, frame = 24
 1856              		@ frame_needed = 0, uses_anonymous_args = 0
 1857 0000 264B     		ldr	r3, .L370
 1858 0002 0722     		movs	r2, #7
 1859 0004 F0B5     		push	{r4, r5, r6, r7, lr}
 1860 0006 93E80300 		ldm	r3, {r0, r1}
 1861 000a 87B0     		sub	sp, sp, #28
 1862 000c 0025     		movs	r5, #0
 1863 000e 0B0C     		lsrs	r3, r1, #16
 1864 0010 0127     		movs	r7, #1
 1865 0012 02AE     		add	r6, sp, #8
 1866 0014 0290     		str	r0, [sp, #8]
 1867 0016 4820     		movs	r0, #72
ARM GAS  /var/folders/sy/x1dkwsgj58j1lmy_hry3vpdm0000gn/T//cch4V49g.s 			page 33


 1868 0018 ADF80C10 		strh	r1, [sp, #12]	@ movhi
 1869 001c 8DF80E30 		strb	r3, [sp, #14]
 1870 0020 8DF80F50 		strb	r5, [sp, #15]
 1871 0024 CDE90062 		strd	r6, r2, [sp]
 1872 0028 FFF7FEFF 		bl	_Znwj
 1873 002c 1C4B     		ldr	r3, .L370+4
 1874 002e 0446     		mov	r4, r0
 1875 0030 4563     		str	r5, [r0, #52]
 1876 0032 0360     		str	r3, [r0]
 1877 0034 00F13803 		add	r3, r0, #56
 1878 0038 80F83850 		strb	r5, [r0, #56]
 1879 003c 6946     		mov	r1, sp
 1880 003e 0363     		str	r3, [r0, #48]
 1881 0040 3030     		adds	r0, r0, #48
 1882 0042 00F8147C 		strb	r7, [r0, #-20]
 1883 0046 FFF7FEFF 		bl	_ZNSt7__cxx1112basic_stringIcSt11char_traitsIcESaIcEE9_M_assignERKS4_
 1884 004a 4FF07E53 		mov	r3, #1065353216
 1885 004e 2420     		movs	r0, #36
 1886 0050 E360     		str	r3, [r4, #12]	@ float
 1887 0052 E362     		str	r3, [r4, #44]	@ float
 1888 0054 6362     		str	r3, [r4, #36]	@ float
 1889 0056 134B     		ldr	r3, .L370+8
 1890 0058 A362     		str	r3, [r4, #40]	@ float
 1891 005a A361     		str	r3, [r4, #24]	@ float
 1892 005c 124B     		ldr	r3, .L370+12
 1893 005e 6360     		str	r3, [r4, #4]	@ float
 1894 0060 124B     		ldr	r3, .L370+16
 1895 0062 A360     		str	r3, [r4, #8]	@ float
 1896 0064 FFF7FEFF 		bl	_Znwj
 1897 0068 114B     		ldr	r3, .L370+20
 1898 006a 4FF0FF32 		mov	r2, #-1
 1899 006e 0770     		strb	r7, [r0]
 1900 0070 2360     		str	r3, [r4]
 1901 0072 009B     		ldr	r3, [sp]
 1902 0074 C460     		str	r4, [r0, #12]
 1903 0076 B342     		cmp	r3, r6
 1904 0078 2061     		str	r0, [r4, #16]
 1905 007a 0262     		str	r2, [r0, #32]
 1906 007c C0E90155 		strd	r5, r5, [r0, #4]
 1907 0080 C0E90455 		strd	r5, r5, [r0, #16]
 1908 0084 C0E90655 		strd	r5, r5, [r0, #24]
 1909 0088 04D0     		beq	.L367
 1910 008a 0299     		ldr	r1, [sp, #8]
 1911 008c 1846     		mov	r0, r3
 1912 008e 3944     		add	r1, r1, r7
 1913 0090 FFF7FEFF 		bl	_ZdlPvj
 1914              	.L367:
 1915 0094 2046     		mov	r0, r4
 1916 0096 07B0     		add	sp, sp, #28
 1917              		@ sp needed
 1918 0098 F0BD     		pop	{r4, r5, r6, r7, pc}
 1919              	.L371:
 1920 009a 00BF     		.align	2
 1921              	.L370:
 1922 009c 00000000 		.word	.LC2
 1923 00a0 08000000 		.word	_ZTV12NumericParam+8
 1924 00a4 0AD7233C 		.word	1008981770
ARM GAS  /var/folders/sy/x1dkwsgj58j1lmy_hry3vpdm0000gn/T//cch4V49g.s 			page 34


 1925 00a8 0000B0C2 		.word	-1028653056
 1926 00ac 0000B042 		.word	1118830592
 1927 00b0 08000000 		.word	_ZTV10FloatParam+8
 1929              		.section	.text._Z32createZeroToHundredPercentModAddv,"ax",%progbits
 1930              		.align	1
 1931              		.p2align 2,,3
 1932              		.global	_Z32createZeroToHundredPercentModAddv
 1933              		.syntax unified
 1934              		.thumb
 1935              		.thumb_func
 1936              		.fpu fpv5-d16
 1938              	_Z32createZeroToHundredPercentModAddv:
 1939              		@ args = 0, pretend = 0, frame = 24
 1940              		@ frame_needed = 0, uses_anonymous_args = 0
 1941 0000 264B     		ldr	r3, .L375
 1942 0002 0722     		movs	r2, #7
 1943 0004 F0B5     		push	{r4, r5, r6, r7, lr}
 1944 0006 93E80300 		ldm	r3, {r0, r1}
 1945 000a 87B0     		sub	sp, sp, #28
 1946 000c 0025     		movs	r5, #0
 1947 000e 0B0C     		lsrs	r3, r1, #16
 1948 0010 0127     		movs	r7, #1
 1949 0012 02AE     		add	r6, sp, #8
 1950 0014 0290     		str	r0, [sp, #8]
 1951 0016 4820     		movs	r0, #72
 1952 0018 ADF80C10 		strh	r1, [sp, #12]	@ movhi
 1953 001c 8DF80E30 		strb	r3, [sp, #14]
 1954 0020 8DF80F50 		strb	r5, [sp, #15]
 1955 0024 CDE90062 		strd	r6, r2, [sp]
 1956 0028 FFF7FEFF 		bl	_Znwj
 1957 002c 1C4B     		ldr	r3, .L375+4
 1958 002e 0446     		mov	r4, r0
 1959 0030 4563     		str	r5, [r0, #52]
 1960 0032 0360     		str	r3, [r0]
 1961 0034 00F13803 		add	r3, r0, #56
 1962 0038 80F83850 		strb	r5, [r0, #56]
 1963 003c 6946     		mov	r1, sp
 1964 003e 0363     		str	r3, [r0, #48]
 1965 0040 3030     		adds	r0, r0, #48
 1966 0042 00F8147C 		strb	r7, [r0, #-20]
 1967 0046 FFF7FEFF 		bl	_ZNSt7__cxx1112basic_stringIcSt11char_traitsIcESaIcEE9_M_assignERKS4_
 1968 004a 4FF07E53 		mov	r3, #1065353216
 1969 004e 2420     		movs	r0, #36
 1970 0050 E360     		str	r3, [r4, #12]	@ float
 1971 0052 A360     		str	r3, [r4, #8]	@ float
 1972 0054 134B     		ldr	r3, .L375+8
 1973 0056 A362     		str	r3, [r4, #40]	@ float
 1974 0058 A361     		str	r3, [r4, #24]	@ float
 1975 005a 134B     		ldr	r3, .L375+12
 1976 005c 6362     		str	r3, [r4, #36]	@ float
 1977 005e 0023     		movs	r3, #0
 1978 0060 6360     		str	r3, [r4, #4]	@ float
 1979 0062 124B     		ldr	r3, .L375+16
 1980 0064 E362     		str	r3, [r4, #44]	@ float
 1981 0066 FFF7FEFF 		bl	_Znwj
 1982 006a 114B     		ldr	r3, .L375+20
 1983 006c 4FF0FF32 		mov	r2, #-1
ARM GAS  /var/folders/sy/x1dkwsgj58j1lmy_hry3vpdm0000gn/T//cch4V49g.s 			page 35


 1984 0070 0770     		strb	r7, [r0]
 1985 0072 2360     		str	r3, [r4]
 1986 0074 009B     		ldr	r3, [sp]
 1987 0076 C460     		str	r4, [r0, #12]
 1988 0078 B342     		cmp	r3, r6
 1989 007a 2061     		str	r0, [r4, #16]
 1990 007c 0262     		str	r2, [r0, #32]
 1991 007e C0E90155 		strd	r5, r5, [r0, #4]
 1992 0082 C0E90455 		strd	r5, r5, [r0, #16]
 1993 0086 C0E90655 		strd	r5, r5, [r0, #24]
 1994 008a 04D0     		beq	.L372
 1995 008c 0299     		ldr	r1, [sp, #8]
 1996 008e 1846     		mov	r0, r3
 1997 0090 3944     		add	r1, r1, r7
 1998 0092 FFF7FEFF 		bl	_ZdlPvj
 1999              	.L372:
 2000 0096 2046     		mov	r0, r4
 2001 0098 07B0     		add	sp, sp, #28
 2002              		@ sp needed
 2003 009a F0BD     		pop	{r4, r5, r6, r7, pc}
 2004              	.L376:
 2005              		.align	2
 2006              	.L375:
 2007 009c 00000000 		.word	.LC2
 2008 00a0 08000000 		.word	_ZTV12NumericParam+8
 2009 00a4 6F12833A 		.word	981668463
 2010 00a8 0AD7233C 		.word	1008981770
 2011 00ac CDCC4C3D 		.word	1028443341
 2012 00b0 08000000 		.word	_ZTV12PercentParam+8
 2014              		.section	.text._Z18createDetuneModSubv,"ax",%progbits
 2015              		.align	1
 2016              		.p2align 2,,3
 2017              		.global	_Z18createDetuneModSubv
 2018              		.syntax unified
 2019              		.thumb
 2020              		.thumb_func
 2021              		.fpu fpv5-d16
 2023              	_Z18createDetuneModSubv:
 2024              		@ args = 0, pretend = 0, frame = 24
 2025              		@ frame_needed = 0, uses_anonymous_args = 0
 2026 0000 264B     		ldr	r3, .L380
 2027 0002 0722     		movs	r2, #7
 2028 0004 F0B5     		push	{r4, r5, r6, r7, lr}
 2029 0006 93E80300 		ldm	r3, {r0, r1}
 2030 000a 87B0     		sub	sp, sp, #28
 2031 000c 0025     		movs	r5, #0
 2032 000e 0B0C     		lsrs	r3, r1, #16
 2033 0010 0127     		movs	r7, #1
 2034 0012 02AE     		add	r6, sp, #8
 2035 0014 0290     		str	r0, [sp, #8]
 2036 0016 4820     		movs	r0, #72
 2037 0018 ADF80C10 		strh	r1, [sp, #12]	@ movhi
 2038 001c 8DF80E30 		strb	r3, [sp, #14]
 2039 0020 8DF80F50 		strb	r5, [sp, #15]
 2040 0024 CDE90062 		strd	r6, r2, [sp]
 2041 0028 FFF7FEFF 		bl	_Znwj
 2042 002c 1C4B     		ldr	r3, .L380+4
ARM GAS  /var/folders/sy/x1dkwsgj58j1lmy_hry3vpdm0000gn/T//cch4V49g.s 			page 36


 2043 002e 0446     		mov	r4, r0
 2044 0030 4563     		str	r5, [r0, #52]
 2045 0032 0360     		str	r3, [r0]
 2046 0034 00F13803 		add	r3, r0, #56
 2047 0038 80F83850 		strb	r5, [r0, #56]
 2048 003c 6946     		mov	r1, sp
 2049 003e 0363     		str	r3, [r0, #48]
 2050 0040 3030     		adds	r0, r0, #48
 2051 0042 00F8147C 		strb	r7, [r0, #-20]
 2052 0046 FFF7FEFF 		bl	_ZNSt7__cxx1112basic_stringIcSt11char_traitsIcESaIcEE9_M_assignERKS4_
 2053 004a 4FF07E53 		mov	r3, #1065353216
 2054 004e 2420     		movs	r0, #36
 2055 0050 E360     		str	r3, [r4, #12]	@ float
 2056 0052 E362     		str	r3, [r4, #44]	@ float
 2057 0054 6362     		str	r3, [r4, #36]	@ float
 2058 0056 134B     		ldr	r3, .L380+8
 2059 0058 A362     		str	r3, [r4, #40]	@ float
 2060 005a A361     		str	r3, [r4, #24]	@ float
 2061 005c 124B     		ldr	r3, .L380+12
 2062 005e 6360     		str	r3, [r4, #4]	@ float
 2063 0060 124B     		ldr	r3, .L380+16
 2064 0062 A360     		str	r3, [r4, #8]	@ float
 2065 0064 FFF7FEFF 		bl	_Znwj
 2066 0068 114B     		ldr	r3, .L380+20
 2067 006a 4FF0FF32 		mov	r2, #-1
 2068 006e 0770     		strb	r7, [r0]
 2069 0070 2360     		str	r3, [r4]
 2070 0072 009B     		ldr	r3, [sp]
 2071 0074 C460     		str	r4, [r0, #12]
 2072 0076 B342     		cmp	r3, r6
 2073 0078 2061     		str	r0, [r4, #16]
 2074 007a 0262     		str	r2, [r0, #32]
 2075 007c C0E90155 		strd	r5, r5, [r0, #4]
 2076 0080 C0E90455 		strd	r5, r5, [r0, #16]
 2077 0084 C0E90655 		strd	r5, r5, [r0, #24]
 2078 0088 04D0     		beq	.L377
 2079 008a 0299     		ldr	r1, [sp, #8]
 2080 008c 1846     		mov	r0, r3
 2081 008e 3944     		add	r1, r1, r7
 2082 0090 FFF7FEFF 		bl	_ZdlPvj
 2083              	.L377:
 2084 0094 2046     		mov	r0, r4
 2085 0096 07B0     		add	sp, sp, #28
 2086              		@ sp needed
 2087 0098 F0BD     		pop	{r4, r5, r6, r7, pc}
 2088              	.L381:
 2089 009a 00BF     		.align	2
 2090              	.L380:
 2091 009c 00000000 		.word	.LC1
 2092 00a0 08000000 		.word	_ZTV12NumericParam+8
 2093 00a4 0AD7233C 		.word	1008981770
 2094 00a8 0000B0C2 		.word	-1028653056
 2095 00ac 0000B042 		.word	1118830592
 2096 00b0 08000000 		.word	_ZTV10FloatParam+8
 2098              		.section	.text._Z15createBPMModAddv,"ax",%progbits
 2099              		.align	1
 2100              		.p2align 2,,3
ARM GAS  /var/folders/sy/x1dkwsgj58j1lmy_hry3vpdm0000gn/T//cch4V49g.s 			page 37


 2101              		.global	_Z15createBPMModAddv
 2102              		.syntax unified
 2103              		.thumb
 2104              		.thumb_func
 2105              		.fpu fpv5-d16
 2107              	_Z15createBPMModAddv:
 2108              		@ args = 0, pretend = 0, frame = 24
 2109              		@ frame_needed = 0, uses_anonymous_args = 0
 2110 0000 264B     		ldr	r3, .L385
 2111 0002 0722     		movs	r2, #7
 2112 0004 F0B5     		push	{r4, r5, r6, r7, lr}
 2113 0006 93E80300 		ldm	r3, {r0, r1}
 2114 000a 87B0     		sub	sp, sp, #28
 2115 000c 0025     		movs	r5, #0
 2116 000e 0B0C     		lsrs	r3, r1, #16
 2117 0010 0127     		movs	r7, #1
 2118 0012 02AE     		add	r6, sp, #8
 2119 0014 0290     		str	r0, [sp, #8]
 2120 0016 4820     		movs	r0, #72
 2121 0018 ADF80C10 		strh	r1, [sp, #12]	@ movhi
 2122 001c 8DF80E30 		strb	r3, [sp, #14]
 2123 0020 8DF80F50 		strb	r5, [sp, #15]
 2124 0024 CDE90062 		strd	r6, r2, [sp]
 2125 0028 FFF7FEFF 		bl	_Znwj
 2126 002c 1C4B     		ldr	r3, .L385+4
 2127 002e 0446     		mov	r4, r0
 2128 0030 4563     		str	r5, [r0, #52]
 2129 0032 0360     		str	r3, [r0]
 2130 0034 00F13803 		add	r3, r0, #56
 2131 0038 80F83850 		strb	r5, [r0, #56]
 2132 003c 6946     		mov	r1, sp
 2133 003e 0363     		str	r3, [r0, #48]
 2134 0040 3030     		adds	r0, r0, #48
 2135 0042 00F8147C 		strb	r7, [r0, #-20]
 2136 0046 FFF7FEFF 		bl	_ZNSt7__cxx1112basic_stringIcSt11char_traitsIcESaIcEE9_M_assignERKS4_
 2137 004a 4FF07E53 		mov	r3, #1065353216
 2138 004e 2420     		movs	r0, #36
 2139 0050 E360     		str	r3, [r4, #12]	@ float
 2140 0052 E362     		str	r3, [r4, #44]	@ float
 2141 0054 6362     		str	r3, [r4, #36]	@ float
 2142 0056 134B     		ldr	r3, .L385+8
 2143 0058 A362     		str	r3, [r4, #40]	@ float
 2144 005a A361     		str	r3, [r4, #24]	@ float
 2145 005c 0023     		movs	r3, #0
 2146 005e 6360     		str	r3, [r4, #4]	@ float
 2147 0060 114B     		ldr	r3, .L385+12
 2148 0062 A360     		str	r3, [r4, #8]	@ float
 2149 0064 FFF7FEFF 		bl	_Znwj
 2150 0068 104B     		ldr	r3, .L385+16
 2151 006a 4FF0FF32 		mov	r2, #-1
 2152 006e 0770     		strb	r7, [r0]
 2153 0070 2360     		str	r3, [r4]
 2154 0072 009B     		ldr	r3, [sp]
 2155 0074 C460     		str	r4, [r0, #12]
 2156 0076 B342     		cmp	r3, r6
 2157 0078 2061     		str	r0, [r4, #16]
 2158 007a 0262     		str	r2, [r0, #32]
ARM GAS  /var/folders/sy/x1dkwsgj58j1lmy_hry3vpdm0000gn/T//cch4V49g.s 			page 38


 2159 007c C0E90155 		strd	r5, r5, [r0, #4]
 2160 0080 C0E90455 		strd	r5, r5, [r0, #16]
 2161 0084 C0E90655 		strd	r5, r5, [r0, #24]
 2162 0088 04D0     		beq	.L382
 2163 008a 0299     		ldr	r1, [sp, #8]
 2164 008c 1846     		mov	r0, r3
 2165 008e 3944     		add	r1, r1, r7
 2166 0090 FFF7FEFF 		bl	_ZdlPvj
 2167              	.L382:
 2168 0094 2046     		mov	r0, r4
 2169 0096 07B0     		add	sp, sp, #28
 2170              		@ sp needed
 2171 0098 F0BD     		pop	{r4, r5, r6, r7, pc}
 2172              	.L386:
 2173 009a 00BF     		.align	2
 2174              	.L385:
 2175 009c 00000000 		.word	.LC2
 2176 00a0 08000000 		.word	_ZTV12NumericParam+8
 2177 00a4 0AD7233C 		.word	1008981770
 2178 00a8 00007042 		.word	1114636288
 2179 00ac 08000000 		.word	_ZTV10FloatParam+8
 2181              		.section	.text._Z19createRawFreqModSubv,"ax",%progbits
 2182              		.align	1
 2183              		.p2align 2,,3
 2184              		.global	_Z19createRawFreqModSubv
 2185              		.syntax unified
 2186              		.thumb
 2187              		.thumb_func
 2188              		.fpu fpv5-d16
 2190              	_Z19createRawFreqModSubv:
 2191              		@ args = 0, pretend = 0, frame = 24
 2192              		@ frame_needed = 0, uses_anonymous_args = 0
 2193 0000 264B     		ldr	r3, .L390
 2194 0002 0722     		movs	r2, #7
 2195 0004 F0B5     		push	{r4, r5, r6, r7, lr}
 2196 0006 93E80300 		ldm	r3, {r0, r1}
 2197 000a 87B0     		sub	sp, sp, #28
 2198 000c 0025     		movs	r5, #0
 2199 000e 0B0C     		lsrs	r3, r1, #16
 2200 0010 0127     		movs	r7, #1
 2201 0012 02AE     		add	r6, sp, #8
 2202 0014 0290     		str	r0, [sp, #8]
 2203 0016 4820     		movs	r0, #72
 2204 0018 ADF80C10 		strh	r1, [sp, #12]	@ movhi
 2205 001c 8DF80E30 		strb	r3, [sp, #14]
 2206 0020 8DF80F50 		strb	r5, [sp, #15]
 2207 0024 CDE90062 		strd	r6, r2, [sp]
 2208 0028 FFF7FEFF 		bl	_Znwj
 2209 002c 1C4B     		ldr	r3, .L390+4
 2210 002e 0446     		mov	r4, r0
 2211 0030 4563     		str	r5, [r0, #52]
 2212 0032 0360     		str	r3, [r0]
 2213 0034 00F13803 		add	r3, r0, #56
 2214 0038 80F83850 		strb	r5, [r0, #56]
 2215 003c 6946     		mov	r1, sp
 2216 003e 0363     		str	r3, [r0, #48]
 2217 0040 3030     		adds	r0, r0, #48
ARM GAS  /var/folders/sy/x1dkwsgj58j1lmy_hry3vpdm0000gn/T//cch4V49g.s 			page 39


 2218 0042 00F8147C 		strb	r7, [r0, #-20]
 2219 0046 FFF7FEFF 		bl	_ZNSt7__cxx1112basic_stringIcSt11char_traitsIcESaIcEE9_M_assignERKS4_
 2220 004a 164B     		ldr	r3, .L390+8
 2221 004c 2420     		movs	r0, #36
 2222 004e E360     		str	r3, [r4, #12]	@ float
 2223 0050 0023     		movs	r3, #0
 2224 0052 6360     		str	r3, [r4, #4]	@ float
 2225 0054 144B     		ldr	r3, .L390+12
 2226 0056 A360     		str	r3, [r4, #8]	@ float
 2227 0058 144B     		ldr	r3, .L390+16
 2228 005a A362     		str	r3, [r4, #40]	@ float
 2229 005c A361     		str	r3, [r4, #24]	@ float
 2230 005e 144B     		ldr	r3, .L390+20
 2231 0060 E362     		str	r3, [r4, #44]	@ float
 2232 0062 6362     		str	r3, [r4, #36]	@ float
 2233 0064 FFF7FEFF 		bl	_Znwj
 2234 0068 124B     		ldr	r3, .L390+24
 2235 006a 4FF0FF32 		mov	r2, #-1
 2236 006e 0770     		strb	r7, [r0]
 2237 0070 2360     		str	r3, [r4]
 2238 0072 009B     		ldr	r3, [sp]
 2239 0074 C460     		str	r4, [r0, #12]
 2240 0076 B342     		cmp	r3, r6
 2241 0078 2061     		str	r0, [r4, #16]
 2242 007a 0262     		str	r2, [r0, #32]
 2243 007c C0E90155 		strd	r5, r5, [r0, #4]
 2244 0080 C0E90455 		strd	r5, r5, [r0, #16]
 2245 0084 C0E90655 		strd	r5, r5, [r0, #24]
 2246 0088 04D0     		beq	.L387
 2247 008a 0299     		ldr	r1, [sp, #8]
 2248 008c 1846     		mov	r0, r3
 2249 008e 3944     		add	r1, r1, r7
 2250 0090 FFF7FEFF 		bl	_ZdlPvj
 2251              	.L387:
 2252 0094 2046     		mov	r0, r4
 2253 0096 07B0     		add	sp, sp, #28
 2254              		@ sp needed
 2255 0098 F0BD     		pop	{r4, r5, r6, r7, pc}
 2256              	.L391:
 2257 009a 00BF     		.align	2
 2258              	.L390:
 2259 009c 00000000 		.word	.LC1
 2260 00a0 08000000 		.word	_ZTV12NumericParam+8
 2261 00a4 0000FA44 		.word	1157234688
 2262 00a8 00401C47 		.word	1193033728
 2263 00ac 0AD7233C 		.word	1008981770
 2264 00b0 00004842 		.word	1112014848
 2265 00b4 08000000 		.word	_ZTV10FloatParam+8
 2267              		.section	.text._Z20createDivisionModSubv,"ax",%progbits
 2268              		.align	1
 2269              		.p2align 2,,3
 2270              		.global	_Z20createDivisionModSubv
 2271              		.syntax unified
 2272              		.thumb
 2273              		.thumb_func
 2274              		.fpu fpv5-d16
 2276              	_Z20createDivisionModSubv:
ARM GAS  /var/folders/sy/x1dkwsgj58j1lmy_hry3vpdm0000gn/T//cch4V49g.s 			page 40


 2277              		@ args = 0, pretend = 0, frame = 24
 2278              		@ frame_needed = 0, uses_anonymous_args = 0
 2279 0000 274B     		ldr	r3, .L395
 2280 0002 0722     		movs	r2, #7
 2281 0004 F0B5     		push	{r4, r5, r6, r7, lr}
 2282 0006 93E80300 		ldm	r3, {r0, r1}
 2283 000a 87B0     		sub	sp, sp, #28
 2284 000c 0025     		movs	r5, #0
 2285 000e 0B0C     		lsrs	r3, r1, #16
 2286 0010 0127     		movs	r7, #1
 2287 0012 02AE     		add	r6, sp, #8
 2288 0014 0290     		str	r0, [sp, #8]
 2289 0016 4820     		movs	r0, #72
 2290 0018 ADF80C10 		strh	r1, [sp, #12]	@ movhi
 2291 001c 8DF80E30 		strb	r3, [sp, #14]
 2292 0020 8DF80F50 		strb	r5, [sp, #15]
 2293 0024 CDE90062 		strd	r6, r2, [sp]
 2294 0028 FFF7FEFF 		bl	_Znwj
 2295 002c 1D4B     		ldr	r3, .L395+4
 2296 002e 0446     		mov	r4, r0
 2297 0030 4563     		str	r5, [r0, #52]
 2298 0032 0360     		str	r3, [r0]
 2299 0034 00F13803 		add	r3, r0, #56
 2300 0038 80F83850 		strb	r5, [r0, #56]
 2301 003c 6946     		mov	r1, sp
 2302 003e 0363     		str	r3, [r0, #48]
 2303 0040 3030     		adds	r0, r0, #48
 2304 0042 00F8147C 		strb	r7, [r0, #-20]
 2305 0046 FFF7FEFF 		bl	_ZNSt7__cxx1112basic_stringIcSt11char_traitsIcESaIcEE9_M_assignERKS4_
 2306 004a 4FF08143 		mov	r3, #1082130432
 2307 004e 2420     		movs	r0, #36
 2308 0050 E360     		str	r3, [r4, #12]	@ float
 2309 0052 0023     		movs	r3, #0
 2310 0054 6360     		str	r3, [r4, #4]	@ float
 2311 0056 4FF08243 		mov	r3, #1090519040
 2312 005a A360     		str	r3, [r4, #8]	@ float
 2313 005c 124B     		ldr	r3, .L395+8
 2314 005e A362     		str	r3, [r4, #40]	@ float
 2315 0060 A361     		str	r3, [r4, #24]	@ float
 2316 0062 4FF07E53 		mov	r3, #1065353216
 2317 0066 E362     		str	r3, [r4, #44]	@ float
 2318 0068 6362     		str	r3, [r4, #36]	@ float
 2319 006a FFF7FEFF 		bl	_Znwj
 2320 006e 0F4B     		ldr	r3, .L395+12
 2321 0070 4FF0FF32 		mov	r2, #-1
 2322 0074 0770     		strb	r7, [r0]
 2323 0076 2360     		str	r3, [r4]
 2324 0078 009B     		ldr	r3, [sp]
 2325 007a C460     		str	r4, [r0, #12]
 2326 007c B342     		cmp	r3, r6
 2327 007e 2061     		str	r0, [r4, #16]
 2328 0080 0262     		str	r2, [r0, #32]
 2329 0082 C0E90155 		strd	r5, r5, [r0, #4]
 2330 0086 C0E90455 		strd	r5, r5, [r0, #16]
 2331 008a C0E90655 		strd	r5, r5, [r0, #24]
 2332 008e 04D0     		beq	.L392
 2333 0090 0299     		ldr	r1, [sp, #8]
ARM GAS  /var/folders/sy/x1dkwsgj58j1lmy_hry3vpdm0000gn/T//cch4V49g.s 			page 41


 2334 0092 1846     		mov	r0, r3
 2335 0094 3944     		add	r1, r1, r7
 2336 0096 FFF7FEFF 		bl	_ZdlPvj
 2337              	.L392:
 2338 009a 2046     		mov	r0, r4
 2339 009c 07B0     		add	sp, sp, #28
 2340              		@ sp needed
 2341 009e F0BD     		pop	{r4, r5, r6, r7, pc}
 2342              	.L396:
 2343              		.align	2
 2344              	.L395:
 2345 00a0 00000000 		.word	.LC1
 2346 00a4 08000000 		.word	_ZTV12NumericParam+8
 2347 00a8 0AD7233C 		.word	1008981770
 2348 00ac 08000000 		.word	_ZTV10FloatParam+8
 2350              		.section	.text._Z19createRawFreqModAddv,"ax",%progbits
 2351              		.align	1
 2352              		.p2align 2,,3
 2353              		.global	_Z19createRawFreqModAddv
 2354              		.syntax unified
 2355              		.thumb
 2356              		.thumb_func
 2357              		.fpu fpv5-d16
 2359              	_Z19createRawFreqModAddv:
 2360              		@ args = 0, pretend = 0, frame = 24
 2361              		@ frame_needed = 0, uses_anonymous_args = 0
 2362 0000 264B     		ldr	r3, .L400
 2363 0002 0722     		movs	r2, #7
 2364 0004 F0B5     		push	{r4, r5, r6, r7, lr}
 2365 0006 93E80300 		ldm	r3, {r0, r1}
 2366 000a 87B0     		sub	sp, sp, #28
 2367 000c 0025     		movs	r5, #0
 2368 000e 0B0C     		lsrs	r3, r1, #16
 2369 0010 0127     		movs	r7, #1
 2370 0012 02AE     		add	r6, sp, #8
 2371 0014 0290     		str	r0, [sp, #8]
 2372 0016 4820     		movs	r0, #72
 2373 0018 ADF80C10 		strh	r1, [sp, #12]	@ movhi
 2374 001c 8DF80E30 		strb	r3, [sp, #14]
 2375 0020 8DF80F50 		strb	r5, [sp, #15]
 2376 0024 CDE90062 		strd	r6, r2, [sp]
 2377 0028 FFF7FEFF 		bl	_Znwj
 2378 002c 1C4B     		ldr	r3, .L400+4
 2379 002e 0446     		mov	r4, r0
 2380 0030 4563     		str	r5, [r0, #52]
 2381 0032 0360     		str	r3, [r0]
 2382 0034 00F13803 		add	r3, r0, #56
 2383 0038 80F83850 		strb	r5, [r0, #56]
 2384 003c 6946     		mov	r1, sp
 2385 003e 0363     		str	r3, [r0, #48]
 2386 0040 3030     		adds	r0, r0, #48
 2387 0042 00F8147C 		strb	r7, [r0, #-20]
 2388 0046 FFF7FEFF 		bl	_ZNSt7__cxx1112basic_stringIcSt11char_traitsIcESaIcEE9_M_assignERKS4_
 2389 004a 164B     		ldr	r3, .L400+8
 2390 004c 2420     		movs	r0, #36
 2391 004e E360     		str	r3, [r4, #12]	@ float
 2392 0050 0023     		movs	r3, #0
ARM GAS  /var/folders/sy/x1dkwsgj58j1lmy_hry3vpdm0000gn/T//cch4V49g.s 			page 42


 2393 0052 6360     		str	r3, [r4, #4]	@ float
 2394 0054 144B     		ldr	r3, .L400+12
 2395 0056 A360     		str	r3, [r4, #8]	@ float
 2396 0058 144B     		ldr	r3, .L400+16
 2397 005a A362     		str	r3, [r4, #40]	@ float
 2398 005c A361     		str	r3, [r4, #24]	@ float
 2399 005e 144B     		ldr	r3, .L400+20
 2400 0060 E362     		str	r3, [r4, #44]	@ float
 2401 0062 6362     		str	r3, [r4, #36]	@ float
 2402 0064 FFF7FEFF 		bl	_Znwj
 2403 0068 124B     		ldr	r3, .L400+24
 2404 006a 4FF0FF32 		mov	r2, #-1
 2405 006e 0770     		strb	r7, [r0]
 2406 0070 2360     		str	r3, [r4]
 2407 0072 009B     		ldr	r3, [sp]
 2408 0074 C460     		str	r4, [r0, #12]
 2409 0076 B342     		cmp	r3, r6
 2410 0078 2061     		str	r0, [r4, #16]
 2411 007a 0262     		str	r2, [r0, #32]
 2412 007c C0E90155 		strd	r5, r5, [r0, #4]
 2413 0080 C0E90455 		strd	r5, r5, [r0, #16]
 2414 0084 C0E90655 		strd	r5, r5, [r0, #24]
 2415 0088 04D0     		beq	.L397
 2416 008a 0299     		ldr	r1, [sp, #8]
 2417 008c 1846     		mov	r0, r3
 2418 008e 3944     		add	r1, r1, r7
 2419 0090 FFF7FEFF 		bl	_ZdlPvj
 2420              	.L397:
 2421 0094 2046     		mov	r0, r4
 2422 0096 07B0     		add	sp, sp, #28
 2423              		@ sp needed
 2424 0098 F0BD     		pop	{r4, r5, r6, r7, pc}
 2425              	.L401:
 2426 009a 00BF     		.align	2
 2427              	.L400:
 2428 009c 00000000 		.word	.LC2
 2429 00a0 08000000 		.word	_ZTV12NumericParam+8
 2430 00a4 0000FA44 		.word	1157234688
 2431 00a8 00401C47 		.word	1193033728
 2432 00ac 0AD7233C 		.word	1008981770
 2433 00b0 00004842 		.word	1112014848
 2434 00b4 08000000 		.word	_ZTV10FloatParam+8
 2436              		.section	.text._Z20createDivisionModAddv,"ax",%progbits
 2437              		.align	1
 2438              		.p2align 2,,3
 2439              		.global	_Z20createDivisionModAddv
 2440              		.syntax unified
 2441              		.thumb
 2442              		.thumb_func
 2443              		.fpu fpv5-d16
 2445              	_Z20createDivisionModAddv:
 2446              		@ args = 0, pretend = 0, frame = 24
 2447              		@ frame_needed = 0, uses_anonymous_args = 0
 2448 0000 274B     		ldr	r3, .L405
 2449 0002 0722     		movs	r2, #7
 2450 0004 F0B5     		push	{r4, r5, r6, r7, lr}
 2451 0006 93E80300 		ldm	r3, {r0, r1}
ARM GAS  /var/folders/sy/x1dkwsgj58j1lmy_hry3vpdm0000gn/T//cch4V49g.s 			page 43


 2452 000a 87B0     		sub	sp, sp, #28
 2453 000c 0025     		movs	r5, #0
 2454 000e 0B0C     		lsrs	r3, r1, #16
 2455 0010 0127     		movs	r7, #1
 2456 0012 02AE     		add	r6, sp, #8
 2457 0014 0290     		str	r0, [sp, #8]
 2458 0016 4820     		movs	r0, #72
 2459 0018 ADF80C10 		strh	r1, [sp, #12]	@ movhi
 2460 001c 8DF80E30 		strb	r3, [sp, #14]
 2461 0020 8DF80F50 		strb	r5, [sp, #15]
 2462 0024 CDE90062 		strd	r6, r2, [sp]
 2463 0028 FFF7FEFF 		bl	_Znwj
 2464 002c 1D4B     		ldr	r3, .L405+4
 2465 002e 0446     		mov	r4, r0
 2466 0030 4563     		str	r5, [r0, #52]
 2467 0032 0360     		str	r3, [r0]
 2468 0034 00F13803 		add	r3, r0, #56
 2469 0038 80F83850 		strb	r5, [r0, #56]
 2470 003c 6946     		mov	r1, sp
 2471 003e 0363     		str	r3, [r0, #48]
 2472 0040 3030     		adds	r0, r0, #48
 2473 0042 00F8147C 		strb	r7, [r0, #-20]
 2474 0046 FFF7FEFF 		bl	_ZNSt7__cxx1112basic_stringIcSt11char_traitsIcESaIcEE9_M_assignERKS4_
 2475 004a 4FF08143 		mov	r3, #1082130432
 2476 004e 2420     		movs	r0, #36
 2477 0050 E360     		str	r3, [r4, #12]	@ float
 2478 0052 0023     		movs	r3, #0
 2479 0054 6360     		str	r3, [r4, #4]	@ float
 2480 0056 4FF08243 		mov	r3, #1090519040
 2481 005a A360     		str	r3, [r4, #8]	@ float
 2482 005c 124B     		ldr	r3, .L405+8
 2483 005e A362     		str	r3, [r4, #40]	@ float
 2484 0060 A361     		str	r3, [r4, #24]	@ float
 2485 0062 4FF07E53 		mov	r3, #1065353216
 2486 0066 E362     		str	r3, [r4, #44]	@ float
 2487 0068 6362     		str	r3, [r4, #36]	@ float
 2488 006a FFF7FEFF 		bl	_Znwj
 2489 006e 0F4B     		ldr	r3, .L405+12
 2490 0070 4FF0FF32 		mov	r2, #-1
 2491 0074 0770     		strb	r7, [r0]
 2492 0076 2360     		str	r3, [r4]
 2493 0078 009B     		ldr	r3, [sp]
 2494 007a C460     		str	r4, [r0, #12]
 2495 007c B342     		cmp	r3, r6
 2496 007e 2061     		str	r0, [r4, #16]
 2497 0080 0262     		str	r2, [r0, #32]
 2498 0082 C0E90155 		strd	r5, r5, [r0, #4]
 2499 0086 C0E90455 		strd	r5, r5, [r0, #16]
 2500 008a C0E90655 		strd	r5, r5, [r0, #24]
 2501 008e 04D0     		beq	.L402
 2502 0090 0299     		ldr	r1, [sp, #8]
 2503 0092 1846     		mov	r0, r3
 2504 0094 3944     		add	r1, r1, r7
 2505 0096 FFF7FEFF 		bl	_ZdlPvj
 2506              	.L402:
 2507 009a 2046     		mov	r0, r4
 2508 009c 07B0     		add	sp, sp, #28
ARM GAS  /var/folders/sy/x1dkwsgj58j1lmy_hry3vpdm0000gn/T//cch4V49g.s 			page 44


 2509              		@ sp needed
 2510 009e F0BD     		pop	{r4, r5, r6, r7, pc}
 2511              	.L406:
 2512              		.align	2
 2513              	.L405:
 2514 00a0 00000000 		.word	.LC2
 2515 00a4 08000000 		.word	_ZTV12NumericParam+8
 2516 00a8 0AD7233C 		.word	1008981770
 2517 00ac 08000000 		.word	_ZTV10FloatParam+8
 2519              		.section	.rodata._ZN8Envelope7SetMenuEP9MenuState.str1.4,"aMS",%progbits,1
 2520              		.align	2
 2521              	.LC3:
 2522 0000 61747461 		.ascii	"attack\000"
 2522      636B00
 2523 0007 00       		.align	2
 2524              	.LC4:
 2525 0008 64656361 		.ascii	"decay\000"
 2525      7900
 2526 000e 0000     		.align	2
 2527              	.LC5:
 2528 0010 73757374 		.ascii	"sustain\000"
 2528      61696E00 
 2529              		.align	2
 2530              	.LC6:
 2531 0018 72656C65 		.ascii	"release\000"
 2531      61736500 
 2532              		.section	.text._ZN8Envelope7SetMenuEP9MenuState,"ax",%progbits
 2533              		.align	1
 2534              		.p2align 2,,3
 2535              		.global	_ZN8Envelope7SetMenuEP9MenuState
 2536              		.syntax unified
 2537              		.thumb
 2538              		.thumb_func
 2539              		.fpu fpv5-d16
 2541              	_ZN8Envelope7SetMenuEP9MenuState:
 2542              		@ args = 0, pretend = 0, frame = 24
 2543              		@ frame_needed = 0, uses_anonymous_args = 0
 2544 0000 2DE9F043 		push	{r4, r5, r6, r7, r8, r9, lr}
 2545 0004 534B     		ldr	r3, .L414
 2546 0006 87B0     		sub	sp, sp, #28
 2547 0008 0422     		movs	r2, #4
 2548 000a 4F68     		ldr	r7, [r1, #4]
 2549 000c 0293     		str	r3, [sp, #8]
 2550 000e 02AC     		add	r4, sp, #8
 2551 0010 836A     		ldr	r3, [r0, #40]
 2552 0012 0E46     		mov	r6, r1
 2553 0014 0192     		str	r2, [sp, #4]
 2554 0016 0022     		movs	r2, #0
 2555 0018 0546     		mov	r5, r0
 2556 001a 6946     		mov	r1, sp
 2557 001c 8DF80C20 		strb	r2, [sp, #12]
 2558 0020 3846     		mov	r0, r7
 2559 0022 D3F82C80 		ldr	r8, [r3, #44]
 2560 0026 4C4B     		ldr	r3, .L414+4
 2561 0028 0094     		str	r4, [sp]
 2562 002a D3F80090 		ldr	r9, [r3]
 2563 002e FFF7FEFF 		bl	_ZNSt7__cxx1112basic_stringIcSt11char_traitsIcESaIcEE9_M_assignERKS4_
ARM GAS  /var/folders/sy/x1dkwsgj58j1lmy_hry3vpdm0000gn/T//cch4V49g.s 			page 45


 2564 0032 0098     		ldr	r0, [sp]
 2565 0034 A042     		cmp	r0, r4
 2566 0036 C7E90698 		strd	r9, r8, [r7, #24]
 2567 003a 03D0     		beq	.L408
 2568 003c 0299     		ldr	r1, [sp, #8]
 2569 003e 0131     		adds	r1, r1, #1
 2570 0040 FFF7FEFF 		bl	_ZdlPvj
 2571              	.L408:
 2572 0044 454B     		ldr	r3, .L414+8
 2573 0046 0621     		movs	r1, #6
 2574 0048 F768     		ldr	r7, [r6, #12]
 2575 004a 0191     		str	r1, [sp, #4]
 2576 004c 2A6B     		ldr	r2, [r5, #48]
 2577 004e 0094     		str	r4, [sp]
 2578 0050 93E80300 		ldm	r3, {r0, r1}
 2579 0054 0023     		movs	r3, #0
 2580 0056 0290     		str	r0, [sp, #8]
 2581 0058 3846     		mov	r0, r7
 2582 005a 8DF80E30 		strb	r3, [sp, #14]
 2583 005e 404B     		ldr	r3, .L414+12
 2584 0060 ADF80C10 		strh	r1, [sp, #12]	@ movhi
 2585 0064 6946     		mov	r1, sp
 2586 0066 D2F83080 		ldr	r8, [r2, #48]
 2587 006a D3F80090 		ldr	r9, [r3]
 2588 006e FFF7FEFF 		bl	_ZNSt7__cxx1112basic_stringIcSt11char_traitsIcESaIcEE9_M_assignERKS4_
 2589 0072 0098     		ldr	r0, [sp]
 2590 0074 A042     		cmp	r0, r4
 2591 0076 C7E90698 		strd	r9, r8, [r7, #24]
 2592 007a 03D0     		beq	.L409
 2593 007c 0299     		ldr	r1, [sp, #8]
 2594 007e 0131     		adds	r1, r1, #1
 2595 0080 FFF7FEFF 		bl	_ZdlPvj
 2596              	.L409:
 2597 0084 374B     		ldr	r3, .L414+16
 2598 0086 0521     		movs	r1, #5
 2599 0088 3769     		ldr	r7, [r6, #16]
 2600 008a 0191     		str	r1, [sp, #4]
 2601 008c 6A6B     		ldr	r2, [r5, #52]
 2602 008e 0094     		str	r4, [sp]
 2603 0090 93E80300 		ldm	r3, {r0, r1}
 2604 0094 0023     		movs	r3, #0
 2605 0096 0290     		str	r0, [sp, #8]
 2606 0098 3846     		mov	r0, r7
 2607 009a 8DF80D30 		strb	r3, [sp, #13]
 2608 009e 324B     		ldr	r3, .L414+20
 2609 00a0 8DF80C10 		strb	r1, [sp, #12]
 2610 00a4 6946     		mov	r1, sp
 2611 00a6 D2F83080 		ldr	r8, [r2, #48]
 2612 00aa D3F80090 		ldr	r9, [r3]
 2613 00ae FFF7FEFF 		bl	_ZNSt7__cxx1112basic_stringIcSt11char_traitsIcESaIcEE9_M_assignERKS4_
 2614 00b2 0098     		ldr	r0, [sp]
 2615 00b4 A042     		cmp	r0, r4
 2616 00b6 C7E90698 		strd	r9, r8, [r7, #24]
 2617 00ba 03D0     		beq	.L410
 2618 00bc 0299     		ldr	r1, [sp, #8]
 2619 00be 0131     		adds	r1, r1, #1
 2620 00c0 FFF7FEFF 		bl	_ZdlPvj
ARM GAS  /var/folders/sy/x1dkwsgj58j1lmy_hry3vpdm0000gn/T//cch4V49g.s 			page 46


 2621              	.L410:
 2622 00c4 294B     		ldr	r3, .L414+24
 2623 00c6 0721     		movs	r1, #7
 2624 00c8 7769     		ldr	r7, [r6, #20]
 2625 00ca 0191     		str	r1, [sp, #4]
 2626 00cc EA6B     		ldr	r2, [r5, #60]
 2627 00ce 0094     		str	r4, [sp]
 2628 00d0 93E80300 		ldm	r3, {r0, r1}
 2629 00d4 0023     		movs	r3, #0
 2630 00d6 ADF80C10 		strh	r1, [sp, #12]	@ movhi
 2631 00da 090C     		lsrs	r1, r1, #16
 2632 00dc 8DF80F30 		strb	r3, [sp, #15]
 2633 00e0 234B     		ldr	r3, .L414+28
 2634 00e2 0290     		str	r0, [sp, #8]
 2635 00e4 3846     		mov	r0, r7
 2636 00e6 8DF80E10 		strb	r1, [sp, #14]
 2637 00ea 6946     		mov	r1, sp
 2638 00ec D2F83080 		ldr	r8, [r2, #48]
 2639 00f0 D3F80090 		ldr	r9, [r3]
 2640 00f4 FFF7FEFF 		bl	_ZNSt7__cxx1112basic_stringIcSt11char_traitsIcESaIcEE9_M_assignERKS4_
 2641 00f8 0098     		ldr	r0, [sp]
 2642 00fa A042     		cmp	r0, r4
 2643 00fc C7E90698 		strd	r9, r8, [r7, #24]
 2644 0100 03D0     		beq	.L411
 2645 0102 0299     		ldr	r1, [sp, #8]
 2646 0104 0131     		adds	r1, r1, #1
 2647 0106 FFF7FEFF 		bl	_ZdlPvj
 2648              	.L411:
 2649 010a 1A4B     		ldr	r3, .L414+32
 2650 010c B669     		ldr	r6, [r6, #24]
 2651 010e AA6B     		ldr	r2, [r5, #56]
 2652 0110 0094     		str	r4, [sp]
 2653 0112 93E80300 		ldm	r3, {r0, r1}
 2654 0116 0723     		movs	r3, #7
 2655 0118 ADF80C10 		strh	r1, [sp, #12]	@ movhi
 2656 011c 090C     		lsrs	r1, r1, #16
 2657 011e 0193     		str	r3, [sp, #4]
 2658 0120 0023     		movs	r3, #0
 2659 0122 0290     		str	r0, [sp, #8]
 2660 0124 3046     		mov	r0, r6
 2661 0126 8DF80F30 		strb	r3, [sp, #15]
 2662 012a 134B     		ldr	r3, .L414+36
 2663 012c 8DF80E10 		strb	r1, [sp, #14]
 2664 0130 6946     		mov	r1, sp
 2665 0132 156B     		ldr	r5, [r2, #48]
 2666 0134 1F68     		ldr	r7, [r3]
 2667 0136 FFF7FEFF 		bl	_ZNSt7__cxx1112basic_stringIcSt11char_traitsIcESaIcEE9_M_assignERKS4_
 2668 013a 0098     		ldr	r0, [sp]
 2669 013c A042     		cmp	r0, r4
 2670 013e C6E90675 		strd	r7, r5, [r6, #24]
 2671 0142 03D0     		beq	.L407
 2672 0144 0299     		ldr	r1, [sp, #8]
 2673 0146 0131     		adds	r1, r1, #1
 2674 0148 FFF7FEFF 		bl	_ZdlPvj
 2675              	.L407:
 2676 014c 07B0     		add	sp, sp, #28
 2677              		@ sp needed
ARM GAS  /var/folders/sy/x1dkwsgj58j1lmy_hry3vpdm0000gn/T//cch4V49g.s 			page 47


 2678 014e BDE8F083 		pop	{r4, r5, r6, r7, r8, r9, pc}
 2679              	.L415:
 2680 0152 00BF     		.align	2
 2681              	.L414:
 2682 0154 67617465 		.word	1702125927
 2683 0158 00000000 		.word	.LANCHOR7
 2684 015c 00000000 		.word	.LC3
 2685 0160 00000000 		.word	.LANCHOR8
 2686 0164 08000000 		.word	.LC4
 2687 0168 00000000 		.word	.LANCHOR9
 2688 016c 10000000 		.word	.LC5
 2689 0170 00000000 		.word	.LANCHOR10
 2690 0174 18000000 		.word	.LC6
 2691 0178 00000000 		.word	.LANCHOR11
 2693              		.section	.rodata._ZN19ComplexNumericParam7SetMenuEP9MenuState.str1.4,"aMS",%progbits,1
 2694              		.align	2
 2695              	.LC7:
 2696 0000 62617365 		.ascii	"base value\000"
 2696      2076616C 
 2696      756500
 2697 000b 00       		.align	2
 2698              	.LC8:
 2699 000c 6D6F6475 		.ascii	"modulation source 1\000"
 2699      6C617469 
 2699      6F6E2073 
 2699      6F757263 
 2699      65203100 
 2700              		.align	2
 2701              	.LC9:
 2702 0020 6D6F6475 		.ascii	"modulation source 2\000"
 2702      6C617469 
 2702      6F6E2073 
 2702      6F757263 
 2702      65203200 
 2703              		.align	2
 2704              	.LC10:
 2705 0034 6D6F6475 		.ascii	"modulation source 3\000"
 2705      6C617469 
 2705      6F6E2073 
 2705      6F757263 
 2705      65203300 
 2706              		.align	2
 2707              	.LC11:
 2708 0048 6D6F6475 		.ascii	"modulation source 4\000"
 2708      6C617469 
 2708      6F6E2073 
 2708      6F757263 
 2708      65203400 
 2709              		.section	.text._ZN19ComplexNumericParam7SetMenuEP9MenuState,"ax",%progbits
 2710              		.align	1
 2711              		.p2align 2,,3
 2712              		.global	_ZN19ComplexNumericParam7SetMenuEP9MenuState
 2713              		.syntax unified
 2714              		.thumb
 2715              		.thumb_func
 2716              		.fpu fpv5-d16
 2718              	_ZN19ComplexNumericParam7SetMenuEP9MenuState:
ARM GAS  /var/folders/sy/x1dkwsgj58j1lmy_hry3vpdm0000gn/T//cch4V49g.s 			page 48


 2719              		@ args = 0, pretend = 0, frame = 32
 2720              		@ frame_needed = 0, uses_anonymous_args = 0
 2721 0000 2DE9F043 		push	{r4, r5, r6, r7, r8, r9, lr}
 2722 0004 89B0     		sub	sp, sp, #36
 2723 0006 D1F80480 		ldr	r8, [r1, #4]
 2724 000a 854A     		ldr	r2, .L431
 2725 000c 0F46     		mov	r7, r1
 2726 000e 04AC     		add	r4, sp, #16
 2727 0010 8449     		ldr	r1, .L431+4
 2728 0012 0646     		mov	r6, r0
 2729 0014 0A25     		movs	r5, #10
 2730 0016 D1F80090 		ldr	r9, [r1]
 2731 001a 2346     		mov	r3, r4
 2732 001c 0294     		str	r4, [sp, #8]
 2733 001e 4FF0000E 		mov	lr, #0
 2734 0022 07CA     		ldm	r2, {r0, r1, r2}
 2735 0024 03C3     		stmia	r3!, {r0, r1}
 2736 0026 1A80     		strh	r2, [r3]	@ movhi
 2737 0028 4046     		mov	r0, r8
 2738 002a 7368     		ldr	r3, [r6, #4]
 2739 002c 02A9     		add	r1, sp, #8
 2740 002e 8DF81AE0 		strb	lr, [sp, #26]
 2741 0032 0395     		str	r5, [sp, #12]
 2742 0034 1D69     		ldr	r5, [r3, #16]
 2743 0036 FFF7FEFF 		bl	_ZNSt7__cxx1112basic_stringIcSt11char_traitsIcESaIcEE9_M_assignERKS4_
 2744 003a 0298     		ldr	r0, [sp, #8]
 2745 003c A042     		cmp	r0, r4
 2746 003e C8E90695 		strd	r9, r5, [r8, #24]
 2747 0042 03D0     		beq	.L417
 2748 0044 0499     		ldr	r1, [sp, #16]
 2749 0046 0131     		adds	r1, r1, #1
 2750 0048 FFF7FEFF 		bl	_ZdlPvj
 2751              	.L417:
 2752 004c 1323     		movs	r3, #19
 2753 004e 0022     		movs	r2, #0
 2754 0050 01A9     		add	r1, sp, #4
 2755 0052 02A8     		add	r0, sp, #8
 2756 0054 0193     		str	r3, [sp, #4]
 2757 0056 D7F83C80 		ldr	r8, [r7, #60]
 2758 005a 0294     		str	r4, [sp, #8]
 2759 005c FFF7FEFF 		bl	_ZNSt7__cxx1112basic_stringIcSt11char_traitsIcESaIcEE9_M_createERjj
 2760 0060 019B     		ldr	r3, [sp, #4]
 2761 0062 0546     		mov	r5, r0
 2762 0064 DFF8C8C1 		ldr	ip, .L431+16
 2763 0068 4FF0000E 		mov	lr, #0
 2764 006c 0290     		str	r0, [sp, #8]
 2765 006e 0493     		str	r3, [sp, #16]
 2766 0070 BCE80F00 		ldmia	ip!, {r0, r1, r2, r3}
 2767 0074 EB60     		str	r3, [r5, #12]	@ unaligned
 2768 0076 BCF80030 		ldrh	r3, [ip]	@ unaligned
 2769 007a 2860     		str	r0, [r5]	@ unaligned
 2770 007c 2B82     		strh	r3, [r5, #16]	@ unaligned
 2771 007e 9CF80230 		ldrb	r3, [ip, #2]	@ zero_extendqisi2
 2772 0082 6960     		str	r1, [r5, #4]	@ unaligned
 2773 0084 AA60     		str	r2, [r5, #8]	@ unaligned
 2774 0086 AB74     		strb	r3, [r5, #18]
 2775 0088 019B     		ldr	r3, [sp, #4]
ARM GAS  /var/folders/sy/x1dkwsgj58j1lmy_hry3vpdm0000gn/T//cch4V49g.s 			page 49


 2776 008a 029A     		ldr	r2, [sp, #8]
 2777 008c 0393     		str	r3, [sp, #12]
 2778 008e 02F803E0 		strb	lr, [r2, r3]
 2779 0092 3369     		ldr	r3, [r6, #16]
 2780 0094 5A6B     		ldr	r2, [r3, #52]
 2781 0096 002A     		cmp	r2, #0
 2782 0098 00F0B380 		beq	.L418
 2783 009c D2F81C90 		ldr	r9, [r2, #28]
 2784              	.L419:
 2785 00a0 4046     		mov	r0, r8
 2786 00a2 02A9     		add	r1, sp, #8
 2787 00a4 DD6A     		ldr	r5, [r3, #44]
 2788 00a6 FFF7FEFF 		bl	_ZNSt7__cxx1112basic_stringIcSt11char_traitsIcESaIcEE9_M_assignERKS4_
 2789 00aa 0298     		ldr	r0, [sp, #8]
 2790 00ac A042     		cmp	r0, r4
 2791 00ae C8E90695 		strd	r9, r5, [r8, #24]
 2792 00b2 03D0     		beq	.L420
 2793 00b4 0499     		ldr	r1, [sp, #16]
 2794 00b6 0131     		adds	r1, r1, #1
 2795 00b8 FFF7FEFF 		bl	_ZdlPvj
 2796              	.L420:
 2797 00bc 1323     		movs	r3, #19
 2798 00be 0022     		movs	r2, #0
 2799 00c0 01A9     		add	r1, sp, #4
 2800 00c2 02A8     		add	r0, sp, #8
 2801 00c4 0193     		str	r3, [sp, #4]
 2802 00c6 D7F84080 		ldr	r8, [r7, #64]
 2803 00ca 0294     		str	r4, [sp, #8]
 2804 00cc FFF7FEFF 		bl	_ZNSt7__cxx1112basic_stringIcSt11char_traitsIcESaIcEE9_M_createERjj
 2805 00d0 019B     		ldr	r3, [sp, #4]
 2806 00d2 0546     		mov	r5, r0
 2807 00d4 DFF85CC1 		ldr	ip, .L431+20
 2808 00d8 4FF0000E 		mov	lr, #0
 2809 00dc 0290     		str	r0, [sp, #8]
 2810 00de 0493     		str	r3, [sp, #16]
 2811 00e0 BCE80F00 		ldmia	ip!, {r0, r1, r2, r3}
 2812 00e4 EB60     		str	r3, [r5, #12]	@ unaligned
 2813 00e6 BCF80030 		ldrh	r3, [ip]	@ unaligned
 2814 00ea 2860     		str	r0, [r5]	@ unaligned
 2815 00ec 2B82     		strh	r3, [r5, #16]	@ unaligned
 2816 00ee 9CF80230 		ldrb	r3, [ip, #2]	@ zero_extendqisi2
 2817 00f2 6960     		str	r1, [r5, #4]	@ unaligned
 2818 00f4 AA60     		str	r2, [r5, #8]	@ unaligned
 2819 00f6 AB74     		strb	r3, [r5, #18]
 2820 00f8 019B     		ldr	r3, [sp, #4]
 2821 00fa 029A     		ldr	r2, [sp, #8]
 2822 00fc 0393     		str	r3, [sp, #12]
 2823 00fe 02F803E0 		strb	lr, [r2, r3]
 2824 0102 7369     		ldr	r3, [r6, #20]
 2825 0104 5A6B     		ldr	r2, [r3, #52]
 2826 0106 002A     		cmp	r2, #0
 2827 0108 00F08680 		beq	.L421
 2828 010c D2F81C90 		ldr	r9, [r2, #28]
 2829              	.L422:
 2830 0110 4046     		mov	r0, r8
 2831 0112 02A9     		add	r1, sp, #8
 2832 0114 DD6A     		ldr	r5, [r3, #44]
ARM GAS  /var/folders/sy/x1dkwsgj58j1lmy_hry3vpdm0000gn/T//cch4V49g.s 			page 50


 2833 0116 FFF7FEFF 		bl	_ZNSt7__cxx1112basic_stringIcSt11char_traitsIcESaIcEE9_M_assignERKS4_
 2834 011a 0298     		ldr	r0, [sp, #8]
 2835 011c A042     		cmp	r0, r4
 2836 011e C8E90695 		strd	r9, r5, [r8, #24]
 2837 0122 03D0     		beq	.L423
 2838 0124 0499     		ldr	r1, [sp, #16]
 2839 0126 0131     		adds	r1, r1, #1
 2840 0128 FFF7FEFF 		bl	_ZdlPvj
 2841              	.L423:
 2842 012c 1323     		movs	r3, #19
 2843 012e 0022     		movs	r2, #0
 2844 0130 01A9     		add	r1, sp, #4
 2845 0132 02A8     		add	r0, sp, #8
 2846 0134 0193     		str	r3, [sp, #4]
 2847 0136 D7F84480 		ldr	r8, [r7, #68]
 2848 013a 0294     		str	r4, [sp, #8]
 2849 013c FFF7FEFF 		bl	_ZNSt7__cxx1112basic_stringIcSt11char_traitsIcESaIcEE9_M_createERjj
 2850 0140 019B     		ldr	r3, [sp, #4]
 2851 0142 0546     		mov	r5, r0
 2852 0144 DFF8F0C0 		ldr	ip, .L431+24
 2853 0148 4FF0000E 		mov	lr, #0
 2854 014c 0290     		str	r0, [sp, #8]
 2855 014e 0493     		str	r3, [sp, #16]
 2856 0150 BCE80F00 		ldmia	ip!, {r0, r1, r2, r3}
 2857 0154 EB60     		str	r3, [r5, #12]	@ unaligned
 2858 0156 BCF80030 		ldrh	r3, [ip]	@ unaligned
 2859 015a 2860     		str	r0, [r5]	@ unaligned
 2860 015c 2B82     		strh	r3, [r5, #16]	@ unaligned
 2861 015e 9CF80230 		ldrb	r3, [ip, #2]	@ zero_extendqisi2
 2862 0162 6960     		str	r1, [r5, #4]	@ unaligned
 2863 0164 AA60     		str	r2, [r5, #8]	@ unaligned
 2864 0166 AB74     		strb	r3, [r5, #18]
 2865 0168 019B     		ldr	r3, [sp, #4]
 2866 016a 029A     		ldr	r2, [sp, #8]
 2867 016c 0393     		str	r3, [sp, #12]
 2868 016e 02F803E0 		strb	lr, [r2, r3]
 2869 0172 B369     		ldr	r3, [r6, #24]
 2870 0174 5A6B     		ldr	r2, [r3, #52]
 2871 0176 002A     		cmp	r2, #0
 2872 0178 4AD0     		beq	.L424
 2873 017a D2F81C90 		ldr	r9, [r2, #28]
 2874              	.L425:
 2875 017e 4046     		mov	r0, r8
 2876 0180 02A9     		add	r1, sp, #8
 2877 0182 DD6A     		ldr	r5, [r3, #44]
 2878 0184 FFF7FEFF 		bl	_ZNSt7__cxx1112basic_stringIcSt11char_traitsIcESaIcEE9_M_assignERKS4_
 2879 0188 0298     		ldr	r0, [sp, #8]
 2880 018a A042     		cmp	r0, r4
 2881 018c C8E90695 		strd	r9, r5, [r8, #24]
 2882 0190 03D0     		beq	.L426
 2883 0192 0499     		ldr	r1, [sp, #16]
 2884 0194 0131     		adds	r1, r1, #1
 2885 0196 FFF7FEFF 		bl	_ZdlPvj
 2886              	.L426:
 2887 019a 1323     		movs	r3, #19
 2888 019c 01A9     		add	r1, sp, #4
 2889 019e 0022     		movs	r2, #0
ARM GAS  /var/folders/sy/x1dkwsgj58j1lmy_hry3vpdm0000gn/T//cch4V49g.s 			page 51


 2890 01a0 02A8     		add	r0, sp, #8
 2891 01a2 D7F84880 		ldr	r8, [r7, #72]
 2892 01a6 0193     		str	r3, [sp, #4]
 2893 01a8 1F4F     		ldr	r7, .L431+8
 2894 01aa 0294     		str	r4, [sp, #8]
 2895 01ac FFF7FEFF 		bl	_ZNSt7__cxx1112basic_stringIcSt11char_traitsIcESaIcEE9_M_createERjj
 2896 01b0 019B     		ldr	r3, [sp, #4]
 2897 01b2 0546     		mov	r5, r0
 2898 01b4 0290     		str	r0, [sp, #8]
 2899 01b6 4FF0000C 		mov	ip, #0
 2900 01ba 0493     		str	r3, [sp, #16]
 2901 01bc 0FCF     		ldmia	r7!, {r0, r1, r2, r3}
 2902 01be EB60     		str	r3, [r5, #12]	@ unaligned
 2903 01c0 3B88     		ldrh	r3, [r7]	@ unaligned
 2904 01c2 2860     		str	r0, [r5]	@ unaligned
 2905 01c4 2B82     		strh	r3, [r5, #16]	@ unaligned
 2906 01c6 BB78     		ldrb	r3, [r7, #2]	@ zero_extendqisi2
 2907 01c8 6960     		str	r1, [r5, #4]	@ unaligned
 2908 01ca AA60     		str	r2, [r5, #8]	@ unaligned
 2909 01cc AB74     		strb	r3, [r5, #18]
 2910 01ce 019B     		ldr	r3, [sp, #4]
 2911 01d0 029A     		ldr	r2, [sp, #8]
 2912 01d2 0393     		str	r3, [sp, #12]
 2913 01d4 02F803C0 		strb	ip, [r2, r3]
 2914 01d8 F369     		ldr	r3, [r6, #28]
 2915 01da 5A6B     		ldr	r2, [r3, #52]
 2916 01dc AAB1     		cbz	r2, .L427
 2917 01de D669     		ldr	r6, [r2, #28]
 2918              	.L428:
 2919 01e0 4046     		mov	r0, r8
 2920 01e2 02A9     		add	r1, sp, #8
 2921 01e4 DD6A     		ldr	r5, [r3, #44]
 2922 01e6 FFF7FEFF 		bl	_ZNSt7__cxx1112basic_stringIcSt11char_traitsIcESaIcEE9_M_assignERKS4_
 2923 01ea 0298     		ldr	r0, [sp, #8]
 2924 01ec A042     		cmp	r0, r4
 2925 01ee C8E90665 		strd	r6, r5, [r8, #24]
 2926 01f2 03D0     		beq	.L416
 2927 01f4 0499     		ldr	r1, [sp, #16]
 2928 01f6 0131     		adds	r1, r1, #1
 2929 01f8 FFF7FEFF 		bl	_ZdlPvj
 2930              	.L416:
 2931 01fc 09B0     		add	sp, sp, #36
 2932              		@ sp needed
 2933 01fe BDE8F083 		pop	{r4, r5, r6, r7, r8, r9, pc}
 2934              	.L418:
 2935 0202 0A4A     		ldr	r2, .L431+12
 2936 0204 D2F80090 		ldr	r9, [r2]
 2937 0208 4AE7     		b	.L419
 2938              	.L427:
 2939 020a 084A     		ldr	r2, .L431+12
 2940 020c 1668     		ldr	r6, [r2]
 2941 020e E7E7     		b	.L428
 2942              	.L424:
 2943 0210 064A     		ldr	r2, .L431+12
 2944 0212 D2F80090 		ldr	r9, [r2]
 2945 0216 B2E7     		b	.L425
 2946              	.L421:
ARM GAS  /var/folders/sy/x1dkwsgj58j1lmy_hry3vpdm0000gn/T//cch4V49g.s 			page 52


 2947 0218 044A     		ldr	r2, .L431+12
 2948 021a D2F80090 		ldr	r9, [r2]
 2949 021e 77E7     		b	.L422
 2950              	.L432:
 2951              		.align	2
 2952              	.L431:
 2953 0220 00000000 		.word	.LC7
 2954 0224 00000000 		.word	.LANCHOR12
 2955 0228 48000000 		.word	.LC11
 2956 022c 00000000 		.word	.LANCHOR13
 2957 0230 0C000000 		.word	.LC8
 2958 0234 20000000 		.word	.LC9
 2959 0238 34000000 		.word	.LC10
 2961              		.section	.rodata._ZN20MonoEngineOscillator7SetMenuEP9MenuState.str1.4,"aMS",%progbits,1
 2962              		.align	2
 2963              	.LC12:
 2964 0000 6C657665 		.ascii	"level\000"
 2964      6C00
 2965 0006 0000     		.align	2
 2966              	.LC13:
 2967 0008 77617665 		.ascii	"wave morph\000"
 2967      206D6F72 
 2967      706800
 2968 0013 00       		.align	2
 2969              	.LC14:
 2970 0014 64657475 		.ascii	"detune\000"
 2970      6E6500
 2971 001b 00       		.align	2
 2972              	.LC15:
 2973 001c 70686173 		.ascii	"phase shift\000"
 2973      65207368 
 2973      69667400 
 2974              		.align	2
 2975              	.LC16:
 2976 0028 676C6964 		.ascii	"glide\000"
 2976      6500
 2977 002e 0000     		.align	2
 2978              	.LC17:
 2979 0030 676C6964 		.ascii	"glide gate\000"
 2979      65206761 
 2979      746500
 2980              		.section	.text._ZN20MonoEngineOscillator7SetMenuEP9MenuState,"ax",%progbits
 2981              		.align	1
 2982              		.p2align 2,,3
 2983              		.global	_ZN20MonoEngineOscillator7SetMenuEP9MenuState
 2984              		.syntax unified
 2985              		.thumb
 2986              		.thumb_func
 2987              		.fpu fpv5-d16
 2989              	_ZN20MonoEngineOscillator7SetMenuEP9MenuState:
 2990              		@ args = 0, pretend = 0, frame = 24
 2991              		@ frame_needed = 0, uses_anonymous_args = 0
 2992 0000 2DE9F047 		push	{r4, r5, r6, r7, r8, r9, r10, lr}
 2993 0004 654B     		ldr	r3, .L441
 2994 0006 86B0     		sub	sp, sp, #24
 2995 0008 0546     		mov	r5, r0
 2996 000a 0522     		movs	r2, #5
ARM GAS  /var/folders/sy/x1dkwsgj58j1lmy_hry3vpdm0000gn/T//cch4V49g.s 			page 53


 2997 000c 0E46     		mov	r6, r1
 2998 000e 02AC     		add	r4, sp, #8
 2999 0010 0192     		str	r2, [sp, #4]
 3000 0012 0022     		movs	r2, #0
 3001 0014 7768     		ldr	r7, [r6, #4]
 3002 0016 8DF80D20 		strb	r2, [sp, #13]
 3003 001a 0094     		str	r4, [sp]
 3004 001c 93E80300 		ldm	r3, {r0, r1}
 3005 0020 EB69     		ldr	r3, [r5, #28]
 3006 0022 0290     		str	r0, [sp, #8]
 3007 0024 3846     		mov	r0, r7
 3008 0026 8DF80C10 		strb	r1, [sp, #12]
 3009 002a 6946     		mov	r1, sp
 3010 002c D3F83080 		ldr	r8, [r3, #48]
 3011 0030 5B4B     		ldr	r3, .L441+4
 3012 0032 D3F80090 		ldr	r9, [r3]
 3013 0036 FFF7FEFF 		bl	_ZNSt7__cxx1112basic_stringIcSt11char_traitsIcESaIcEE9_M_assignERKS4_
 3014 003a 0098     		ldr	r0, [sp]
 3015 003c A042     		cmp	r0, r4
 3016 003e C7E90698 		strd	r9, r8, [r7, #24]
 3017 0042 03D0     		beq	.L434
 3018 0044 0299     		ldr	r1, [sp, #8]
 3019 0046 0131     		adds	r1, r1, #1
 3020 0048 FFF7FEFF 		bl	_ZdlPvj
 3021              	.L434:
 3022 004c 5549     		ldr	r1, .L441+8
 3023 004e 2346     		mov	r3, r4
 3024 0050 554A     		ldr	r2, .L441+12
 3025 0052 0A27     		movs	r7, #10
 3026 0054 D1F80090 		ldr	r9, [r1]
 3027 0058 4FF0000E 		mov	lr, #0
 3028 005c D6F80C80 		ldr	r8, [r6, #12]
 3029 0060 0094     		str	r4, [sp]
 3030 0062 07CA     		ldm	r2, {r0, r1, r2}
 3031 0064 03C3     		stmia	r3!, {r0, r1}
 3032 0066 1A80     		strh	r2, [r3]	@ movhi
 3033 0068 4046     		mov	r0, r8
 3034 006a 2B6A     		ldr	r3, [r5, #32]
 3035 006c 6946     		mov	r1, sp
 3036 006e 8DF812E0 		strb	lr, [sp, #18]
 3037 0072 0197     		str	r7, [sp, #4]
 3038 0074 1F69     		ldr	r7, [r3, #16]
 3039 0076 FFF7FEFF 		bl	_ZNSt7__cxx1112basic_stringIcSt11char_traitsIcESaIcEE9_M_assignERKS4_
 3040 007a 0098     		ldr	r0, [sp]
 3041 007c A042     		cmp	r0, r4
 3042 007e C8E90697 		strd	r9, r7, [r8, #24]
 3043 0082 03D0     		beq	.L435
 3044 0084 0299     		ldr	r1, [sp, #8]
 3045 0086 0131     		adds	r1, r1, #1
 3046 0088 FFF7FEFF 		bl	_ZdlPvj
 3047              	.L435:
 3048 008c 474B     		ldr	r3, .L441+16
 3049 008e 0621     		movs	r1, #6
 3050 0090 3769     		ldr	r7, [r6, #16]
 3051 0092 0191     		str	r1, [sp, #4]
 3052 0094 2A6B     		ldr	r2, [r5, #48]
 3053 0096 0094     		str	r4, [sp]
ARM GAS  /var/folders/sy/x1dkwsgj58j1lmy_hry3vpdm0000gn/T//cch4V49g.s 			page 54


 3054 0098 93E80300 		ldm	r3, {r0, r1}
 3055 009c 0023     		movs	r3, #0
 3056 009e 0290     		str	r0, [sp, #8]
 3057 00a0 3846     		mov	r0, r7
 3058 00a2 8DF80E30 		strb	r3, [sp, #14]
 3059 00a6 424B     		ldr	r3, .L441+20
 3060 00a8 ADF80C10 		strh	r1, [sp, #12]	@ movhi
 3061 00ac 6946     		mov	r1, sp
 3062 00ae D2F83080 		ldr	r8, [r2, #48]
 3063 00b2 D3F80090 		ldr	r9, [r3]
 3064 00b6 FFF7FEFF 		bl	_ZNSt7__cxx1112basic_stringIcSt11char_traitsIcESaIcEE9_M_assignERKS4_
 3065 00ba 0098     		ldr	r0, [sp]
 3066 00bc A042     		cmp	r0, r4
 3067 00be C7E90698 		strd	r9, r8, [r7, #24]
 3068 00c2 03D0     		beq	.L436
 3069 00c4 0299     		ldr	r1, [sp, #8]
 3070 00c6 0131     		adds	r1, r1, #1
 3071 00c8 FFF7FEFF 		bl	_ZdlPvj
 3072              	.L436:
 3073 00cc 3949     		ldr	r1, .L441+24
 3074 00ce 2346     		mov	r3, r4
 3075 00d0 394A     		ldr	r2, .L441+28
 3076 00d2 0B27     		movs	r7, #11
 3077 00d4 D1F80090 		ldr	r9, [r1]
 3078 00d8 4FF0000E 		mov	lr, #0
 3079 00dc 0094     		str	r4, [sp]
 3080 00de D6F81480 		ldr	r8, [r6, #20]
 3081 00e2 07CA     		ldm	r2, {r0, r1, r2}
 3082 00e4 03C3     		stmia	r3!, {r0, r1}
 3083 00e6 23F8022B 		strh	r2, [r3], #2	@ movhi
 3084 00ea 120C     		lsrs	r2, r2, #16
 3085 00ec 4046     		mov	r0, r8
 3086 00ee 6946     		mov	r1, sp
 3087 00f0 1A70     		strb	r2, [r3]
 3088 00f2 EB6A     		ldr	r3, [r5, #44]
 3089 00f4 8DF813E0 		strb	lr, [sp, #19]
 3090 00f8 0197     		str	r7, [sp, #4]
 3091 00fa 1F6B     		ldr	r7, [r3, #48]
 3092 00fc FFF7FEFF 		bl	_ZNSt7__cxx1112basic_stringIcSt11char_traitsIcESaIcEE9_M_assignERKS4_
 3093 0100 0098     		ldr	r0, [sp]
 3094 0102 A042     		cmp	r0, r4
 3095 0104 C8E90697 		strd	r9, r7, [r8, #24]
 3096 0108 03D0     		beq	.L437
 3097 010a 0299     		ldr	r1, [sp, #8]
 3098 010c 0131     		adds	r1, r1, #1
 3099 010e FFF7FEFF 		bl	_ZdlPvj
 3100              	.L437:
 3101 0112 2A4B     		ldr	r3, .L441+32
 3102 0114 0521     		movs	r1, #5
 3103 0116 F769     		ldr	r7, [r6, #28]
 3104 0118 0191     		str	r1, [sp, #4]
 3105 011a 6A6A     		ldr	r2, [r5, #36]
 3106 011c DFF8A480 		ldr	r8, .L441+40
 3107 0120 0094     		str	r4, [sp]
 3108 0122 D8F80090 		ldr	r9, [r8]
 3109 0126 93E80300 		ldm	r3, {r0, r1}
 3110 012a 0023     		movs	r3, #0
ARM GAS  /var/folders/sy/x1dkwsgj58j1lmy_hry3vpdm0000gn/T//cch4V49g.s 			page 55


 3111 012c 0290     		str	r0, [sp, #8]
 3112 012e 3846     		mov	r0, r7
 3113 0130 8DF80C10 		strb	r1, [sp, #12]
 3114 0134 6946     		mov	r1, sp
 3115 0136 8DF80D30 		strb	r3, [sp, #13]
 3116 013a D2F830A0 		ldr	r10, [r2, #48]
 3117 013e FFF7FEFF 		bl	_ZNSt7__cxx1112basic_stringIcSt11char_traitsIcESaIcEE9_M_assignERKS4_
 3118 0142 0098     		ldr	r0, [sp]
 3119 0144 A042     		cmp	r0, r4
 3120 0146 C7E9069A 		strd	r9, r10, [r7, #24]
 3121 014a 03D0     		beq	.L438
 3122 014c 0299     		ldr	r1, [sp, #8]
 3123 014e 0131     		adds	r1, r1, #1
 3124 0150 FFF7FEFF 		bl	_ZdlPvj
 3125              	.L438:
 3126 0154 1A4A     		ldr	r2, .L441+36
 3127 0156 2346     		mov	r3, r4
 3128 0158 366A     		ldr	r6, [r6, #32]
 3129 015a 4FF00A0C 		mov	ip, #10
 3130 015e AD6A     		ldr	r5, [r5, #40]
 3131 0160 4FF0000E 		mov	lr, #0
 3132 0164 0094     		str	r4, [sp]
 3133 0166 D8F80070 		ldr	r7, [r8]
 3134 016a 07CA     		ldm	r2, {r0, r1, r2}
 3135 016c 03C3     		stmia	r3!, {r0, r1}
 3136 016e 3046     		mov	r0, r6
 3137 0170 1A80     		strh	r2, [r3]	@ movhi
 3138 0172 6946     		mov	r1, sp
 3139 0174 8DF812E0 		strb	lr, [sp, #18]
 3140 0178 CDF804C0 		str	ip, [sp, #4]
 3141 017c ED6A     		ldr	r5, [r5, #44]
 3142 017e FFF7FEFF 		bl	_ZNSt7__cxx1112basic_stringIcSt11char_traitsIcESaIcEE9_M_assignERKS4_
 3143 0182 0098     		ldr	r0, [sp]
 3144 0184 A042     		cmp	r0, r4
 3145 0186 C6E90675 		strd	r7, r5, [r6, #24]
 3146 018a 03D0     		beq	.L433
 3147 018c 0299     		ldr	r1, [sp, #8]
 3148 018e 0131     		adds	r1, r1, #1
 3149 0190 FFF7FEFF 		bl	_ZdlPvj
 3150              	.L433:
 3151 0194 06B0     		add	sp, sp, #24
 3152              		@ sp needed
 3153 0196 BDE8F087 		pop	{r4, r5, r6, r7, r8, r9, r10, pc}
 3154              	.L442:
 3155 019a 00BF     		.align	2
 3156              	.L441:
 3157 019c 00000000 		.word	.LC12
 3158 01a0 00000000 		.word	.LANCHOR14
 3159 01a4 00000000 		.word	.LANCHOR15
 3160 01a8 08000000 		.word	.LC13
 3161 01ac 14000000 		.word	.LC14
 3162 01b0 00000000 		.word	.LANCHOR16
 3163 01b4 00000000 		.word	.LANCHOR17
 3164 01b8 1C000000 		.word	.LC15
 3165 01bc 28000000 		.word	.LC16
 3166 01c0 30000000 		.word	.LC17
 3167 01c4 00000000 		.word	.LANCHOR18
ARM GAS  /var/folders/sy/x1dkwsgj58j1lmy_hry3vpdm0000gn/T//cch4V49g.s 			page 56


 3169              		.section	.rodata._ZN15MonoEngineClock7SetMenuEP9MenuState.str1.4,"aMS",%progbits,1
 3170              		.align	2
 3171              	.LC18:
 3172 0000 696E7665 		.ascii	"inverted\000"
 3172      72746564 
 3172      00
 3173 0009 000000   		.align	2
 3174              	.LC19:
 3175 000c 6E6F7420 		.ascii	"not inverted\000"
 3175      696E7665 
 3175      72746564 
 3175      00
 3176 0019 000000   		.align	2
 3177              	.LC20:
 3178 001c 62706D00 		.ascii	"bpm\000"
 3179              		.align	2
 3180              	.LC21:
 3181 0020 64697669 		.ascii	"division\000"
 3181      73696F6E 
 3181      00
 3182 0029 000000   		.align	2
 3183              	.LC22:
 3184 002c 72657365 		.ascii	"reset gate\000"
 3184      74206761 
 3184      746500
 3185              		.section	.text._ZN15MonoEngineClock7SetMenuEP9MenuState,"ax",%progbits
 3186              		.align	1
 3187              		.p2align 2,,3
 3188              		.global	_ZN15MonoEngineClock7SetMenuEP9MenuState
 3189              		.syntax unified
 3190              		.thumb
 3191              		.thumb_func
 3192              		.fpu fpv5-d16
 3194              	_ZN15MonoEngineClock7SetMenuEP9MenuState:
 3195              		@ args = 0, pretend = 0, frame = 32
 3196              		@ frame_needed = 0, uses_anonymous_args = 0
 3197 0000 4D4B     		ldr	r3, .L455
 3198 0002 0322     		movs	r2, #3
 3199 0004 2DE9F043 		push	{r4, r5, r6, r7, r8, r9, lr}
 3200 0008 1B68     		ldr	r3, [r3]
 3201 000a 89B0     		sub	sp, sp, #36
 3202 000c 4D68     		ldr	r5, [r1, #4]
 3203 000e 0F46     		mov	r7, r1
 3204 0010 ADF81030 		strh	r3, [sp, #16]	@ movhi
 3205 0014 1B0C     		lsrs	r3, r3, #16
 3206 0016 0392     		str	r2, [sp, #12]
 3207 0018 0022     		movs	r2, #0
 3208 001a 8DF81230 		strb	r3, [sp, #18]
 3209 001e 04AC     		add	r4, sp, #16
 3210 0020 0369     		ldr	r3, [r0, #16]
 3211 0022 0646     		mov	r6, r0
 3212 0024 8DF81320 		strb	r2, [sp, #19]
 3213 0028 2846     		mov	r0, r5
 3214 002a D3F83080 		ldr	r8, [r3, #48]
 3215 002e 02A9     		add	r1, sp, #8
 3216 0030 424B     		ldr	r3, .L455+4
 3217 0032 0294     		str	r4, [sp, #8]
ARM GAS  /var/folders/sy/x1dkwsgj58j1lmy_hry3vpdm0000gn/T//cch4V49g.s 			page 57


 3218 0034 D3F80090 		ldr	r9, [r3]
 3219 0038 FFF7FEFF 		bl	_ZNSt7__cxx1112basic_stringIcSt11char_traitsIcESaIcEE9_M_assignERKS4_
 3220 003c 0298     		ldr	r0, [sp, #8]
 3221 003e A042     		cmp	r0, r4
 3222 0040 C5E90698 		strd	r9, r8, [r5, #24]
 3223 0044 03D0     		beq	.L444
 3224 0046 0499     		ldr	r1, [sp, #16]
 3225 0048 0131     		adds	r1, r1, #1
 3226 004a FFF7FEFF 		bl	_ZdlPvj
 3227              	.L444:
 3228 004e 3C4B     		ldr	r3, .L455+8
 3229 0050 0821     		movs	r1, #8
 3230 0052 BD68     		ldr	r5, [r7, #8]
 3231 0054 0391     		str	r1, [sp, #12]
 3232 0056 7269     		ldr	r2, [r6, #20]
 3233 0058 0294     		str	r4, [sp, #8]
 3234 005a 93E80300 		ldm	r3, {r0, r1}
 3235 005e 0023     		movs	r3, #0
 3236 0060 84E80300 		stm	r4, {r0, r1}
 3237 0064 8DF81830 		strb	r3, [sp, #24]
 3238 0068 2846     		mov	r0, r5
 3239 006a 364B     		ldr	r3, .L455+12
 3240 006c 02A9     		add	r1, sp, #8
 3241 006e D2F83080 		ldr	r8, [r2, #48]
 3242 0072 D3F80090 		ldr	r9, [r3]
 3243 0076 FFF7FEFF 		bl	_ZNSt7__cxx1112basic_stringIcSt11char_traitsIcESaIcEE9_M_assignERKS4_
 3244 007a 0298     		ldr	r0, [sp, #8]
 3245 007c A042     		cmp	r0, r4
 3246 007e C5E90698 		strd	r9, r8, [r5, #24]
 3247 0082 03D0     		beq	.L445
 3248 0084 0499     		ldr	r1, [sp, #16]
 3249 0086 0131     		adds	r1, r1, #1
 3250 0088 FFF7FEFF 		bl	_ZdlPvj
 3251              	.L445:
 3252 008c F369     		ldr	r3, [r6, #28]
 3253 008e 2E49     		ldr	r1, .L455+16
 3254 0090 1A78     		ldrb	r2, [r3]	@ zero_extendqisi2
 3255 0092 2E4B     		ldr	r3, .L455+20
 3256 0094 0294     		str	r4, [sp, #8]
 3257 0096 002A     		cmp	r2, #0
 3258 0098 08BF     		it	eq
 3259 009a 1946     		moveq	r1, r3
 3260 009c D7F80C80 		ldr	r8, [r7, #12]
 3261 00a0 0846     		mov	r0, r1
 3262 00a2 0191     		str	r1, [sp, #4]
 3263 00a4 FFF7FEFF 		bl	strlen
 3264 00a8 0546     		mov	r5, r0
 3265 00aa 0199     		ldr	r1, [sp, #4]
 3266 00ac 2046     		mov	r0, r4
 3267 00ae 2A46     		mov	r2, r5
 3268 00b0 FFF7FEFF 		bl	memcpy
 3269 00b4 08AB     		add	r3, sp, #32
 3270 00b6 0395     		str	r5, [sp, #12]
 3271 00b8 1D44     		add	r5, r5, r3
 3272 00ba 0023     		movs	r3, #0
 3273 00bc 05F8103C 		strb	r3, [r5, #-16]
 3274 00c0 F369     		ldr	r3, [r6, #28]
ARM GAS  /var/folders/sy/x1dkwsgj58j1lmy_hry3vpdm0000gn/T//cch4V49g.s 			page 58


 3275 00c2 1A78     		ldrb	r2, [r3]	@ zero_extendqisi2
 3276 00c4 002A     		cmp	r2, #0
 3277 00c6 33D0     		beq	.L453
 3278 00c8 214A     		ldr	r2, .L455+24
 3279 00ca D2F80090 		ldr	r9, [r2]
 3280              	.L447:
 3281 00ce 4046     		mov	r0, r8
 3282 00d0 02A9     		add	r1, sp, #8
 3283 00d2 5D68     		ldr	r5, [r3, #4]
 3284 00d4 FFF7FEFF 		bl	_ZNSt7__cxx1112basic_stringIcSt11char_traitsIcESaIcEE9_M_assignERKS4_
 3285 00d8 0298     		ldr	r0, [sp, #8]
 3286 00da A042     		cmp	r0, r4
 3287 00dc C8E90695 		strd	r9, r5, [r8, #24]
 3288 00e0 03D0     		beq	.L448
 3289 00e2 0499     		ldr	r1, [sp, #16]
 3290 00e4 0131     		adds	r1, r1, #1
 3291 00e6 FFF7FEFF 		bl	_ZdlPvj
 3292              	.L448:
 3293 00ea 1A49     		ldr	r1, .L455+28
 3294 00ec 2346     		mov	r3, r4
 3295 00ee 1A4A     		ldr	r2, .L455+32
 3296 00f0 4FF00A0C 		mov	ip, #10
 3297 00f4 3D69     		ldr	r5, [r7, #16]
 3298 00f6 4FF0000E 		mov	lr, #0
 3299 00fa 0F68     		ldr	r7, [r1]
 3300 00fc F668     		ldr	r6, [r6, #12]
 3301 00fe 0294     		str	r4, [sp, #8]
 3302 0100 07CA     		ldm	r2, {r0, r1, r2}
 3303 0102 03C3     		stmia	r3!, {r0, r1}
 3304 0104 2846     		mov	r0, r5
 3305 0106 1A80     		strh	r2, [r3]	@ movhi
 3306 0108 02A9     		add	r1, sp, #8
 3307 010a 8DF81AE0 		strb	lr, [sp, #26]
 3308 010e CDF80CC0 		str	ip, [sp, #12]
 3309 0112 F66A     		ldr	r6, [r6, #44]
 3310 0114 FFF7FEFF 		bl	_ZNSt7__cxx1112basic_stringIcSt11char_traitsIcESaIcEE9_M_assignERKS4_
 3311 0118 0298     		ldr	r0, [sp, #8]
 3312 011a A042     		cmp	r0, r4
 3313 011c C5E90676 		strd	r7, r6, [r5, #24]
 3314 0120 03D0     		beq	.L443
 3315 0122 0499     		ldr	r1, [sp, #16]
 3316 0124 0131     		adds	r1, r1, #1
 3317 0126 FFF7FEFF 		bl	_ZdlPvj
 3318              	.L443:
 3319 012a 09B0     		add	sp, sp, #36
 3320              		@ sp needed
 3321 012c BDE8F083 		pop	{r4, r5, r6, r7, r8, r9, pc}
 3322              	.L453:
 3323 0130 0A4A     		ldr	r2, .L455+36
 3324 0132 D2F80090 		ldr	r9, [r2]
 3325 0136 CAE7     		b	.L447
 3326              	.L456:
 3327              		.align	2
 3328              	.L455:
 3329 0138 1C000000 		.word	.LC20
 3330 013c 00000000 		.word	.LANCHOR19
 3331 0140 20000000 		.word	.LC21
ARM GAS  /var/folders/sy/x1dkwsgj58j1lmy_hry3vpdm0000gn/T//cch4V49g.s 			page 59


 3332 0144 00000000 		.word	.LANCHOR20
 3333 0148 00000000 		.word	.LC18
 3334 014c 0C000000 		.word	.LC19
 3335 0150 00000000 		.word	.LANCHOR21
 3336 0154 00000000 		.word	.LANCHOR7
 3337 0158 2C000000 		.word	.LC22
 3338 015c 00000000 		.word	.LANCHOR22
 3340              		.section	.rodata._ZN15MonoEngineDelay7SetMenuEP9MenuState.str1.4,"aMS",%progbits,1
 3341              		.align	2
 3342              	.LC23:
 3343 0000 61637469 		.ascii	"active\000"
 3343      766500
 3344 0007 00       		.align	2
 3345              	.LC24:
 3346 0008 62797061 		.ascii	"bypassed\000"
 3346      73736564 
 3346      00
 3347 0011 000000   		.align	2
 3348              	.LC25:
 3349 0014 736F7572 		.ascii	"source\000"
 3349      636500
 3350 001b 00       		.align	2
 3351              	.LC26:
 3352 001c 66656564 		.ascii	"feedback\000"
 3352      6261636B 
 3352      00
 3353              		.section	.text._ZN15MonoEngineDelay7SetMenuEP9MenuState,"ax",%progbits
 3354              		.align	1
 3355              		.p2align 2,,3
 3356              		.global	_ZN15MonoEngineDelay7SetMenuEP9MenuState
 3357              		.syntax unified
 3358              		.thumb
 3359              		.thumb_func
 3360              		.fpu fpv5-d16
 3362              	_ZN15MonoEngineDelay7SetMenuEP9MenuState:
 3363              		@ args = 0, pretend = 0, frame = 32
 3364              		@ frame_needed = 0, uses_anonymous_args = 0
 3365 0000 2DE9F043 		push	{r4, r5, r6, r7, r8, r9, lr}
 3366 0004 594B     		ldr	r3, .L470
 3367 0006 89B0     		sub	sp, sp, #36
 3368 0008 0546     		mov	r5, r0
 3369 000a 0622     		movs	r2, #6
 3370 000c 0F46     		mov	r7, r1
 3371 000e 04AC     		add	r4, sp, #16
 3372 0010 0392     		str	r2, [sp, #12]
 3373 0012 0022     		movs	r2, #0
 3374 0014 7E68     		ldr	r6, [r7, #4]
 3375 0016 8DF81620 		strb	r2, [sp, #22]
 3376 001a 0294     		str	r4, [sp, #8]
 3377 001c 93E80300 		ldm	r3, {r0, r1}
 3378 0020 6B68     		ldr	r3, [r5, #4]
 3379 0022 0490     		str	r0, [sp, #16]
 3380 0024 3046     		mov	r0, r6
 3381 0026 ADF81410 		strh	r1, [sp, #20]	@ movhi
 3382 002a 02A9     		add	r1, sp, #8
 3383 002c D3F82C80 		ldr	r8, [r3, #44]
 3384 0030 4F4B     		ldr	r3, .L470+4
ARM GAS  /var/folders/sy/x1dkwsgj58j1lmy_hry3vpdm0000gn/T//cch4V49g.s 			page 60


 3385 0032 D3F80090 		ldr	r9, [r3]
 3386 0036 FFF7FEFF 		bl	_ZNSt7__cxx1112basic_stringIcSt11char_traitsIcESaIcEE9_M_assignERKS4_
 3387 003a 0298     		ldr	r0, [sp, #8]
 3388 003c A042     		cmp	r0, r4
 3389 003e C6E90698 		strd	r9, r8, [r6, #24]
 3390 0042 03D0     		beq	.L458
 3391 0044 0499     		ldr	r1, [sp, #16]
 3392 0046 0131     		adds	r1, r1, #1
 3393 0048 FFF7FEFF 		bl	_ZdlPvj
 3394              	.L458:
 3395 004c AB68     		ldr	r3, [r5, #8]
 3396 004e 4949     		ldr	r1, .L470+8
 3397 0050 1A78     		ldrb	r2, [r3]	@ zero_extendqisi2
 3398 0052 494B     		ldr	r3, .L470+12
 3399 0054 0294     		str	r4, [sp, #8]
 3400 0056 002A     		cmp	r2, #0
 3401 0058 08BF     		it	eq
 3402 005a 1946     		moveq	r1, r3
 3403 005c D7F80880 		ldr	r8, [r7, #8]
 3404 0060 0846     		mov	r0, r1
 3405 0062 0191     		str	r1, [sp, #4]
 3406 0064 FFF7FEFF 		bl	strlen
 3407 0068 0646     		mov	r6, r0
 3408 006a 0199     		ldr	r1, [sp, #4]
 3409 006c 2046     		mov	r0, r4
 3410 006e 3246     		mov	r2, r6
 3411 0070 FFF7FEFF 		bl	memcpy
 3412 0074 08AB     		add	r3, sp, #32
 3413 0076 0396     		str	r6, [sp, #12]
 3414 0078 1E44     		add	r6, r6, r3
 3415 007a 0023     		movs	r3, #0
 3416 007c 06F8103C 		strb	r3, [r6, #-16]
 3417 0080 AB68     		ldr	r3, [r5, #8]
 3418 0082 1A78     		ldrb	r2, [r3]	@ zero_extendqisi2
 3419 0084 002A     		cmp	r2, #0
 3420 0086 6CD0     		beq	.L468
 3421 0088 3C4A     		ldr	r2, .L470+16
 3422 008a D2F80090 		ldr	r9, [r2]
 3423              	.L460:
 3424 008e 4046     		mov	r0, r8
 3425 0090 02A9     		add	r1, sp, #8
 3426 0092 5E68     		ldr	r6, [r3, #4]
 3427 0094 FFF7FEFF 		bl	_ZNSt7__cxx1112basic_stringIcSt11char_traitsIcESaIcEE9_M_assignERKS4_
 3428 0098 0298     		ldr	r0, [sp, #8]
 3429 009a A042     		cmp	r0, r4
 3430 009c C8E90696 		strd	r9, r6, [r8, #24]
 3431 00a0 03D0     		beq	.L461
 3432 00a2 0499     		ldr	r1, [sp, #16]
 3433 00a4 0131     		adds	r1, r1, #1
 3434 00a6 FFF7FEFF 		bl	_ZdlPvj
 3435              	.L461:
 3436 00aa 354B     		ldr	r3, .L470+20
 3437 00ac 0521     		movs	r1, #5
 3438 00ae 3E69     		ldr	r6, [r7, #16]
 3439 00b0 0391     		str	r1, [sp, #12]
 3440 00b2 2A69     		ldr	r2, [r5, #16]
 3441 00b4 0294     		str	r4, [sp, #8]
ARM GAS  /var/folders/sy/x1dkwsgj58j1lmy_hry3vpdm0000gn/T//cch4V49g.s 			page 61


 3442 00b6 93E80300 		ldm	r3, {r0, r1}
 3443 00ba 0023     		movs	r3, #0
 3444 00bc 0490     		str	r0, [sp, #16]
 3445 00be 3046     		mov	r0, r6
 3446 00c0 8DF81530 		strb	r3, [sp, #21]
 3447 00c4 2F4B     		ldr	r3, .L470+24
 3448 00c6 8DF81410 		strb	r1, [sp, #20]
 3449 00ca 02A9     		add	r1, sp, #8
 3450 00cc D2F83080 		ldr	r8, [r2, #48]
 3451 00d0 D3F80090 		ldr	r9, [r3]
 3452 00d4 FFF7FEFF 		bl	_ZNSt7__cxx1112basic_stringIcSt11char_traitsIcESaIcEE9_M_assignERKS4_
 3453 00d8 0298     		ldr	r0, [sp, #8]
 3454 00da A042     		cmp	r0, r4
 3455 00dc C6E90698 		strd	r9, r8, [r6, #24]
 3456 00e0 03D0     		beq	.L462
 3457 00e2 0499     		ldr	r1, [sp, #16]
 3458 00e4 0131     		adds	r1, r1, #1
 3459 00e6 FFF7FEFF 		bl	_ZdlPvj
 3460              	.L462:
 3461 00ea 274B     		ldr	r3, .L470+28
 3462 00ec 0821     		movs	r1, #8
 3463 00ee 7E69     		ldr	r6, [r7, #20]
 3464 00f0 0391     		str	r1, [sp, #12]
 3465 00f2 AA69     		ldr	r2, [r5, #24]
 3466 00f4 0294     		str	r4, [sp, #8]
 3467 00f6 93E80300 		ldm	r3, {r0, r1}
 3468 00fa 0023     		movs	r3, #0
 3469 00fc 84E80300 		stm	r4, {r0, r1}
 3470 0100 8DF81830 		strb	r3, [sp, #24]
 3471 0104 3046     		mov	r0, r6
 3472 0106 214B     		ldr	r3, .L470+32
 3473 0108 02A9     		add	r1, sp, #8
 3474 010a D2F83080 		ldr	r8, [r2, #48]
 3475 010e D3F80090 		ldr	r9, [r3]
 3476 0112 FFF7FEFF 		bl	_ZNSt7__cxx1112basic_stringIcSt11char_traitsIcESaIcEE9_M_assignERKS4_
 3477 0116 0298     		ldr	r0, [sp, #8]
 3478 0118 A042     		cmp	r0, r4
 3479 011a C6E90698 		strd	r9, r8, [r6, #24]
 3480 011e 03D0     		beq	.L463
 3481 0120 0499     		ldr	r1, [sp, #16]
 3482 0122 0131     		adds	r1, r1, #1
 3483 0124 FFF7FEFF 		bl	_ZdlPvj
 3484              	.L463:
 3485 0128 194B     		ldr	r3, .L470+36
 3486 012a 02A9     		add	r1, sp, #8
 3487 012c BE69     		ldr	r6, [r7, #24]
 3488 012e 0493     		str	r3, [sp, #16]
 3489 0130 0423     		movs	r3, #4
 3490 0132 EA69     		ldr	r2, [r5, #28]
 3491 0134 3046     		mov	r0, r6
 3492 0136 0393     		str	r3, [sp, #12]
 3493 0138 0023     		movs	r3, #0
 3494 013a 0294     		str	r4, [sp, #8]
 3495 013c 8DF81430 		strb	r3, [sp, #20]
 3496 0140 144B     		ldr	r3, .L470+40
 3497 0142 156B     		ldr	r5, [r2, #48]
 3498 0144 1F68     		ldr	r7, [r3]
ARM GAS  /var/folders/sy/x1dkwsgj58j1lmy_hry3vpdm0000gn/T//cch4V49g.s 			page 62


 3499 0146 FFF7FEFF 		bl	_ZNSt7__cxx1112basic_stringIcSt11char_traitsIcESaIcEE9_M_assignERKS4_
 3500 014a 0298     		ldr	r0, [sp, #8]
 3501 014c A042     		cmp	r0, r4
 3502 014e C6E90675 		strd	r7, r5, [r6, #24]
 3503 0152 03D0     		beq	.L457
 3504 0154 0499     		ldr	r1, [sp, #16]
 3505 0156 0131     		adds	r1, r1, #1
 3506 0158 FFF7FEFF 		bl	_ZdlPvj
 3507              	.L457:
 3508 015c 09B0     		add	sp, sp, #36
 3509              		@ sp needed
 3510 015e BDE8F083 		pop	{r4, r5, r6, r7, r8, r9, pc}
 3511              	.L468:
 3512 0162 0D4A     		ldr	r2, .L470+44
 3513 0164 D2F80090 		ldr	r9, [r2]
 3514 0168 91E7     		b	.L460
 3515              	.L471:
 3516 016a 00BF     		.align	2
 3517              	.L470:
 3518 016c 14000000 		.word	.LC25
 3519 0170 00000000 		.word	.LANCHOR10
 3520 0174 00000000 		.word	.LC23
 3521 0178 08000000 		.word	.LC24
 3522 017c 00000000 		.word	.LANCHOR23
 3523 0180 00000000 		.word	.LC12
 3524 0184 00000000 		.word	.LANCHOR14
 3525 0188 1C000000 		.word	.LC26
 3526 018c 00000000 		.word	.LANCHOR25
 3527 0190 74696D65 		.word	1701669236
 3528 0194 00000000 		.word	.LANCHOR26
 3529 0198 00000000 		.word	.LANCHOR24
 3531              		.section	.rodata._ZN3LFO7SetMenuEP9MenuState.str1.4,"aMS",%progbits,1
 3532              		.align	2
 3533              	.LC27:
 3534 0000 69732062 		.ascii	"is bi-polar\000"
 3534      692D706F 
 3534      6C617200 
 3535              		.align	2
 3536              	.LC28:
 3537 000c 69732075 		.ascii	"is uni-polar\000"
 3537      6E692D70 
 3537      6F6C6172 
 3537      00
 3538 0019 000000   		.align	2
 3539              	.LC29:
 3540 001c 70657269 		.ascii	"period\000"
 3540      6F6400
 3541              		.section	.text._ZN3LFO7SetMenuEP9MenuState,"ax",%progbits
 3542              		.align	1
 3543              		.p2align 2,,3
 3544              		.global	_ZN3LFO7SetMenuEP9MenuState
 3545              		.syntax unified
 3546              		.thumb
 3547              		.thumb_func
 3548              		.fpu fpv5-d16
 3550              	_ZN3LFO7SetMenuEP9MenuState:
 3551              		@ args = 0, pretend = 0, frame = 32
ARM GAS  /var/folders/sy/x1dkwsgj58j1lmy_hry3vpdm0000gn/T//cch4V49g.s 			page 63


 3552              		@ frame_needed = 0, uses_anonymous_args = 0
 3553 0000 2DE9F043 		push	{r4, r5, r6, r7, r8, r9, lr}
 3554 0004 5B4B     		ldr	r3, .L485
 3555 0006 89B0     		sub	sp, sp, #36
 3556 0008 0546     		mov	r5, r0
 3557 000a 0622     		movs	r2, #6
 3558 000c 0E46     		mov	r6, r1
 3559 000e 04AC     		add	r4, sp, #16
 3560 0010 0392     		str	r2, [sp, #12]
 3561 0012 0022     		movs	r2, #0
 3562 0014 7768     		ldr	r7, [r6, #4]
 3563 0016 8DF81620 		strb	r2, [sp, #22]
 3564 001a 0294     		str	r4, [sp, #8]
 3565 001c 93E80300 		ldm	r3, {r0, r1}
 3566 0020 EB6B     		ldr	r3, [r5, #60]
 3567 0022 0490     		str	r0, [sp, #16]
 3568 0024 3846     		mov	r0, r7
 3569 0026 ADF81410 		strh	r1, [sp, #20]	@ movhi
 3570 002a 02A9     		add	r1, sp, #8
 3571 002c D3F83080 		ldr	r8, [r3, #48]
 3572 0030 514B     		ldr	r3, .L485+4
 3573 0032 D3F80090 		ldr	r9, [r3]
 3574 0036 FFF7FEFF 		bl	_ZNSt7__cxx1112basic_stringIcSt11char_traitsIcESaIcEE9_M_assignERKS4_
 3575 003a 0298     		ldr	r0, [sp, #8]
 3576 003c A042     		cmp	r0, r4
 3577 003e C7E90698 		strd	r9, r8, [r7, #24]
 3578 0042 03D0     		beq	.L473
 3579 0044 0499     		ldr	r1, [sp, #16]
 3580 0046 0131     		adds	r1, r1, #1
 3581 0048 FFF7FEFF 		bl	_ZdlPvj
 3582              	.L473:
 3583 004c 4B49     		ldr	r1, .L485+8
 3584 004e 2346     		mov	r3, r4
 3585 0050 4B4A     		ldr	r2, .L485+12
 3586 0052 0B27     		movs	r7, #11
 3587 0054 D1F80090 		ldr	r9, [r1]
 3588 0058 4FF0000E 		mov	lr, #0
 3589 005c 0294     		str	r4, [sp, #8]
 3590 005e D6F80880 		ldr	r8, [r6, #8]
 3591 0062 07CA     		ldm	r2, {r0, r1, r2}
 3592 0064 03C3     		stmia	r3!, {r0, r1}
 3593 0066 23F8022B 		strh	r2, [r3], #2	@ movhi
 3594 006a 120C     		lsrs	r2, r2, #16
 3595 006c 4046     		mov	r0, r8
 3596 006e 02A9     		add	r1, sp, #8
 3597 0070 1A70     		strb	r2, [r3]
 3598 0072 2B6C     		ldr	r3, [r5, #64]
 3599 0074 8DF81BE0 		strb	lr, [sp, #27]
 3600 0078 0397     		str	r7, [sp, #12]
 3601 007a 1F6B     		ldr	r7, [r3, #48]
 3602 007c FFF7FEFF 		bl	_ZNSt7__cxx1112basic_stringIcSt11char_traitsIcESaIcEE9_M_assignERKS4_
 3603 0080 0298     		ldr	r0, [sp, #8]
 3604 0082 A042     		cmp	r0, r4
 3605 0084 C8E90697 		strd	r9, r7, [r8, #24]
 3606 0088 03D0     		beq	.L474
 3607 008a 0499     		ldr	r1, [sp, #16]
 3608 008c 0131     		adds	r1, r1, #1
ARM GAS  /var/folders/sy/x1dkwsgj58j1lmy_hry3vpdm0000gn/T//cch4V49g.s 			page 64


 3609 008e FFF7FEFF 		bl	_ZdlPvj
 3610              	.L474:
 3611 0092 0422     		movs	r2, #4
 3612 0094 3B49     		ldr	r1, .L485+16
 3613 0096 2B6B     		ldr	r3, [r5, #48]
 3614 0098 F768     		ldr	r7, [r6, #12]
 3615 009a 0294     		str	r4, [sp, #8]
 3616 009c 3846     		mov	r0, r7
 3617 009e CDE90321 		strd	r2, r1, [sp, #12]
 3618 00a2 0022     		movs	r2, #0
 3619 00a4 02A9     		add	r1, sp, #8
 3620 00a6 8DF81420 		strb	r2, [sp, #20]
 3621 00aa D3F82C80 		ldr	r8, [r3, #44]
 3622 00ae 364B     		ldr	r3, .L485+20
 3623 00b0 D3F80090 		ldr	r9, [r3]
 3624 00b4 FFF7FEFF 		bl	_ZNSt7__cxx1112basic_stringIcSt11char_traitsIcESaIcEE9_M_assignERKS4_
 3625 00b8 0298     		ldr	r0, [sp, #8]
 3626 00ba A042     		cmp	r0, r4
 3627 00bc C7E90698 		strd	r9, r8, [r7, #24]
 3628 00c0 03D0     		beq	.L475
 3629 00c2 0499     		ldr	r1, [sp, #16]
 3630 00c4 0131     		adds	r1, r1, #1
 3631 00c6 FFF7FEFF 		bl	_ZdlPvj
 3632              	.L475:
 3633 00ca 3049     		ldr	r1, .L485+24
 3634 00cc 2346     		mov	r3, r4
 3635 00ce 304A     		ldr	r2, .L485+28
 3636 00d0 4FF00A0C 		mov	ip, #10
 3637 00d4 D1F80090 		ldr	r9, [r1]
 3638 00d8 4FF0000E 		mov	lr, #0
 3639 00dc 3769     		ldr	r7, [r6, #16]
 3640 00de 0294     		str	r4, [sp, #8]
 3641 00e0 07CA     		ldm	r2, {r0, r1, r2}
 3642 00e2 03C3     		stmia	r3!, {r0, r1}
 3643 00e4 1A80     		strh	r2, [r3]	@ movhi
 3644 00e6 3846     		mov	r0, r7
 3645 00e8 6B6C     		ldr	r3, [r5, #68]
 3646 00ea 02A9     		add	r1, sp, #8
 3647 00ec 8DF81AE0 		strb	lr, [sp, #26]
 3648 00f0 CDF80CC0 		str	ip, [sp, #12]
 3649 00f4 D3F81080 		ldr	r8, [r3, #16]
 3650 00f8 FFF7FEFF 		bl	_ZNSt7__cxx1112basic_stringIcSt11char_traitsIcESaIcEE9_M_assignERKS4_
 3651 00fc 0298     		ldr	r0, [sp, #8]
 3652 00fe A042     		cmp	r0, r4
 3653 0100 C7E90698 		strd	r9, r8, [r7, #24]
 3654 0104 03D0     		beq	.L476
 3655 0106 0499     		ldr	r1, [sp, #16]
 3656 0108 0131     		adds	r1, r1, #1
 3657 010a FFF7FEFF 		bl	_ZdlPvj
 3658              	.L476:
 3659 010e 6B6B     		ldr	r3, [r5, #52]
 3660 0110 2049     		ldr	r1, .L485+32
 3661 0112 1A78     		ldrb	r2, [r3]	@ zero_extendqisi2
 3662 0114 204B     		ldr	r3, .L485+36
 3663 0116 7769     		ldr	r7, [r6, #20]
 3664 0118 002A     		cmp	r2, #0
 3665 011a 08BF     		it	eq
ARM GAS  /var/folders/sy/x1dkwsgj58j1lmy_hry3vpdm0000gn/T//cch4V49g.s 			page 65


 3666 011c 1946     		moveq	r1, r3
 3667 011e 0294     		str	r4, [sp, #8]
 3668 0120 0846     		mov	r0, r1
 3669 0122 0191     		str	r1, [sp, #4]
 3670 0124 FFF7FEFF 		bl	strlen
 3671 0128 0646     		mov	r6, r0
 3672 012a 0199     		ldr	r1, [sp, #4]
 3673 012c 2046     		mov	r0, r4
 3674 012e 3246     		mov	r2, r6
 3675 0130 FFF7FEFF 		bl	memcpy
 3676 0134 08AA     		add	r2, sp, #32
 3677 0136 6B6B     		ldr	r3, [r5, #52]
 3678 0138 0396     		str	r6, [sp, #12]
 3679 013a 1644     		add	r6, r6, r2
 3680 013c 0022     		movs	r2, #0
 3681 013e 06F8102C 		strb	r2, [r6, #-16]
 3682 0142 1A78     		ldrb	r2, [r3]	@ zero_extendqisi2
 3683 0144 92B1     		cbz	r2, .L483
 3684 0146 154A     		ldr	r2, .L485+40
 3685 0148 1668     		ldr	r6, [r2]
 3686              	.L478:
 3687 014a 3846     		mov	r0, r7
 3688 014c 02A9     		add	r1, sp, #8
 3689 014e 5D68     		ldr	r5, [r3, #4]
 3690 0150 FFF7FEFF 		bl	_ZNSt7__cxx1112basic_stringIcSt11char_traitsIcESaIcEE9_M_assignERKS4_
 3691 0154 0298     		ldr	r0, [sp, #8]
 3692 0156 A042     		cmp	r0, r4
 3693 0158 C7E90665 		strd	r6, r5, [r7, #24]
 3694 015c 03D0     		beq	.L472
 3695 015e 0499     		ldr	r1, [sp, #16]
 3696 0160 0131     		adds	r1, r1, #1
 3697 0162 FFF7FEFF 		bl	_ZdlPvj
 3698              	.L472:
 3699 0166 09B0     		add	sp, sp, #36
 3700              		@ sp needed
 3701 0168 BDE8F083 		pop	{r4, r5, r6, r7, r8, r9, pc}
 3702              	.L483:
 3703 016c 0C4A     		ldr	r2, .L485+44
 3704 016e 1668     		ldr	r6, [r2]
 3705 0170 EBE7     		b	.L478
 3706              	.L486:
 3707 0172 00BF     		.align	2
 3708              	.L485:
 3709 0174 1C000000 		.word	.LC29
 3710 0178 00000000 		.word	.LANCHOR27
 3711 017c 00000000 		.word	.LANCHOR17
 3712 0180 1C000000 		.word	.LC15
 3713 0184 67617465 		.word	1702125927
 3714 0188 00000000 		.word	.LANCHOR7
 3715 018c 00000000 		.word	.LANCHOR15
 3716 0190 08000000 		.word	.LC13
 3717 0194 00000000 		.word	.LC27
 3718 0198 0C000000 		.word	.LC28
 3719 019c 00000000 		.word	.LANCHOR28
 3720 01a0 00000000 		.word	.LANCHOR29
 3722              		.section	.rodata._ZN15MonoEngineMixer7SetMenuEP9MenuState.str1.4,"aMS",%progbits,1
 3723              		.align	2
ARM GAS  /var/folders/sy/x1dkwsgj58j1lmy_hry3vpdm0000gn/T//cch4V49g.s 			page 66


 3724              	.LC30:
 3725 0000 6D617374 		.ascii	"master level\000"
 3725      6572206C 
 3725      6576656C 
 3725      00
 3726 000d 000000   		.align	2
 3727              	.LC31:
 3728 0010 736F7572 		.ascii	"source 1\000"
 3728      63652031 
 3728      00
 3729 0019 000000   		.align	2
 3730              	.LC32:
 3731 001c 6C657665 		.ascii	"level 1\000"
 3731      6C203100 
 3732              		.align	2
 3733              	.LC33:
 3734 0024 736F7572 		.ascii	"source 2\000"
 3734      63652032 
 3734      00
 3735 002d 000000   		.align	2
 3736              	.LC34:
 3737 0030 6C657665 		.ascii	"level 2\000"
 3737      6C203200 
 3738              		.align	2
 3739              	.LC35:
 3740 0038 736F7572 		.ascii	"source 3\000"
 3740      63652033 
 3740      00
 3741 0041 000000   		.align	2
 3742              	.LC36:
 3743 0044 6C657665 		.ascii	"level 3\000"
 3743      6C203300 
 3744              		.align	2
 3745              	.LC37:
 3746 004c 736F7572 		.ascii	"source 4\000"
 3746      63652034 
 3746      00
 3747 0055 000000   		.align	2
 3748              	.LC38:
 3749 0058 6C657665 		.ascii	"level 4\000"
 3749      6C203400 
 3750              		.section	.text._ZN15MonoEngineMixer7SetMenuEP9MenuState,"ax",%progbits
 3751              		.align	1
 3752              		.p2align 2,,3
 3753              		.global	_ZN15MonoEngineMixer7SetMenuEP9MenuState
 3754              		.syntax unified
 3755              		.thumb
 3756              		.thumb_func
 3757              		.fpu fpv5-d16
 3759              	_ZN15MonoEngineMixer7SetMenuEP9MenuState:
 3760              		@ args = 0, pretend = 0, frame = 24
 3761              		@ frame_needed = 0, uses_anonymous_args = 0
 3762 0000 2DE9F04F 		push	{r4, r5, r6, r7, r8, r9, r10, fp, lr}
 3763 0004 D1F80480 		ldr	r8, [r1, #4]
 3764 0008 87B0     		sub	sp, sp, #28
 3765 000a 0E46     		mov	r6, r1
 3766 000c 0C21     		movs	r1, #12
ARM GAS  /var/folders/sy/x1dkwsgj58j1lmy_hry3vpdm0000gn/T//cch4V49g.s 			page 67


 3767 000e 944A     		ldr	r2, .L498
 3768 0010 02AC     		add	r4, sp, #8
 3769 0012 0191     		str	r1, [sp, #4]
 3770 0014 0021     		movs	r1, #0
 3771 0016 4368     		ldr	r3, [r0, #4]
 3772 0018 0546     		mov	r5, r0
 3773 001a 8DF81410 		strb	r1, [sp, #20]
 3774 001e 914F     		ldr	r7, .L498+4
 3775 0020 0094     		str	r4, [sp]
 3776 0022 D7F800A0 		ldr	r10, [r7]
 3777 0026 07CA     		ldm	r2, {r0, r1, r2}
 3778 0028 84E80700 		stm	r4, {r0, r1, r2}
 3779 002c 4046     		mov	r0, r8
 3780 002e 6946     		mov	r1, sp
 3781 0030 D3F83090 		ldr	r9, [r3, #48]
 3782 0034 FFF7FEFF 		bl	_ZNSt7__cxx1112basic_stringIcSt11char_traitsIcESaIcEE9_M_assignERKS4_
 3783 0038 0098     		ldr	r0, [sp]
 3784 003a A042     		cmp	r0, r4
 3785 003c C8E906A9 		strd	r10, r9, [r8, #24]
 3786 0040 03D0     		beq	.L488
 3787 0042 0299     		ldr	r1, [sp, #8]
 3788 0044 0131     		adds	r1, r1, #1
 3789 0046 FFF7FEFF 		bl	_ZdlPvj
 3790              	.L488:
 3791 004a 874A     		ldr	r2, .L498+8
 3792 004c D6F83C90 		ldr	r9, [r6, #60]
 3793 0050 AB68     		ldr	r3, [r5, #8]
 3794 0052 0094     		str	r4, [sp]
 3795 0054 DFF83082 		ldr	r8, .L498+40
 3796 0058 92E80300 		ldm	r2, {r0, r1}
 3797 005c 0822     		movs	r2, #8
 3798 005e D8F800A0 		ldr	r10, [r8]
 3799 0062 84E80300 		stm	r4, {r0, r1}
 3800 0066 0192     		str	r2, [sp, #4]
 3801 0068 0022     		movs	r2, #0
 3802 006a 4846     		mov	r0, r9
 3803 006c 6946     		mov	r1, sp
 3804 006e 8DF81020 		strb	r2, [sp, #16]
 3805 0072 D3F82CB0 		ldr	fp, [r3, #44]
 3806 0076 FFF7FEFF 		bl	_ZNSt7__cxx1112basic_stringIcSt11char_traitsIcESaIcEE9_M_assignERKS4_
 3807 007a 0098     		ldr	r0, [sp]
 3808 007c A042     		cmp	r0, r4
 3809 007e C9E906AB 		strd	r10, fp, [r9, #24]
 3810 0082 03D0     		beq	.L489
 3811 0084 0299     		ldr	r1, [sp, #8]
 3812 0086 0131     		adds	r1, r1, #1
 3813 0088 FFF7FEFF 		bl	_ZdlPvj
 3814              	.L489:
 3815 008c 774A     		ldr	r2, .L498+12
 3816 008e D6F84090 		ldr	r9, [r6, #64]
 3817 0092 EB68     		ldr	r3, [r5, #12]
 3818 0094 D7F800A0 		ldr	r10, [r7]
 3819 0098 0094     		str	r4, [sp]
 3820 009a 92E80300 		ldm	r2, {r0, r1}
 3821 009e 0722     		movs	r2, #7
 3822 00a0 ADF80C10 		strh	r1, [sp, #12]	@ movhi
 3823 00a4 090C     		lsrs	r1, r1, #16
ARM GAS  /var/folders/sy/x1dkwsgj58j1lmy_hry3vpdm0000gn/T//cch4V49g.s 			page 68


 3824 00a6 0192     		str	r2, [sp, #4]
 3825 00a8 0022     		movs	r2, #0
 3826 00aa 0290     		str	r0, [sp, #8]
 3827 00ac 4846     		mov	r0, r9
 3828 00ae 8DF80E10 		strb	r1, [sp, #14]
 3829 00b2 6946     		mov	r1, sp
 3830 00b4 8DF80F20 		strb	r2, [sp, #15]
 3831 00b8 D3F830B0 		ldr	fp, [r3, #48]
 3832 00bc FFF7FEFF 		bl	_ZNSt7__cxx1112basic_stringIcSt11char_traitsIcESaIcEE9_M_assignERKS4_
 3833 00c0 0098     		ldr	r0, [sp]
 3834 00c2 A042     		cmp	r0, r4
 3835 00c4 C9E906AB 		strd	r10, fp, [r9, #24]
 3836 00c8 03D0     		beq	.L490
 3837 00ca 0299     		ldr	r1, [sp, #8]
 3838 00cc 0131     		adds	r1, r1, #1
 3839 00ce FFF7FEFF 		bl	_ZdlPvj
 3840              	.L490:
 3841 00d2 674A     		ldr	r2, .L498+16
 3842 00d4 D6F87490 		ldr	r9, [r6, #116]
 3843 00d8 2B69     		ldr	r3, [r5, #16]
 3844 00da 0094     		str	r4, [sp]
 3845 00dc D8F800A0 		ldr	r10, [r8]
 3846 00e0 92E80300 		ldm	r2, {r0, r1}
 3847 00e4 0822     		movs	r2, #8
 3848 00e6 84E80300 		stm	r4, {r0, r1}
 3849 00ea 0192     		str	r2, [sp, #4]
 3850 00ec 0022     		movs	r2, #0
 3851 00ee 4846     		mov	r0, r9
 3852 00f0 6946     		mov	r1, sp
 3853 00f2 8DF81020 		strb	r2, [sp, #16]
 3854 00f6 D3F82CB0 		ldr	fp, [r3, #44]
 3855 00fa FFF7FEFF 		bl	_ZNSt7__cxx1112basic_stringIcSt11char_traitsIcESaIcEE9_M_assignERKS4_
 3856 00fe 0098     		ldr	r0, [sp]
 3857 0100 A042     		cmp	r0, r4
 3858 0102 C9E906AB 		strd	r10, fp, [r9, #24]
 3859 0106 03D0     		beq	.L491
 3860 0108 0299     		ldr	r1, [sp, #8]
 3861 010a 0131     		adds	r1, r1, #1
 3862 010c FFF7FEFF 		bl	_ZdlPvj
 3863              	.L491:
 3864 0110 584A     		ldr	r2, .L498+20
 3865 0112 D6F87890 		ldr	r9, [r6, #120]
 3866 0116 6B69     		ldr	r3, [r5, #20]
 3867 0118 D7F800A0 		ldr	r10, [r7]
 3868 011c 0094     		str	r4, [sp]
 3869 011e 92E80300 		ldm	r2, {r0, r1}
 3870 0122 0722     		movs	r2, #7
 3871 0124 ADF80C10 		strh	r1, [sp, #12]	@ movhi
 3872 0128 090C     		lsrs	r1, r1, #16
 3873 012a 0192     		str	r2, [sp, #4]
 3874 012c 0022     		movs	r2, #0
 3875 012e 0290     		str	r0, [sp, #8]
 3876 0130 4846     		mov	r0, r9
 3877 0132 8DF80E10 		strb	r1, [sp, #14]
 3878 0136 6946     		mov	r1, sp
 3879 0138 8DF80F20 		strb	r2, [sp, #15]
 3880 013c D3F830B0 		ldr	fp, [r3, #48]
ARM GAS  /var/folders/sy/x1dkwsgj58j1lmy_hry3vpdm0000gn/T//cch4V49g.s 			page 69


 3881 0140 FFF7FEFF 		bl	_ZNSt7__cxx1112basic_stringIcSt11char_traitsIcESaIcEE9_M_assignERKS4_
 3882 0144 0098     		ldr	r0, [sp]
 3883 0146 A042     		cmp	r0, r4
 3884 0148 C9E906AB 		strd	r10, fp, [r9, #24]
 3885 014c 03D0     		beq	.L492
 3886 014e 0299     		ldr	r1, [sp, #8]
 3887 0150 0131     		adds	r1, r1, #1
 3888 0152 FFF7FEFF 		bl	_ZdlPvj
 3889              	.L492:
 3890 0156 484A     		ldr	r2, .L498+24
 3891 0158 D6F8AC90 		ldr	r9, [r6, #172]
 3892 015c AB69     		ldr	r3, [r5, #24]
 3893 015e 0094     		str	r4, [sp]
 3894 0160 D8F800A0 		ldr	r10, [r8]
 3895 0164 92E80300 		ldm	r2, {r0, r1}
 3896 0168 0822     		movs	r2, #8
 3897 016a 84E80300 		stm	r4, {r0, r1}
 3898 016e 0192     		str	r2, [sp, #4]
 3899 0170 0022     		movs	r2, #0
 3900 0172 4846     		mov	r0, r9
 3901 0174 6946     		mov	r1, sp
 3902 0176 8DF81020 		strb	r2, [sp, #16]
 3903 017a D3F82CB0 		ldr	fp, [r3, #44]
 3904 017e FFF7FEFF 		bl	_ZNSt7__cxx1112basic_stringIcSt11char_traitsIcESaIcEE9_M_assignERKS4_
 3905 0182 0098     		ldr	r0, [sp]
 3906 0184 A042     		cmp	r0, r4
 3907 0186 C9E906AB 		strd	r10, fp, [r9, #24]
 3908 018a 03D0     		beq	.L493
 3909 018c 0299     		ldr	r1, [sp, #8]
 3910 018e 0131     		adds	r1, r1, #1
 3911 0190 FFF7FEFF 		bl	_ZdlPvj
 3912              	.L493:
 3913 0194 394A     		ldr	r2, .L498+28
 3914 0196 D6F8B090 		ldr	r9, [r6, #176]
 3915 019a EB69     		ldr	r3, [r5, #28]
 3916 019c D7F800A0 		ldr	r10, [r7]
 3917 01a0 0094     		str	r4, [sp]
 3918 01a2 92E80300 		ldm	r2, {r0, r1}
 3919 01a6 0722     		movs	r2, #7
 3920 01a8 ADF80C10 		strh	r1, [sp, #12]	@ movhi
 3921 01ac 090C     		lsrs	r1, r1, #16
 3922 01ae 0192     		str	r2, [sp, #4]
 3923 01b0 0022     		movs	r2, #0
 3924 01b2 0290     		str	r0, [sp, #8]
 3925 01b4 4846     		mov	r0, r9
 3926 01b6 8DF80E10 		strb	r1, [sp, #14]
 3927 01ba 6946     		mov	r1, sp
 3928 01bc 8DF80F20 		strb	r2, [sp, #15]
 3929 01c0 D3F830B0 		ldr	fp, [r3, #48]
 3930 01c4 FFF7FEFF 		bl	_ZNSt7__cxx1112basic_stringIcSt11char_traitsIcESaIcEE9_M_assignERKS4_
 3931 01c8 0098     		ldr	r0, [sp]
 3932 01ca A042     		cmp	r0, r4
 3933 01cc C9E906AB 		strd	r10, fp, [r9, #24]
 3934 01d0 03D0     		beq	.L494
 3935 01d2 0299     		ldr	r1, [sp, #8]
 3936 01d4 0131     		adds	r1, r1, #1
 3937 01d6 FFF7FEFF 		bl	_ZdlPvj
ARM GAS  /var/folders/sy/x1dkwsgj58j1lmy_hry3vpdm0000gn/T//cch4V49g.s 			page 70


 3938              	.L494:
 3939 01da 294A     		ldr	r2, .L498+32
 3940 01dc 0821     		movs	r1, #8
 3941 01de D8F800A0 		ldr	r10, [r8]
 3942 01e2 0191     		str	r1, [sp, #4]
 3943 01e4 D6F8E480 		ldr	r8, [r6, #228]
 3944 01e8 2B6A     		ldr	r3, [r5, #32]
 3945 01ea 0094     		str	r4, [sp]
 3946 01ec 92E80300 		ldm	r2, {r0, r1}
 3947 01f0 0022     		movs	r2, #0
 3948 01f2 84E80300 		stm	r4, {r0, r1}
 3949 01f6 4046     		mov	r0, r8
 3950 01f8 6946     		mov	r1, sp
 3951 01fa 8DF81020 		strb	r2, [sp, #16]
 3952 01fe D3F82C90 		ldr	r9, [r3, #44]
 3953 0202 FFF7FEFF 		bl	_ZNSt7__cxx1112basic_stringIcSt11char_traitsIcESaIcEE9_M_assignERKS4_
 3954 0206 0098     		ldr	r0, [sp]
 3955 0208 A042     		cmp	r0, r4
 3956 020a C8E906A9 		strd	r10, r9, [r8, #24]
 3957 020e 03D0     		beq	.L495
 3958 0210 0299     		ldr	r1, [sp, #8]
 3959 0212 0131     		adds	r1, r1, #1
 3960 0214 FFF7FEFF 		bl	_ZdlPvj
 3961              	.L495:
 3962 0218 1A4B     		ldr	r3, .L498+36
 3963 021a 0721     		movs	r1, #7
 3964 021c D6F8E860 		ldr	r6, [r6, #232]
 3965 0220 0191     		str	r1, [sp, #4]
 3966 0222 6A6A     		ldr	r2, [r5, #36]
 3967 0224 3F68     		ldr	r7, [r7]
 3968 0226 0094     		str	r4, [sp]
 3969 0228 93E80300 		ldm	r3, {r0, r1}
 3970 022c 0023     		movs	r3, #0
 3971 022e ADF80C10 		strh	r1, [sp, #12]	@ movhi
 3972 0232 090C     		lsrs	r1, r1, #16
 3973 0234 0290     		str	r0, [sp, #8]
 3974 0236 3046     		mov	r0, r6
 3975 0238 8DF80E10 		strb	r1, [sp, #14]
 3976 023c 6946     		mov	r1, sp
 3977 023e 8DF80F30 		strb	r3, [sp, #15]
 3978 0242 156B     		ldr	r5, [r2, #48]
 3979 0244 FFF7FEFF 		bl	_ZNSt7__cxx1112basic_stringIcSt11char_traitsIcESaIcEE9_M_assignERKS4_
 3980 0248 0098     		ldr	r0, [sp]
 3981 024a A042     		cmp	r0, r4
 3982 024c C6E90675 		strd	r7, r5, [r6, #24]
 3983 0250 03D0     		beq	.L487
 3984 0252 0299     		ldr	r1, [sp, #8]
 3985 0254 0131     		adds	r1, r1, #1
 3986 0256 FFF7FEFF 		bl	_ZdlPvj
 3987              	.L487:
 3988 025a 07B0     		add	sp, sp, #28
 3989              		@ sp needed
 3990 025c BDE8F08F 		pop	{r4, r5, r6, r7, r8, r9, r10, fp, pc}
 3991              	.L499:
 3992              		.align	2
 3993              	.L498:
 3994 0260 00000000 		.word	.LC30
ARM GAS  /var/folders/sy/x1dkwsgj58j1lmy_hry3vpdm0000gn/T//cch4V49g.s 			page 71


 3995 0264 00000000 		.word	.LANCHOR14
 3996 0268 10000000 		.word	.LC31
 3997 026c 1C000000 		.word	.LC32
 3998 0270 24000000 		.word	.LC33
 3999 0274 30000000 		.word	.LC34
 4000 0278 38000000 		.word	.LC35
 4001 027c 44000000 		.word	.LC36
 4002 0280 4C000000 		.word	.LC37
 4003 0284 58000000 		.word	.LC38
 4004 0288 00000000 		.word	.LANCHOR10
 4006              		.section	.rodata._ZN16MonoEngineFilter7SetMenuEP9MenuState.str1.4,"aMS",%progbits,1
 4007              		.align	2
 4008              	.LC39:
 4009 0000 6B657974 		.ascii	"keytracked freqency\000"
 4009      7261636B 
 4009      65642066 
 4009      72657165 
 4009      6E637900 
 4010              		.align	2
 4011              	.LC40:
 4012 0014 7265736F 		.ascii	"resonance\000"
 4012      6E616E63 
 4012      6500
 4013              		.section	.text._ZN16MonoEngineFilter7SetMenuEP9MenuState,"ax",%progbits
 4014              		.align	1
 4015              		.p2align 2,,3
 4016              		.global	_ZN16MonoEngineFilter7SetMenuEP9MenuState
 4017              		.syntax unified
 4018              		.thumb
 4019              		.thumb_func
 4020              		.fpu fpv5-d16
 4022              	_ZN16MonoEngineFilter7SetMenuEP9MenuState:
 4023              		@ args = 0, pretend = 0, frame = 40
 4024              		@ frame_needed = 0, uses_anonymous_args = 0
 4025 0000 2DE9F047 		push	{r4, r5, r6, r7, r8, r9, r10, lr}
 4026 0004 7A4B     		ldr	r3, .L514
 4027 0006 8AB0     		sub	sp, sp, #40
 4028 0008 0546     		mov	r5, r0
 4029 000a 0622     		movs	r2, #6
 4030 000c 0F46     		mov	r7, r1
 4031 000e 06AC     		add	r4, sp, #24
 4032 0010 0592     		str	r2, [sp, #20]
 4033 0012 0022     		movs	r2, #0
 4034 0014 7E68     		ldr	r6, [r7, #4]
 4035 0016 8DF81E20 		strb	r2, [sp, #30]
 4036 001a 0494     		str	r4, [sp, #16]
 4037 001c 93E80300 		ldm	r3, {r0, r1}
 4038 0020 6B68     		ldr	r3, [r5, #4]
 4039 0022 0690     		str	r0, [sp, #24]
 4040 0024 3046     		mov	r0, r6
 4041 0026 ADF81C10 		strh	r1, [sp, #28]	@ movhi
 4042 002a 04A9     		add	r1, sp, #16
 4043 002c D3F82C80 		ldr	r8, [r3, #44]
 4044 0030 704B     		ldr	r3, .L514+4
 4045 0032 D3F80090 		ldr	r9, [r3]
 4046 0036 FFF7FEFF 		bl	_ZNSt7__cxx1112basic_stringIcSt11char_traitsIcESaIcEE9_M_assignERKS4_
 4047 003a 0498     		ldr	r0, [sp, #16]
ARM GAS  /var/folders/sy/x1dkwsgj58j1lmy_hry3vpdm0000gn/T//cch4V49g.s 			page 72


 4048 003c A042     		cmp	r0, r4
 4049 003e C6E90698 		strd	r9, r8, [r6, #24]
 4050 0042 03D0     		beq	.L501
 4051 0044 0699     		ldr	r1, [sp, #24]
 4052 0046 0131     		adds	r1, r1, #1
 4053 0048 FFF7FEFF 		bl	_ZdlPvj
 4054              	.L501:
 4055 004c AB69     		ldr	r3, [r5, #24]
 4056 004e 6A49     		ldr	r1, .L514+8
 4057 0050 1A78     		ldrb	r2, [r3]	@ zero_extendqisi2
 4058 0052 6A4B     		ldr	r3, .L514+12
 4059 0054 0494     		str	r4, [sp, #16]
 4060 0056 002A     		cmp	r2, #0
 4061 0058 08BF     		it	eq
 4062 005a 1946     		moveq	r1, r3
 4063 005c D7F80880 		ldr	r8, [r7, #8]
 4064 0060 0846     		mov	r0, r1
 4065 0062 0191     		str	r1, [sp, #4]
 4066 0064 FFF7FEFF 		bl	strlen
 4067 0068 0646     		mov	r6, r0
 4068 006a 0199     		ldr	r1, [sp, #4]
 4069 006c 2046     		mov	r0, r4
 4070 006e 3246     		mov	r2, r6
 4071 0070 FFF7FEFF 		bl	memcpy
 4072 0074 0AAB     		add	r3, sp, #40
 4073 0076 0596     		str	r6, [sp, #20]
 4074 0078 1E44     		add	r6, r6, r3
 4075 007a 0023     		movs	r3, #0
 4076 007c 06F8103C 		strb	r3, [r6, #-16]
 4077 0080 AB69     		ldr	r3, [r5, #24]
 4078 0082 1B78     		ldrb	r3, [r3]	@ zero_extendqisi2
 4079 0084 002B     		cmp	r3, #0
 4080 0086 00F0AF80 		beq	.L512
 4081 008a 5D4B     		ldr	r3, .L514+16
 4082 008c D3F80090 		ldr	r9, [r3]
 4083              	.L503:
 4084 0090 5C4B     		ldr	r3, .L514+20
 4085 0092 4046     		mov	r0, r8
 4086 0094 04A9     		add	r1, sp, #16
 4087 0096 1B68     		ldr	r3, [r3]
 4088 0098 D3F8F430 		ldr	r3, [r3, #244]
 4089 009c 5E68     		ldr	r6, [r3, #4]
 4090 009e FFF7FEFF 		bl	_ZNSt7__cxx1112basic_stringIcSt11char_traitsIcESaIcEE9_M_assignERKS4_
 4091 00a2 0498     		ldr	r0, [sp, #16]
 4092 00a4 A042     		cmp	r0, r4
 4093 00a6 C8E90696 		strd	r9, r6, [r8, #24]
 4094 00aa 03D0     		beq	.L504
 4095 00ac 0699     		ldr	r1, [sp, #24]
 4096 00ae 0131     		adds	r1, r1, #1
 4097 00b0 FFF7FEFF 		bl	_ZdlPvj
 4098              	.L504:
 4099 00b4 1323     		movs	r3, #19
 4100 00b6 0022     		movs	r2, #0
 4101 00b8 03A9     		add	r1, sp, #12
 4102 00ba 04A8     		add	r0, sp, #16
 4103 00bc D7F81080 		ldr	r8, [r7, #16]
 4104 00c0 4FF00009 		mov	r9, #0
ARM GAS  /var/folders/sy/x1dkwsgj58j1lmy_hry3vpdm0000gn/T//cch4V49g.s 			page 73


 4105 00c4 0393     		str	r3, [sp, #12]
 4106 00c6 0494     		str	r4, [sp, #16]
 4107 00c8 FFF7FEFF 		bl	_ZNSt7__cxx1112basic_stringIcSt11char_traitsIcESaIcEE9_M_createERjj
 4108 00cc 039B     		ldr	r3, [sp, #12]
 4109 00ce 0646     		mov	r6, r0
 4110 00d0 DFF848C1 		ldr	ip, .L514+44
 4111 00d4 0490     		str	r0, [sp, #16]
 4112 00d6 0693     		str	r3, [sp, #24]
 4113 00d8 DFF844E1 		ldr	lr, .L514+48
 4114 00dc BCE80F00 		ldmia	ip!, {r0, r1, r2, r3}
 4115 00e0 F360     		str	r3, [r6, #12]	@ unaligned
 4116 00e2 BCF80030 		ldrh	r3, [ip]	@ unaligned
 4117 00e6 3060     		str	r0, [r6]	@ unaligned
 4118 00e8 4046     		mov	r0, r8
 4119 00ea 3382     		strh	r3, [r6, #16]	@ unaligned
 4120 00ec 9CF80230 		ldrb	r3, [ip, #2]	@ zero_extendqisi2
 4121 00f0 7160     		str	r1, [r6, #4]	@ unaligned
 4122 00f2 04A9     		add	r1, sp, #16
 4123 00f4 B374     		strb	r3, [r6, #18]
 4124 00f6 B260     		str	r2, [r6, #8]	@ unaligned
 4125 00f8 039B     		ldr	r3, [sp, #12]
 4126 00fa 049A     		ldr	r2, [sp, #16]
 4127 00fc 0593     		str	r3, [sp, #20]
 4128 00fe 02F80390 		strb	r9, [r2, r3]
 4129 0102 AB68     		ldr	r3, [r5, #8]
 4130 0104 DEF80090 		ldr	r9, [lr]
 4131 0108 1E6B     		ldr	r6, [r3, #48]
 4132 010a FFF7FEFF 		bl	_ZNSt7__cxx1112basic_stringIcSt11char_traitsIcESaIcEE9_M_assignERKS4_
 4133 010e 0498     		ldr	r0, [sp, #16]
 4134 0110 A042     		cmp	r0, r4
 4135 0112 C8E90696 		strd	r9, r6, [r8, #24]
 4136 0116 03D0     		beq	.L505
 4137 0118 0699     		ldr	r1, [sp, #24]
 4138 011a 0131     		adds	r1, r1, #1
 4139 011c FFF7FEFF 		bl	_ZdlPvj
 4140              	.L505:
 4141 0120 3949     		ldr	r1, .L514+24
 4142 0122 2346     		mov	r3, r4
 4143 0124 394A     		ldr	r2, .L514+28
 4144 0126 0926     		movs	r6, #9
 4145 0128 D1F80090 		ldr	r9, [r1]
 4146 012c 4FF0000E 		mov	lr, #0
 4147 0130 D7F81480 		ldr	r8, [r7, #20]
 4148 0134 0494     		str	r4, [sp, #16]
 4149 0136 07CA     		ldm	r2, {r0, r1, r2}
 4150 0138 03C3     		stmia	r3!, {r0, r1}
 4151 013a 1A70     		strb	r2, [r3]
 4152 013c 4046     		mov	r0, r8
 4153 013e EB68     		ldr	r3, [r5, #12]
 4154 0140 04A9     		add	r1, sp, #16
 4155 0142 8DF821E0 		strb	lr, [sp, #33]
 4156 0146 0596     		str	r6, [sp, #20]
 4157 0148 1E6B     		ldr	r6, [r3, #48]
 4158 014a FFF7FEFF 		bl	_ZNSt7__cxx1112basic_stringIcSt11char_traitsIcESaIcEE9_M_assignERKS4_
 4159 014e 0498     		ldr	r0, [sp, #16]
 4160 0150 A042     		cmp	r0, r4
 4161 0152 C8E90696 		strd	r9, r6, [r8, #24]
ARM GAS  /var/folders/sy/x1dkwsgj58j1lmy_hry3vpdm0000gn/T//cch4V49g.s 			page 74


 4162 0156 03D0     		beq	.L506
 4163 0158 0699     		ldr	r1, [sp, #24]
 4164 015a 0131     		adds	r1, r1, #1
 4165 015c FFF7FEFF 		bl	_ZdlPvj
 4166              	.L506:
 4167 0160 2B4B     		ldr	r3, .L514+32
 4168 0162 0521     		movs	r1, #5
 4169 0164 FE69     		ldr	r6, [r7, #28]
 4170 0166 0591     		str	r1, [sp, #20]
 4171 0168 2A69     		ldr	r2, [r5, #16]
 4172 016a DFF8B880 		ldr	r8, .L514+52
 4173 016e 0494     		str	r4, [sp, #16]
 4174 0170 D8F80090 		ldr	r9, [r8]
 4175 0174 93E80300 		ldm	r3, {r0, r1}
 4176 0178 0023     		movs	r3, #0
 4177 017a 0690     		str	r0, [sp, #24]
 4178 017c 3046     		mov	r0, r6
 4179 017e 8DF81C10 		strb	r1, [sp, #28]
 4180 0182 04A9     		add	r1, sp, #16
 4181 0184 8DF81D30 		strb	r3, [sp, #29]
 4182 0188 D2F830A0 		ldr	r10, [r2, #48]
 4183 018c FFF7FEFF 		bl	_ZNSt7__cxx1112basic_stringIcSt11char_traitsIcESaIcEE9_M_assignERKS4_
 4184 0190 0498     		ldr	r0, [sp, #16]
 4185 0192 A042     		cmp	r0, r4
 4186 0194 C6E9069A 		strd	r9, r10, [r6, #24]
 4187 0198 03D0     		beq	.L507
 4188 019a 0699     		ldr	r1, [sp, #24]
 4189 019c 0131     		adds	r1, r1, #1
 4190 019e FFF7FEFF 		bl	_ZdlPvj
 4191              	.L507:
 4192 01a2 1C4A     		ldr	r2, .L514+36
 4193 01a4 2346     		mov	r3, r4
 4194 01a6 3E6A     		ldr	r6, [r7, #32]
 4195 01a8 4FF00A0C 		mov	ip, #10
 4196 01ac 6D69     		ldr	r5, [r5, #20]
 4197 01ae 4FF0000E 		mov	lr, #0
 4198 01b2 0494     		str	r4, [sp, #16]
 4199 01b4 D8F80070 		ldr	r7, [r8]
 4200 01b8 07CA     		ldm	r2, {r0, r1, r2}
 4201 01ba 03C3     		stmia	r3!, {r0, r1}
 4202 01bc 3046     		mov	r0, r6
 4203 01be 1A80     		strh	r2, [r3]	@ movhi
 4204 01c0 04A9     		add	r1, sp, #16
 4205 01c2 8DF822E0 		strb	lr, [sp, #34]
 4206 01c6 CDF814C0 		str	ip, [sp, #20]
 4207 01ca ED6A     		ldr	r5, [r5, #44]
 4208 01cc FFF7FEFF 		bl	_ZNSt7__cxx1112basic_stringIcSt11char_traitsIcESaIcEE9_M_assignERKS4_
 4209 01d0 0498     		ldr	r0, [sp, #16]
 4210 01d2 A042     		cmp	r0, r4
 4211 01d4 C6E90675 		strd	r7, r5, [r6, #24]
 4212 01d8 03D0     		beq	.L500
 4213 01da 0699     		ldr	r1, [sp, #24]
 4214 01dc 0131     		adds	r1, r1, #1
 4215 01de FFF7FEFF 		bl	_ZdlPvj
 4216              	.L500:
 4217 01e2 0AB0     		add	sp, sp, #40
 4218              		@ sp needed
ARM GAS  /var/folders/sy/x1dkwsgj58j1lmy_hry3vpdm0000gn/T//cch4V49g.s 			page 75


 4219 01e4 BDE8F087 		pop	{r4, r5, r6, r7, r8, r9, r10, pc}
 4220              	.L512:
 4221 01e8 0B4B     		ldr	r3, .L514+40
 4222 01ea D3F80090 		ldr	r9, [r3]
 4223 01ee 4FE7     		b	.L503
 4224              	.L515:
 4225              		.align	2
 4226              	.L514:
 4227 01f0 14000000 		.word	.LC25
 4228 01f4 00000000 		.word	.LANCHOR10
 4229 01f8 00000000 		.word	.LC23
 4230 01fc 08000000 		.word	.LC24
 4231 0200 00000000 		.word	.LANCHOR30
 4232 0204 00000000 		.word	.LANCHOR32
 4233 0208 00000000 		.word	.LANCHOR11
 4234 020c 14000000 		.word	.LC40
 4235 0210 28000000 		.word	.LC16
 4236 0214 30000000 		.word	.LC17
 4237 0218 00000000 		.word	.LANCHOR31
 4238 021c 00000000 		.word	.LC39
 4239 0220 00000000 		.word	.LANCHOR33
 4240 0224 00000000 		.word	.LANCHOR18
 4242              		.section	.rodata._ZN16MonoEnginePhaser7SetMenuEP9MenuState.str1.4,"aMS",%progbits,1
 4243              		.align	2
 4244              	.LC41:
 4245 0000 66726571 		.ascii	"freqency\000"
 4245      656E6379 
 4245      00
 4246 0009 000000   		.align	2
 4247              	.LC42:
 4248 000c 6C666F20 		.ascii	"lfo frequency\000"
 4248      66726571 
 4248      75656E63 
 4248      7900
 4249 001a 0000     		.align	2
 4250              	.LC43:
 4251 001c 6C666F20 		.ascii	"lfo depth\000"
 4251      64657074 
 4251      6800
 4252              		.section	.text._ZN16MonoEnginePhaser7SetMenuEP9MenuState,"ax",%progbits
 4253              		.align	1
 4254              		.p2align 2,,3
 4255              		.global	_ZN16MonoEnginePhaser7SetMenuEP9MenuState
 4256              		.syntax unified
 4257              		.thumb
 4258              		.thumb_func
 4259              		.fpu fpv5-d16
 4261              	_ZN16MonoEnginePhaser7SetMenuEP9MenuState:
 4262              		@ args = 0, pretend = 0, frame = 32
 4263              		@ frame_needed = 0, uses_anonymous_args = 0
 4264 0000 2DE9F047 		push	{r4, r5, r6, r7, r8, r9, r10, lr}
 4265 0004 7C4B     		ldr	r3, .L531
 4266 0006 88B0     		sub	sp, sp, #32
 4267 0008 0546     		mov	r5, r0
 4268 000a 0622     		movs	r2, #6
 4269 000c 0E46     		mov	r6, r1
 4270 000e 04AC     		add	r4, sp, #16
ARM GAS  /var/folders/sy/x1dkwsgj58j1lmy_hry3vpdm0000gn/T//cch4V49g.s 			page 76


 4271 0010 0392     		str	r2, [sp, #12]
 4272 0012 0022     		movs	r2, #0
 4273 0014 7768     		ldr	r7, [r6, #4]
 4274 0016 8DF81620 		strb	r2, [sp, #22]
 4275 001a 0294     		str	r4, [sp, #8]
 4276 001c 93E80300 		ldm	r3, {r0, r1}
 4277 0020 6B68     		ldr	r3, [r5, #4]
 4278 0022 0490     		str	r0, [sp, #16]
 4279 0024 3846     		mov	r0, r7
 4280 0026 ADF81410 		strh	r1, [sp, #20]	@ movhi
 4281 002a 02A9     		add	r1, sp, #8
 4282 002c D3F82C80 		ldr	r8, [r3, #44]
 4283 0030 724B     		ldr	r3, .L531+4
 4284 0032 D3F80090 		ldr	r9, [r3]
 4285 0036 FFF7FEFF 		bl	_ZNSt7__cxx1112basic_stringIcSt11char_traitsIcESaIcEE9_M_assignERKS4_
 4286 003a 0298     		ldr	r0, [sp, #8]
 4287 003c A042     		cmp	r0, r4
 4288 003e C7E90698 		strd	r9, r8, [r7, #24]
 4289 0042 03D0     		beq	.L517
 4290 0044 0499     		ldr	r1, [sp, #16]
 4291 0046 0131     		adds	r1, r1, #1
 4292 0048 FFF7FEFF 		bl	_ZdlPvj
 4293              	.L517:
 4294 004c AB68     		ldr	r3, [r5, #8]
 4295 004e 6C49     		ldr	r1, .L531+8
 4296 0050 1A78     		ldrb	r2, [r3]	@ zero_extendqisi2
 4297 0052 6C4B     		ldr	r3, .L531+12
 4298 0054 0294     		str	r4, [sp, #8]
 4299 0056 002A     		cmp	r2, #0
 4300 0058 08BF     		it	eq
 4301 005a 1946     		moveq	r1, r3
 4302 005c D6F80880 		ldr	r8, [r6, #8]
 4303 0060 0846     		mov	r0, r1
 4304 0062 0191     		str	r1, [sp, #4]
 4305 0064 FFF7FEFF 		bl	strlen
 4306 0068 0746     		mov	r7, r0
 4307 006a 0199     		ldr	r1, [sp, #4]
 4308 006c 2046     		mov	r0, r4
 4309 006e 3A46     		mov	r2, r7
 4310 0070 FFF7FEFF 		bl	memcpy
 4311 0074 08AB     		add	r3, sp, #32
 4312 0076 0397     		str	r7, [sp, #12]
 4313 0078 1F44     		add	r7, r7, r3
 4314 007a 0023     		movs	r3, #0
 4315 007c 07F8103C 		strb	r3, [r7, #-16]
 4316 0080 AB68     		ldr	r3, [r5, #8]
 4317 0082 1A78     		ldrb	r2, [r3]	@ zero_extendqisi2
 4318 0084 002A     		cmp	r2, #0
 4319 0086 00F0B380 		beq	.L529
 4320 008a 5F4A     		ldr	r2, .L531+16
 4321 008c D2F80090 		ldr	r9, [r2]
 4322              	.L519:
 4323 0090 4046     		mov	r0, r8
 4324 0092 02A9     		add	r1, sp, #8
 4325 0094 5F68     		ldr	r7, [r3, #4]
 4326 0096 FFF7FEFF 		bl	_ZNSt7__cxx1112basic_stringIcSt11char_traitsIcESaIcEE9_M_assignERKS4_
 4327 009a 0298     		ldr	r0, [sp, #8]
ARM GAS  /var/folders/sy/x1dkwsgj58j1lmy_hry3vpdm0000gn/T//cch4V49g.s 			page 77


 4328 009c A042     		cmp	r0, r4
 4329 009e C8E90697 		strd	r9, r7, [r8, #24]
 4330 00a2 03D0     		beq	.L520
 4331 00a4 0499     		ldr	r1, [sp, #16]
 4332 00a6 0131     		adds	r1, r1, #1
 4333 00a8 FFF7FEFF 		bl	_ZdlPvj
 4334              	.L520:
 4335 00ac 574B     		ldr	r3, .L531+20
 4336 00ae 0521     		movs	r1, #5
 4337 00b0 3769     		ldr	r7, [r6, #16]
 4338 00b2 0391     		str	r1, [sp, #12]
 4339 00b4 2A69     		ldr	r2, [r5, #16]
 4340 00b6 0294     		str	r4, [sp, #8]
 4341 00b8 93E80300 		ldm	r3, {r0, r1}
 4342 00bc 0023     		movs	r3, #0
 4343 00be 0490     		str	r0, [sp, #16]
 4344 00c0 3846     		mov	r0, r7
 4345 00c2 8DF81530 		strb	r3, [sp, #21]
 4346 00c6 524B     		ldr	r3, .L531+24
 4347 00c8 8DF81410 		strb	r1, [sp, #20]
 4348 00cc 02A9     		add	r1, sp, #8
 4349 00ce D2F83080 		ldr	r8, [r2, #48]
 4350 00d2 D3F80090 		ldr	r9, [r3]
 4351 00d6 FFF7FEFF 		bl	_ZNSt7__cxx1112basic_stringIcSt11char_traitsIcESaIcEE9_M_assignERKS4_
 4352 00da 0298     		ldr	r0, [sp, #8]
 4353 00dc A042     		cmp	r0, r4
 4354 00de C7E90698 		strd	r9, r8, [r7, #24]
 4355 00e2 03D0     		beq	.L521
 4356 00e4 0499     		ldr	r1, [sp, #16]
 4357 00e6 0131     		adds	r1, r1, #1
 4358 00e8 FFF7FEFF 		bl	_ZdlPvj
 4359              	.L521:
 4360 00ec 494B     		ldr	r3, .L531+28
 4361 00ee 0821     		movs	r1, #8
 4362 00f0 7769     		ldr	r7, [r6, #20]
 4363 00f2 0391     		str	r1, [sp, #12]
 4364 00f4 6A69     		ldr	r2, [r5, #20]
 4365 00f6 0294     		str	r4, [sp, #8]
 4366 00f8 93E80300 		ldm	r3, {r0, r1}
 4367 00fc 0023     		movs	r3, #0
 4368 00fe 84E80300 		stm	r4, {r0, r1}
 4369 0102 8DF81830 		strb	r3, [sp, #24]
 4370 0106 3846     		mov	r0, r7
 4371 0108 434B     		ldr	r3, .L531+32
 4372 010a 02A9     		add	r1, sp, #8
 4373 010c D2F83080 		ldr	r8, [r2, #48]
 4374 0110 D3F80090 		ldr	r9, [r3]
 4375 0114 FFF7FEFF 		bl	_ZNSt7__cxx1112basic_stringIcSt11char_traitsIcESaIcEE9_M_assignERKS4_
 4376 0118 0298     		ldr	r0, [sp, #8]
 4377 011a A042     		cmp	r0, r4
 4378 011c C7E90698 		strd	r9, r8, [r7, #24]
 4379 0120 03D0     		beq	.L522
 4380 0122 0499     		ldr	r1, [sp, #16]
 4381 0124 0131     		adds	r1, r1, #1
 4382 0126 FFF7FEFF 		bl	_ZdlPvj
 4383              	.L522:
 4384 012a 3C4A     		ldr	r2, .L531+36
ARM GAS  /var/folders/sy/x1dkwsgj58j1lmy_hry3vpdm0000gn/T//cch4V49g.s 			page 78


 4385 012c A446     		mov	ip, r4
 4386 012e 3C4B     		ldr	r3, .L531+40
 4387 0130 0D27     		movs	r7, #13
 4388 0132 D2F80090 		ldr	r9, [r2]
 4389 0136 4FF0000A 		mov	r10, #0
 4390 013a D6F81880 		ldr	r8, [r6, #24]
 4391 013e 0294     		str	r4, [sp, #8]
 4392 0140 0FCB     		ldm	r3, {r0, r1, r2, r3}
 4393 0142 ACE80700 		stmia	ip!, {r0, r1, r2}
 4394 0146 8CF80030 		strb	r3, [ip]
 4395 014a 4046     		mov	r0, r8
 4396 014c EB69     		ldr	r3, [r5, #28]
 4397 014e 02A9     		add	r1, sp, #8
 4398 0150 8DF81DA0 		strb	r10, [sp, #29]
 4399 0154 0397     		str	r7, [sp, #12]
 4400 0156 1F6B     		ldr	r7, [r3, #48]
 4401 0158 FFF7FEFF 		bl	_ZNSt7__cxx1112basic_stringIcSt11char_traitsIcESaIcEE9_M_assignERKS4_
 4402 015c 0298     		ldr	r0, [sp, #8]
 4403 015e A042     		cmp	r0, r4
 4404 0160 C8E90697 		strd	r9, r7, [r8, #24]
 4405 0164 03D0     		beq	.L523
 4406 0166 0499     		ldr	r1, [sp, #16]
 4407 0168 0131     		adds	r1, r1, #1
 4408 016a FFF7FEFF 		bl	_ZdlPvj
 4409              	.L523:
 4410 016e 2D49     		ldr	r1, .L531+44
 4411 0170 2346     		mov	r3, r4
 4412 0172 2D4A     		ldr	r2, .L531+48
 4413 0174 0927     		movs	r7, #9
 4414 0176 D1F80090 		ldr	r9, [r1]
 4415 017a 4FF0000E 		mov	lr, #0
 4416 017e D6F81C80 		ldr	r8, [r6, #28]
 4417 0182 0294     		str	r4, [sp, #8]
 4418 0184 07CA     		ldm	r2, {r0, r1, r2}
 4419 0186 03C3     		stmia	r3!, {r0, r1}
 4420 0188 1A70     		strb	r2, [r3]
 4421 018a 4046     		mov	r0, r8
 4422 018c AB69     		ldr	r3, [r5, #24]
 4423 018e 02A9     		add	r1, sp, #8
 4424 0190 8DF819E0 		strb	lr, [sp, #25]
 4425 0194 0397     		str	r7, [sp, #12]
 4426 0196 1F6B     		ldr	r7, [r3, #48]
 4427 0198 FFF7FEFF 		bl	_ZNSt7__cxx1112basic_stringIcSt11char_traitsIcESaIcEE9_M_assignERKS4_
 4428 019c 0298     		ldr	r0, [sp, #8]
 4429 019e A042     		cmp	r0, r4
 4430 01a0 C8E90697 		strd	r9, r7, [r8, #24]
 4431 01a4 03D0     		beq	.L524
 4432 01a6 0499     		ldr	r1, [sp, #16]
 4433 01a8 0131     		adds	r1, r1, #1
 4434 01aa FFF7FEFF 		bl	_ZdlPvj
 4435              	.L524:
 4436 01ae 1F4B     		ldr	r3, .L531+52
 4437 01b0 0294     		str	r4, [sp, #8]
 4438 01b2 366A     		ldr	r6, [r6, #32]
 4439 01b4 2A6A     		ldr	r2, [r5, #32]
 4440 01b6 93E80300 		ldm	r3, {r0, r1}
 4441 01ba 0823     		movs	r3, #8
ARM GAS  /var/folders/sy/x1dkwsgj58j1lmy_hry3vpdm0000gn/T//cch4V49g.s 			page 79


 4442 01bc 84E80300 		stm	r4, {r0, r1}
 4443 01c0 0DEB0301 		add	r1, sp, r3
 4444 01c4 0393     		str	r3, [sp, #12]
 4445 01c6 0023     		movs	r3, #0
 4446 01c8 3046     		mov	r0, r6
 4447 01ca 8DF81830 		strb	r3, [sp, #24]
 4448 01ce 184B     		ldr	r3, .L531+56
 4449 01d0 156B     		ldr	r5, [r2, #48]
 4450 01d2 1F68     		ldr	r7, [r3]
 4451 01d4 FFF7FEFF 		bl	_ZNSt7__cxx1112basic_stringIcSt11char_traitsIcESaIcEE9_M_assignERKS4_
 4452 01d8 0298     		ldr	r0, [sp, #8]
 4453 01da A042     		cmp	r0, r4
 4454 01dc C6E90675 		strd	r7, r5, [r6, #24]
 4455 01e0 03D0     		beq	.L516
 4456 01e2 0499     		ldr	r1, [sp, #16]
 4457 01e4 0131     		adds	r1, r1, #1
 4458 01e6 FFF7FEFF 		bl	_ZdlPvj
 4459              	.L516:
 4460 01ea 08B0     		add	sp, sp, #32
 4461              		@ sp needed
 4462 01ec BDE8F087 		pop	{r4, r5, r6, r7, r8, r9, r10, pc}
 4463              	.L529:
 4464 01f0 104A     		ldr	r2, .L531+60
 4465 01f2 D2F80090 		ldr	r9, [r2]
 4466 01f6 4BE7     		b	.L519
 4467              	.L532:
 4468              		.align	2
 4469              	.L531:
 4470 01f8 14000000 		.word	.LC25
 4471 01fc 00000000 		.word	.LANCHOR10
 4472 0200 00000000 		.word	.LC23
 4473 0204 08000000 		.word	.LC24
 4474 0208 00000000 		.word	.LANCHOR34
 4475 020c 00000000 		.word	.LC12
 4476 0210 00000000 		.word	.LANCHOR14
 4477 0214 00000000 		.word	.LC41
 4478 0218 00000000 		.word	.LANCHOR33
 4479 021c 00000000 		.word	.LANCHOR31
 4480 0220 0C000000 		.word	.LC42
 4481 0224 00000000 		.word	.LANCHOR35
 4482 0228 1C000000 		.word	.LC43
 4483 022c 1C000000 		.word	.LC26
 4484 0230 00000000 		.word	.LANCHOR25
 4485 0234 00000000 		.word	.LANCHOR17
 4487              		.section	.rodata._ZN21ModulationDestination7SetMenuEP9MenuState.str1.4,"aMS",%progbits,1
 4488              		.align	2
 4489              	.LC44:
 4490 0000 6D6F6420 		.ascii	"mod subtract\000"
 4490      73756274 
 4490      72616374 
 4490      00
 4491 000d 000000   		.align	2
 4492              	.LC45:
 4493 0010 6D756C74 		.ascii	"multiplier\000"
 4493      69706C69 
 4493      657200
 4494              		.section	.text._ZN21ModulationDestination7SetMenuEP9MenuState,"ax",%progbits
ARM GAS  /var/folders/sy/x1dkwsgj58j1lmy_hry3vpdm0000gn/T//cch4V49g.s 			page 80


 4495              		.align	1
 4496              		.p2align 2,,3
 4497              		.global	_ZN21ModulationDestination7SetMenuEP9MenuState
 4498              		.syntax unified
 4499              		.thumb
 4500              		.thumb_func
 4501              		.fpu fpv5-d16
 4503              	_ZN21ModulationDestination7SetMenuEP9MenuState:
 4504              		@ args = 0, pretend = 0, frame = 32
 4505              		@ frame_needed = 0, uses_anonymous_args = 0
 4506 0000 2DE9F04F 		push	{r4, r5, r6, r7, r8, r9, r10, fp, lr}
 4507 0004 994D     		ldr	r5, .L579
 4508 0006 89B0     		sub	sp, sp, #36
 4509 0008 8046     		mov	r8, r0
 4510 000a 01F13C06 		add	r6, r1, #60
 4511 000e 05F13807 		add	r7, r5, #56
 4512 0012 04AC     		add	r4, sp, #16
 4513 0014 0191     		str	r1, [sp, #4]
 4514 0016 BA46     		mov	r10, r7
 4515              	.L540:
 4516 0018 55F8043B 		ldr	r3, [r5], #4
 4517 001c 02A8     		add	r0, sp, #8
 4518 001e 13B3     		cbz	r3, .L534
 4519 0020 9A68     		ldr	r2, [r3, #8]
 4520 0022 0294     		str	r4, [sp, #8]
 4521 0024 5968     		ldr	r1, [r3, #4]
 4522 0026 D6F80090 		ldr	r9, [r6]
 4523 002a 0A44     		add	r2, r2, r1
 4524 002c FFF7FEFF 		bl	_ZNSt7__cxx1112basic_stringIcSt11char_traitsIcESaIcEE12_M_constructIPcEEvT_S7_St20forward_itera
 4525 0030 55F8043C 		ldr	r3, [r5, #-4]
 4526 0034 D8F83420 		ldr	r2, [r8, #52]
 4527 0038 02A9     		add	r1, sp, #8
 4528 003a D3E907B0 		ldrd	fp, r0, [r3, #28]
 4529 003e 9A42     		cmp	r2, r3
 4530 0040 08BF     		it	eq
 4531 0042 8346     		moveq	fp, r0
 4532 0044 1B6B     		ldr	r3, [r3, #48]
 4533 0046 4846     		mov	r0, r9
 4534 0048 0093     		str	r3, [sp]
 4535 004a FFF7FEFF 		bl	_ZNSt7__cxx1112basic_stringIcSt11char_traitsIcESaIcEE9_M_assignERKS4_
 4536 004e 0298     		ldr	r0, [sp, #8]
 4537 0050 009B     		ldr	r3, [sp]
 4538 0052 A042     		cmp	r0, r4
 4539 0054 C9F818B0 		str	fp, [r9, #24]
 4540 0058 C9F81C30 		str	r3, [r9, #28]
 4541 005c 03D0     		beq	.L534
 4542 005e 0499     		ldr	r1, [sp, #16]
 4543 0060 0131     		adds	r1, r1, #1
 4544 0062 FFF7FEFF 		bl	_ZdlPvj
 4545              	.L534:
 4546 0066 57F8043B 		ldr	r3, [r7], #4
 4547 006a 02A8     		add	r0, sp, #8
 4548 006c 13B3     		cbz	r3, .L537
 4549 006e 9A68     		ldr	r2, [r3, #8]
 4550 0070 0294     		str	r4, [sp, #8]
 4551 0072 5968     		ldr	r1, [r3, #4]
 4552 0074 D6F83890 		ldr	r9, [r6, #56]
ARM GAS  /var/folders/sy/x1dkwsgj58j1lmy_hry3vpdm0000gn/T//cch4V49g.s 			page 81


 4553 0078 0A44     		add	r2, r2, r1
 4554 007a FFF7FEFF 		bl	_ZNSt7__cxx1112basic_stringIcSt11char_traitsIcESaIcEE12_M_constructIPcEEvT_S7_St20forward_itera
 4555 007e 57F8043C 		ldr	r3, [r7, #-4]
 4556 0082 D8F83420 		ldr	r2, [r8, #52]
 4557 0086 02A9     		add	r1, sp, #8
 4558 0088 D3E907B0 		ldrd	fp, r0, [r3, #28]
 4559 008c 9A42     		cmp	r2, r3
 4560 008e 08BF     		it	eq
 4561 0090 8346     		moveq	fp, r0
 4562 0092 1B6B     		ldr	r3, [r3, #48]
 4563 0094 4846     		mov	r0, r9
 4564 0096 0093     		str	r3, [sp]
 4565 0098 FFF7FEFF 		bl	_ZNSt7__cxx1112basic_stringIcSt11char_traitsIcESaIcEE9_M_assignERKS4_
 4566 009c 0298     		ldr	r0, [sp, #8]
 4567 009e 009B     		ldr	r3, [sp]
 4568 00a0 A042     		cmp	r0, r4
 4569 00a2 C9F818B0 		str	fp, [r9, #24]
 4570 00a6 C9F81C30 		str	r3, [r9, #28]
 4571 00aa 03D0     		beq	.L537
 4572 00ac 0499     		ldr	r1, [sp, #16]
 4573 00ae 0131     		adds	r1, r1, #1
 4574 00b0 FFF7FEFF 		bl	_ZdlPvj
 4575              	.L537:
 4576 00b4 AA45     		cmp	r10, r5
 4577 00b6 06F10406 		add	r6, r6, #4
 4578 00ba ADD1     		bne	.L540
 4579 00bc 6C4D     		ldr	r5, .L579+4
 4580 00be 019B     		ldr	r3, [sp, #4]
 4581 00c0 05F13807 		add	r7, r5, #56
 4582 00c4 03F1AC06 		add	r6, r3, #172
 4583 00c8 BA46     		mov	r10, r7
 4584              	.L547:
 4585 00ca 55F8043B 		ldr	r3, [r5], #4
 4586 00ce 02A8     		add	r0, sp, #8
 4587 00d0 13B3     		cbz	r3, .L541
 4588 00d2 9A68     		ldr	r2, [r3, #8]
 4589 00d4 0294     		str	r4, [sp, #8]
 4590 00d6 5968     		ldr	r1, [r3, #4]
 4591 00d8 D6F80090 		ldr	r9, [r6]
 4592 00dc 0A44     		add	r2, r2, r1
 4593 00de FFF7FEFF 		bl	_ZNSt7__cxx1112basic_stringIcSt11char_traitsIcESaIcEE12_M_constructIPcEEvT_S7_St20forward_itera
 4594 00e2 55F8043C 		ldr	r3, [r5, #-4]
 4595 00e6 D8F83420 		ldr	r2, [r8, #52]
 4596 00ea 02A9     		add	r1, sp, #8
 4597 00ec D3E907B0 		ldrd	fp, r0, [r3, #28]
 4598 00f0 9A42     		cmp	r2, r3
 4599 00f2 08BF     		it	eq
 4600 00f4 8346     		moveq	fp, r0
 4601 00f6 1B6B     		ldr	r3, [r3, #48]
 4602 00f8 4846     		mov	r0, r9
 4603 00fa 0093     		str	r3, [sp]
 4604 00fc FFF7FEFF 		bl	_ZNSt7__cxx1112basic_stringIcSt11char_traitsIcESaIcEE9_M_assignERKS4_
 4605 0100 0298     		ldr	r0, [sp, #8]
 4606 0102 009B     		ldr	r3, [sp]
 4607 0104 A042     		cmp	r0, r4
 4608 0106 C9F818B0 		str	fp, [r9, #24]
 4609 010a C9F81C30 		str	r3, [r9, #28]
ARM GAS  /var/folders/sy/x1dkwsgj58j1lmy_hry3vpdm0000gn/T//cch4V49g.s 			page 82


 4610 010e 03D0     		beq	.L541
 4611 0110 0499     		ldr	r1, [sp, #16]
 4612 0112 0131     		adds	r1, r1, #1
 4613 0114 FFF7FEFF 		bl	_ZdlPvj
 4614              	.L541:
 4615 0118 57F8043B 		ldr	r3, [r7], #4
 4616 011c 02A8     		add	r0, sp, #8
 4617 011e 13B3     		cbz	r3, .L544
 4618 0120 9A68     		ldr	r2, [r3, #8]
 4619 0122 0294     		str	r4, [sp, #8]
 4620 0124 5968     		ldr	r1, [r3, #4]
 4621 0126 D6F83890 		ldr	r9, [r6, #56]
 4622 012a 0A44     		add	r2, r2, r1
 4623 012c FFF7FEFF 		bl	_ZNSt7__cxx1112basic_stringIcSt11char_traitsIcESaIcEE12_M_constructIPcEEvT_S7_St20forward_itera
 4624 0130 57F8043C 		ldr	r3, [r7, #-4]
 4625 0134 D8F83420 		ldr	r2, [r8, #52]
 4626 0138 02A9     		add	r1, sp, #8
 4627 013a D3E907B0 		ldrd	fp, r0, [r3, #28]
 4628 013e 9A42     		cmp	r2, r3
 4629 0140 08BF     		it	eq
 4630 0142 8346     		moveq	fp, r0
 4631 0144 1B6B     		ldr	r3, [r3, #48]
 4632 0146 4846     		mov	r0, r9
 4633 0148 0093     		str	r3, [sp]
 4634 014a FFF7FEFF 		bl	_ZNSt7__cxx1112basic_stringIcSt11char_traitsIcESaIcEE9_M_assignERKS4_
 4635 014e 0298     		ldr	r0, [sp, #8]
 4636 0150 009B     		ldr	r3, [sp]
 4637 0152 A042     		cmp	r0, r4
 4638 0154 C9F818B0 		str	fp, [r9, #24]
 4639 0158 C9F81C30 		str	r3, [r9, #28]
 4640 015c 03D0     		beq	.L544
 4641 015e 0499     		ldr	r1, [sp, #16]
 4642 0160 0131     		adds	r1, r1, #1
 4643 0162 FFF7FEFF 		bl	_ZdlPvj
 4644              	.L544:
 4645 0166 5545     		cmp	r5, r10
 4646 0168 06F10406 		add	r6, r6, #4
 4647 016c ADD1     		bne	.L547
 4648 016e D8F82030 		ldr	r3, [r8, #32]
 4649 0172 DBB1     		cbz	r3, .L548
 4650 0174 0199     		ldr	r1, [sp, #4]
 4651 0176 3F4A     		ldr	r2, .L579+8
 4652 0178 4D68     		ldr	r5, [r1, #4]
 4653 017a 0C21     		movs	r1, #12
 4654 017c 0294     		str	r4, [sp, #8]
 4655 017e 0391     		str	r1, [sp, #12]
 4656 0180 0021     		movs	r1, #0
 4657 0182 8DF81C10 		strb	r1, [sp, #28]
 4658 0186 3C49     		ldr	r1, .L579+12
 4659 0188 0F68     		ldr	r7, [r1]
 4660 018a 07CA     		ldm	r2, {r0, r1, r2}
 4661 018c 84E80700 		stm	r4, {r0, r1, r2}
 4662 0190 2846     		mov	r0, r5
 4663 0192 02A9     		add	r1, sp, #8
 4664 0194 1E69     		ldr	r6, [r3, #16]
 4665 0196 FFF7FEFF 		bl	_ZNSt7__cxx1112basic_stringIcSt11char_traitsIcESaIcEE9_M_assignERKS4_
 4666 019a 0298     		ldr	r0, [sp, #8]
ARM GAS  /var/folders/sy/x1dkwsgj58j1lmy_hry3vpdm0000gn/T//cch4V49g.s 			page 83


 4667 019c A042     		cmp	r0, r4
 4668 019e C5E90676 		strd	r7, r6, [r5, #24]
 4669 01a2 03D0     		beq	.L548
 4670 01a4 0499     		ldr	r1, [sp, #16]
 4671 01a6 0131     		adds	r1, r1, #1
 4672 01a8 FFF7FEFF 		bl	_ZdlPvj
 4673              	.L548:
 4674 01ac D8F82430 		ldr	r3, [r8, #36]
 4675 01b0 03B3     		cbz	r3, .L550
 4676 01b2 0199     		ldr	r1, [sp, #4]
 4677 01b4 314A     		ldr	r2, .L579+16
 4678 01b6 8D68     		ldr	r5, [r1, #8]
 4679 01b8 0721     		movs	r1, #7
 4680 01ba 0294     		str	r4, [sp, #8]
 4681 01bc 0391     		str	r1, [sp, #12]
 4682 01be 92E80300 		ldm	r2, {r0, r1}
 4683 01c2 0022     		movs	r2, #0
 4684 01c4 ADF81410 		strh	r1, [sp, #20]	@ movhi
 4685 01c8 090C     		lsrs	r1, r1, #16
 4686 01ca 0490     		str	r0, [sp, #16]
 4687 01cc 2846     		mov	r0, r5
 4688 01ce 8DF81610 		strb	r1, [sp, #22]
 4689 01d2 02A9     		add	r1, sp, #8
 4690 01d4 8DF81720 		strb	r2, [sp, #23]
 4691 01d8 1E69     		ldr	r6, [r3, #16]
 4692 01da 294B     		ldr	r3, .L579+20
 4693 01dc 1F68     		ldr	r7, [r3]
 4694 01de FFF7FEFF 		bl	_ZNSt7__cxx1112basic_stringIcSt11char_traitsIcESaIcEE9_M_assignERKS4_
 4695 01e2 0298     		ldr	r0, [sp, #8]
 4696 01e4 A042     		cmp	r0, r4
 4697 01e6 C5E90676 		strd	r7, r6, [r5, #24]
 4698 01ea 03D0     		beq	.L550
 4699 01ec 0499     		ldr	r1, [sp, #16]
 4700 01ee 0131     		adds	r1, r1, #1
 4701 01f0 FFF7FEFF 		bl	_ZdlPvj
 4702              	.L550:
 4703 01f4 D8F82830 		ldr	r3, [r8, #40]
 4704 01f8 BBB1     		cbz	r3, .L552
 4705 01fa 019B     		ldr	r3, [sp, #4]
 4706 01fc 02A8     		add	r0, sp, #8
 4707 01fe 2149     		ldr	r1, .L579+24
 4708 0200 DD68     		ldr	r5, [r3, #12]
 4709 0202 FFF7FEFF 		bl	_ZNSt7__cxx1112basic_stringIcSt11char_traitsIcESaIcEEC2EPKcRKS3_.constprop.0
 4710 0206 D8F82830 		ldr	r3, [r8, #40]
 4711 020a 02A9     		add	r1, sp, #8
 4712 020c 2846     		mov	r0, r5
 4713 020e DE6A     		ldr	r6, [r3, #44]
 4714 0210 1D4B     		ldr	r3, .L579+28
 4715 0212 1F68     		ldr	r7, [r3]
 4716 0214 FFF7FEFF 		bl	_ZNSt7__cxx1112basic_stringIcSt11char_traitsIcESaIcEE9_M_assignERKS4_
 4717 0218 0298     		ldr	r0, [sp, #8]
 4718 021a A042     		cmp	r0, r4
 4719 021c C5E90676 		strd	r7, r6, [r5, #24]
 4720 0220 03D0     		beq	.L552
 4721 0222 0499     		ldr	r1, [sp, #16]
 4722 0224 0131     		adds	r1, r1, #1
 4723 0226 FFF7FEFF 		bl	_ZdlPvj
ARM GAS  /var/folders/sy/x1dkwsgj58j1lmy_hry3vpdm0000gn/T//cch4V49g.s 			page 84


 4724              	.L552:
 4725 022a 019B     		ldr	r3, [sp, #4]
 4726 022c 02A9     		add	r1, sp, #8
 4727 022e 174A     		ldr	r2, .L579+32
 4728 0230 D3F81C51 		ldr	r5, [r3, #284]
 4729 0234 0423     		movs	r3, #4
 4730 0236 0294     		str	r4, [sp, #8]
 4731 0238 2846     		mov	r0, r5
 4732 023a CDE90332 		strd	r3, r2, [sp, #12]
 4733 023e 144B     		ldr	r3, .L579+36
 4734 0240 0022     		movs	r2, #0
 4735 0242 1F68     		ldr	r7, [r3]
 4736 0244 134B     		ldr	r3, .L579+40
 4737 0246 8DF81420 		strb	r2, [sp, #20]
 4738 024a D3F8346D 		ldr	r6, [r3, #3380]
 4739 024e FFF7FEFF 		bl	_ZNSt7__cxx1112basic_stringIcSt11char_traitsIcESaIcEE9_M_assignERKS4_
 4740 0252 0298     		ldr	r0, [sp, #8]
 4741 0254 A042     		cmp	r0, r4
 4742 0256 C5E90676 		strd	r7, r6, [r5, #24]
 4743 025a 03D0     		beq	.L533
 4744 025c 0499     		ldr	r1, [sp, #16]
 4745 025e 0131     		adds	r1, r1, #1
 4746 0260 FFF7FEFF 		bl	_ZdlPvj
 4747              	.L533:
 4748 0264 09B0     		add	sp, sp, #36
 4749              		@ sp needed
 4750 0266 BDE8F08F 		pop	{r4, r5, r6, r7, r8, r9, r10, fp, pc}
 4751              	.L580:
 4752 026a 00BF     		.align	2
 4753              	.L579:
 4754 026c 2C000000 		.word	.LANCHOR6+44
 4755 0270 9C000000 		.word	.LANCHOR6+156
 4756 0274 00000000 		.word	.LC44
 4757 0278 00000000 		.word	.LANCHOR36
 4758 027c 00000000 		.word	.LC2
 4759 0280 00000000 		.word	.LANCHOR37
 4760 0284 10000000 		.word	.LC45
 4761 0288 00000000 		.word	.LANCHOR38
 4762 028c 6E6F6E65 		.word	1701736302
 4763 0290 00000000 		.word	.LANCHOR39
 4764 0294 00000000 		.word	.LANCHOR0
 4766              		.section	.rodata._ZN10MonoEngine7SetMenuEP9MenuState.str1.4,"aMS",%progbits,1
 4767              		.align	2
 4768              	.LC46:
 4769 0000 636C6F63 		.ascii	"clock\000"
 4769      6B00
 4770 0006 0000     		.align	2
 4771              	.LC47:
 4772 0008 6F736369 		.ascii	"oscillator 1\000"
 4772      6C6C6174 
 4772      6F722031 
 4772      00
 4773 0015 000000   		.align	2
 4774              	.LC48:
 4775 0018 6F736369 		.ascii	"oscillator 2\000"
 4775      6C6C6174 
 4775      6F722032 
ARM GAS  /var/folders/sy/x1dkwsgj58j1lmy_hry3vpdm0000gn/T//cch4V49g.s 			page 85


 4775      00
 4776 0025 000000   		.align	2
 4777              	.LC49:
 4778 0028 6F736369 		.ascii	"oscillator 3\000"
 4778      6C6C6174 
 4778      6F722033 
 4778      00
 4779 0035 000000   		.align	2
 4780              	.LC50:
 4781 0038 656E7665 		.ascii	"envelope 1\000"
 4781      6C6F7065 
 4781      203100
 4782 0043 00       		.align	2
 4783              	.LC51:
 4784 0044 656E7665 		.ascii	"envelope 2\000"
 4784      6C6F7065 
 4784      203200
 4785 004f 00       		.align	2
 4786              	.LC52:
 4787 0050 656E7665 		.ascii	"envelope 3\000"
 4787      6C6F7065 
 4787      203300
 4788 005b 00       		.align	2
 4789              	.LC53:
 4790 005c 656E7665 		.ascii	"envelope 4\000"
 4790      6C6F7065 
 4790      203400
 4791 0067 00       		.align	2
 4792              	.LC54:
 4793 0068 656E7665 		.ascii	"envelope 5\000"
 4793      6C6F7065 
 4793      203500
 4794 0073 00       		.align	2
 4795              	.LC55:
 4796 0074 6C666F20 		.ascii	"lfo 1\000"
 4796      3100
 4797 007a 0000     		.align	2
 4798              	.LC56:
 4799 007c 6C666F20 		.ascii	"lfo 2\000"
 4799      3200
 4800 0082 0000     		.align	2
 4801              	.LC57:
 4802 0084 66696C74 		.ascii	"filter\000"
 4802      657200
 4803 008b 00       		.align	2
 4804              	.LC58:
 4805 008c 70686173 		.ascii	"phaser\000"
 4805      657200
 4806 0093 00       		.align	2
 4807              	.LC59:
 4808 0094 64656C61 		.ascii	"delay\000"
 4808      7900
 4809 009a 0000     		.align	2
 4810              	.LC60:
 4811 009c 6D697865 		.ascii	"mixer 1\000"
 4811      72203100 
 4812              		.align	2
ARM GAS  /var/folders/sy/x1dkwsgj58j1lmy_hry3vpdm0000gn/T//cch4V49g.s 			page 86


 4813              	.LC61:
 4814 00a4 6D697865 		.ascii	"mixer 2\000"
 4814      72203200 
 4815              		.align	2
 4816              	.LC62:
 4817 00ac 61756469 		.ascii	"audio out 1\000"
 4817      6F206F75 
 4817      74203100 
 4818              		.align	2
 4819              	.LC63:
 4820 00b8 61756469 		.ascii	"audio out 2\000"
 4820      6F206F75 
 4820      74203200 
 4821              		.align	2
 4822              	.LC64:
 4823 00c4 61756469 		.ascii	"audio out 3\000"
 4823      6F206F75 
 4823      74203300 
 4824              		.align	2
 4825              	.LC65:
 4826 00d0 61756469 		.ascii	"audio out 4\000"
 4826      6F206F75 
 4826      74203400 
 4827              		.align	2
 4828              	.LC66:
 4829 00dc 67617465 		.ascii	"gate out\000"
 4829      206F7574 
 4829      00
 4830 00e5 000000   		.align	2
 4831              	.LC67:
 4832 00e8 6376206F 		.ascii	"cv out 1\000"
 4832      75742031 
 4832      00
 4833 00f1 000000   		.align	2
 4834              	.LC68:
 4835 00f4 6376206F 		.ascii	"cv out 2\000"
 4835      75742032 
 4835      00
 4836 00fd 000000   		.align	2
 4837              	.LC69:
 4838 0100 6D6F6475 		.ascii	"modulation sources\000"
 4838      6C617469 
 4838      6F6E2073 
 4838      6F757263 
 4838      657300
 4839              		.section	.text._ZN10MonoEngine7SetMenuEP9MenuState,"ax",%progbits
 4840              		.align	1
 4841              		.p2align 2,,3
 4842              		.global	_ZN10MonoEngine7SetMenuEP9MenuState
 4843              		.syntax unified
 4844              		.thumb
 4845              		.thumb_func
 4846              		.fpu fpv5-d16
 4848              	_ZN10MonoEngine7SetMenuEP9MenuState:
 4849              		@ args = 0, pretend = 0, frame = 24
 4850              		@ frame_needed = 0, uses_anonymous_args = 0
 4851 0000 2DE9F047 		push	{r4, r5, r6, r7, r8, r9, r10, lr}
ARM GAS  /var/folders/sy/x1dkwsgj58j1lmy_hry3vpdm0000gn/T//cch4V49g.s 			page 87


 4852 0004 86B0     		sub	sp, sp, #24
 4853 0006 0D46     		mov	r5, r1
 4854 0008 0646     		mov	r6, r0
 4855 000a C849     		ldr	r1, .L607
 4856 000c 6846     		mov	r0, sp
 4857 000e 6C68     		ldr	r4, [r5, #4]
 4858 0010 FFF7FEFF 		bl	_ZNSt7__cxx1112basic_stringIcSt11char_traitsIcESaIcEEC2EPKcRKS3_.constprop.0
 4859 0014 C64B     		ldr	r3, .L607+4
 4860 0016 776A     		ldr	r7, [r6, #36]
 4861 0018 2046     		mov	r0, r4
 4862 001a D3F80080 		ldr	r8, [r3]
 4863 001e 6946     		mov	r1, sp
 4864 0020 FFF7FEFF 		bl	_ZNSt7__cxx1112basic_stringIcSt11char_traitsIcESaIcEE9_M_assignERKS4_
 4865 0024 0098     		ldr	r0, [sp]
 4866 0026 C4E90687 		strd	r8, r7, [r4, #24]
 4867 002a 02AC     		add	r4, sp, #8
 4868 002c A042     		cmp	r0, r4
 4869 002e 03D0     		beq	.L582
 4870 0030 0299     		ldr	r1, [sp, #8]
 4871 0032 0131     		adds	r1, r1, #1
 4872 0034 FFF7FEFF 		bl	_ZdlPvj
 4873              	.L582:
 4874 0038 0C22     		movs	r2, #12
 4875 003a BE4B     		ldr	r3, .L607+8
 4876 003c EF6B     		ldr	r7, [r5, #60]
 4877 003e 0192     		str	r2, [sp, #4]
 4878 0040 0022     		movs	r2, #0
 4879 0042 0094     		str	r4, [sp]
 4880 0044 8DF81420 		strb	r2, [sp, #20]
 4881 0048 BB4A     		ldr	r2, .L607+12
 4882 004a D6F86080 		ldr	r8, [r6, #96]
 4883 004e D2F80090 		ldr	r9, [r2]
 4884 0052 93E80700 		ldm	r3, {r0, r1, r2}
 4885 0056 84E80700 		stm	r4, {r0, r1, r2}
 4886 005a 3846     		mov	r0, r7
 4887 005c 6946     		mov	r1, sp
 4888 005e FFF7FEFF 		bl	_ZNSt7__cxx1112basic_stringIcSt11char_traitsIcESaIcEE9_M_assignERKS4_
 4889 0062 0098     		ldr	r0, [sp]
 4890 0064 A042     		cmp	r0, r4
 4891 0066 C7E90698 		strd	r9, r8, [r7, #24]
 4892 006a 03D0     		beq	.L583
 4893 006c 0299     		ldr	r1, [sp, #8]
 4894 006e 0131     		adds	r1, r1, #1
 4895 0070 FFF7FEFF 		bl	_ZdlPvj
 4896              	.L583:
 4897 0074 0C22     		movs	r2, #12
 4898 0076 B14B     		ldr	r3, .L607+16
 4899 0078 2F6C     		ldr	r7, [r5, #64]
 4900 007a 0192     		str	r2, [sp, #4]
 4901 007c 0022     		movs	r2, #0
 4902 007e 0094     		str	r4, [sp]
 4903 0080 8DF81420 		strb	r2, [sp, #20]
 4904 0084 AE4A     		ldr	r2, .L607+20
 4905 0086 D6F89C80 		ldr	r8, [r6, #156]
 4906 008a D2F80090 		ldr	r9, [r2]
 4907 008e 93E80700 		ldm	r3, {r0, r1, r2}
 4908 0092 84E80700 		stm	r4, {r0, r1, r2}
ARM GAS  /var/folders/sy/x1dkwsgj58j1lmy_hry3vpdm0000gn/T//cch4V49g.s 			page 88


 4909 0096 3846     		mov	r0, r7
 4910 0098 6946     		mov	r1, sp
 4911 009a FFF7FEFF 		bl	_ZNSt7__cxx1112basic_stringIcSt11char_traitsIcESaIcEE9_M_assignERKS4_
 4912 009e 0098     		ldr	r0, [sp]
 4913 00a0 A042     		cmp	r0, r4
 4914 00a2 C7E90698 		strd	r9, r8, [r7, #24]
 4915 00a6 03D0     		beq	.L584
 4916 00a8 0299     		ldr	r1, [sp, #8]
 4917 00aa 0131     		adds	r1, r1, #1
 4918 00ac FFF7FEFF 		bl	_ZdlPvj
 4919              	.L584:
 4920 00b0 6F6C     		ldr	r7, [r5, #68]
 4921 00b2 6846     		mov	r0, sp
 4922 00b4 A349     		ldr	r1, .L607+24
 4923 00b6 FFF7FEFF 		bl	_ZNSt7__cxx1112basic_stringIcSt11char_traitsIcESaIcEEC2EPKcRKS3_.constprop.0
 4924 00ba A34B     		ldr	r3, .L607+28
 4925 00bc 3846     		mov	r0, r7
 4926 00be 6946     		mov	r1, sp
 4927 00c0 D3F80090 		ldr	r9, [r3]
 4928 00c4 D6F8D880 		ldr	r8, [r6, #216]
 4929 00c8 FFF7FEFF 		bl	_ZNSt7__cxx1112basic_stringIcSt11char_traitsIcESaIcEE9_M_assignERKS4_
 4930 00cc 0098     		ldr	r0, [sp]
 4931 00ce A042     		cmp	r0, r4
 4932 00d0 C7E90698 		strd	r9, r8, [r7, #24]
 4933 00d4 03D0     		beq	.L585
 4934 00d6 0299     		ldr	r1, [sp, #8]
 4935 00d8 0131     		adds	r1, r1, #1
 4936 00da FFF7FEFF 		bl	_ZdlPvj
 4937              	.L585:
 4938 00de 9B4A     		ldr	r2, .L607+32
 4939 00e0 0A23     		movs	r3, #10
 4940 00e2 A446     		mov	ip, r4
 4941 00e4 D5F84C80 		ldr	r8, [r5, #76]
 4942 00e8 0094     		str	r4, [sp]
 4943 00ea 4FF0000A 		mov	r10, #0
 4944 00ee 984F     		ldr	r7, .L607+36
 4945 00f0 07CA     		ldm	r2, {r0, r1, r2}
 4946 00f2 ACE80300 		stmia	ip!, {r0, r1}
 4947 00f6 ACF80020 		strh	r2, [ip]	@ movhi
 4948 00fa 4046     		mov	r0, r8
 4949 00fc 0193     		str	r3, [sp, #4]
 4950 00fe 6946     		mov	r1, sp
 4951 0100 D6F8C431 		ldr	r3, [r6, #452]
 4952 0104 D7F80090 		ldr	r9, [r7]
 4953 0108 8DF812A0 		strb	r10, [sp, #18]
 4954 010c D3F82CA0 		ldr	r10, [r3, #44]
 4955 0110 FFF7FEFF 		bl	_ZNSt7__cxx1112basic_stringIcSt11char_traitsIcESaIcEE9_M_assignERKS4_
 4956 0114 0098     		ldr	r0, [sp]
 4957 0116 A042     		cmp	r0, r4
 4958 0118 C8E9069A 		strd	r9, r10, [r8, #24]
 4959 011c 03D0     		beq	.L586
 4960 011e 0299     		ldr	r1, [sp, #8]
 4961 0120 0131     		adds	r1, r1, #1
 4962 0122 FFF7FEFF 		bl	_ZdlPvj
 4963              	.L586:
 4964 0126 D5F85080 		ldr	r8, [r5, #80]
 4965 012a 6846     		mov	r0, sp
ARM GAS  /var/folders/sy/x1dkwsgj58j1lmy_hry3vpdm0000gn/T//cch4V49g.s 			page 89


 4966 012c 8949     		ldr	r1, .L607+40
 4967 012e FFF7FEFF 		bl	_ZNSt7__cxx1112basic_stringIcSt11char_traitsIcESaIcEEC2EPKcRKS3_.constprop.0
 4968 0132 D6F8C831 		ldr	r3, [r6, #456]
 4969 0136 4046     		mov	r0, r8
 4970 0138 6946     		mov	r1, sp
 4971 013a D3F82CA0 		ldr	r10, [r3, #44]
 4972 013e D7F80490 		ldr	r9, [r7, #4]
 4973 0142 FFF7FEFF 		bl	_ZNSt7__cxx1112basic_stringIcSt11char_traitsIcESaIcEE9_M_assignERKS4_
 4974 0146 0098     		ldr	r0, [sp]
 4975 0148 A042     		cmp	r0, r4
 4976 014a C8E9069A 		strd	r9, r10, [r8, #24]
 4977 014e 03D0     		beq	.L587
 4978 0150 0299     		ldr	r1, [sp, #8]
 4979 0152 0131     		adds	r1, r1, #1
 4980 0154 FFF7FEFF 		bl	_ZdlPvj
 4981              	.L587:
 4982 0158 7F4A     		ldr	r2, .L607+44
 4983 015a 0A23     		movs	r3, #10
 4984 015c A446     		mov	ip, r4
 4985 015e D5F85480 		ldr	r8, [r5, #84]
 4986 0162 0094     		str	r4, [sp]
 4987 0164 4FF0000A 		mov	r10, #0
 4988 0168 D7F80890 		ldr	r9, [r7, #8]
 4989 016c 07CA     		ldm	r2, {r0, r1, r2}
 4990 016e ACE80300 		stmia	ip!, {r0, r1}
 4991 0172 ACF80020 		strh	r2, [ip]	@ movhi
 4992 0176 4046     		mov	r0, r8
 4993 0178 0193     		str	r3, [sp, #4]
 4994 017a 6946     		mov	r1, sp
 4995 017c D6F8CC31 		ldr	r3, [r6, #460]
 4996 0180 8DF812A0 		strb	r10, [sp, #18]
 4997 0184 D3F82CA0 		ldr	r10, [r3, #44]
 4998 0188 FFF7FEFF 		bl	_ZNSt7__cxx1112basic_stringIcSt11char_traitsIcESaIcEE9_M_assignERKS4_
 4999 018c 0098     		ldr	r0, [sp]
 5000 018e A042     		cmp	r0, r4
 5001 0190 C8E9069A 		strd	r9, r10, [r8, #24]
 5002 0194 03D0     		beq	.L588
 5003 0196 0299     		ldr	r1, [sp, #8]
 5004 0198 0131     		adds	r1, r1, #1
 5005 019a FFF7FEFF 		bl	_ZdlPvj
 5006              	.L588:
 5007 019e D5F85880 		ldr	r8, [r5, #88]
 5008 01a2 6846     		mov	r0, sp
 5009 01a4 6D49     		ldr	r1, .L607+48
 5010 01a6 FFF7FEFF 		bl	_ZNSt7__cxx1112basic_stringIcSt11char_traitsIcESaIcEEC2EPKcRKS3_.constprop.0
 5011 01aa D6F8D031 		ldr	r3, [r6, #464]
 5012 01ae 4046     		mov	r0, r8
 5013 01b0 6946     		mov	r1, sp
 5014 01b2 D3F82CA0 		ldr	r10, [r3, #44]
 5015 01b6 D7F80C90 		ldr	r9, [r7, #12]
 5016 01ba FFF7FEFF 		bl	_ZNSt7__cxx1112basic_stringIcSt11char_traitsIcESaIcEE9_M_assignERKS4_
 5017 01be 0098     		ldr	r0, [sp]
 5018 01c0 A042     		cmp	r0, r4
 5019 01c2 C8E9069A 		strd	r9, r10, [r8, #24]
 5020 01c6 03D0     		beq	.L589
 5021 01c8 0299     		ldr	r1, [sp, #8]
 5022 01ca 0131     		adds	r1, r1, #1
ARM GAS  /var/folders/sy/x1dkwsgj58j1lmy_hry3vpdm0000gn/T//cch4V49g.s 			page 90


 5023 01cc FFF7FEFF 		bl	_ZdlPvj
 5024              	.L589:
 5025 01d0 D5F85C80 		ldr	r8, [r5, #92]
 5026 01d4 6846     		mov	r0, sp
 5027 01d6 6249     		ldr	r1, .L607+52
 5028 01d8 FFF7FEFF 		bl	_ZNSt7__cxx1112basic_stringIcSt11char_traitsIcESaIcEEC2EPKcRKS3_.constprop.0
 5029 01dc D6F8D431 		ldr	r3, [r6, #468]
 5030 01e0 4046     		mov	r0, r8
 5031 01e2 6946     		mov	r1, sp
 5032 01e4 D7F81090 		ldr	r9, [r7, #16]
 5033 01e8 DF6A     		ldr	r7, [r3, #44]
 5034 01ea FFF7FEFF 		bl	_ZNSt7__cxx1112basic_stringIcSt11char_traitsIcESaIcEE9_M_assignERKS4_
 5035 01ee 0098     		ldr	r0, [sp]
 5036 01f0 A042     		cmp	r0, r4
 5037 01f2 C8E90697 		strd	r9, r7, [r8, #24]
 5038 01f6 03D0     		beq	.L590
 5039 01f8 0299     		ldr	r1, [sp, #8]
 5040 01fa 0131     		adds	r1, r1, #1
 5041 01fc FFF7FEFF 		bl	_ZdlPvj
 5042              	.L590:
 5043 0200 6F6E     		ldr	r7, [r5, #100]
 5044 0202 6846     		mov	r0, sp
 5045 0204 5749     		ldr	r1, .L607+56
 5046 0206 FFF7FEFF 		bl	_ZNSt7__cxx1112basic_stringIcSt11char_traitsIcESaIcEEC2EPKcRKS3_.constprop.0
 5047 020a DFF88081 		ldr	r8, .L607+96
 5048 020e D6F8D831 		ldr	r3, [r6, #472]
 5049 0212 3846     		mov	r0, r7
 5050 0214 6946     		mov	r1, sp
 5051 0216 D8F80090 		ldr	r9, [r8]
 5052 021a D3F838A0 		ldr	r10, [r3, #56]
 5053 021e FFF7FEFF 		bl	_ZNSt7__cxx1112basic_stringIcSt11char_traitsIcESaIcEE9_M_assignERKS4_
 5054 0222 0098     		ldr	r0, [sp]
 5055 0224 A042     		cmp	r0, r4
 5056 0226 C7E9069A 		strd	r9, r10, [r7, #24]
 5057 022a 03D0     		beq	.L591
 5058 022c 0299     		ldr	r1, [sp, #8]
 5059 022e 0131     		adds	r1, r1, #1
 5060 0230 FFF7FEFF 		bl	_ZdlPvj
 5061              	.L591:
 5062 0234 AF6E     		ldr	r7, [r5, #104]
 5063 0236 6846     		mov	r0, sp
 5064 0238 4B49     		ldr	r1, .L607+60
 5065 023a FFF7FEFF 		bl	_ZNSt7__cxx1112basic_stringIcSt11char_traitsIcESaIcEEC2EPKcRKS3_.constprop.0
 5066 023e D6F8DC31 		ldr	r3, [r6, #476]
 5067 0242 3846     		mov	r0, r7
 5068 0244 6946     		mov	r1, sp
 5069 0246 D8F80490 		ldr	r9, [r8, #4]
 5070 024a D3F83880 		ldr	r8, [r3, #56]
 5071 024e FFF7FEFF 		bl	_ZNSt7__cxx1112basic_stringIcSt11char_traitsIcESaIcEE9_M_assignERKS4_
 5072 0252 0098     		ldr	r0, [sp]
 5073 0254 A042     		cmp	r0, r4
 5074 0256 C7E90698 		strd	r9, r8, [r7, #24]
 5075 025a 03D0     		beq	.L592
 5076 025c 0299     		ldr	r1, [sp, #8]
 5077 025e 0131     		adds	r1, r1, #1
 5078 0260 FFF7FEFF 		bl	_ZdlPvj
 5079              	.L592:
ARM GAS  /var/folders/sy/x1dkwsgj58j1lmy_hry3vpdm0000gn/T//cch4V49g.s 			page 91


 5080 0264 6F6F     		ldr	r7, [r5, #116]
 5081 0266 6846     		mov	r0, sp
 5082 0268 4049     		ldr	r1, .L607+64
 5083 026a FFF7FEFF 		bl	_ZNSt7__cxx1112basic_stringIcSt11char_traitsIcESaIcEEC2EPKcRKS3_.constprop.0
 5084 026e 404B     		ldr	r3, .L607+68
 5085 0270 3846     		mov	r0, r7
 5086 0272 6946     		mov	r1, sp
 5087 0274 D3F80090 		ldr	r9, [r3]
 5088 0278 D6F81081 		ldr	r8, [r6, #272]
 5089 027c FFF7FEFF 		bl	_ZNSt7__cxx1112basic_stringIcSt11char_traitsIcESaIcEE9_M_assignERKS4_
 5090 0280 0098     		ldr	r0, [sp]
 5091 0282 A042     		cmp	r0, r4
 5092 0284 C7E90698 		strd	r9, r8, [r7, #24]
 5093 0288 03D0     		beq	.L593
 5094 028a 0299     		ldr	r1, [sp, #8]
 5095 028c 0131     		adds	r1, r1, #1
 5096 028e FFF7FEFF 		bl	_ZdlPvj
 5097              	.L593:
 5098 0292 AF6F     		ldr	r7, [r5, #120]
 5099 0294 6846     		mov	r0, sp
 5100 0296 3749     		ldr	r1, .L607+72
 5101 0298 FFF7FEFF 		bl	_ZNSt7__cxx1112basic_stringIcSt11char_traitsIcESaIcEEC2EPKcRKS3_.constprop.0
 5102 029c 364B     		ldr	r3, .L607+76
 5103 029e 3846     		mov	r0, r7
 5104 02a0 6946     		mov	r1, sp
 5105 02a2 D3F80090 		ldr	r9, [r3]
 5106 02a6 D6F86081 		ldr	r8, [r6, #352]
 5107 02aa FFF7FEFF 		bl	_ZNSt7__cxx1112basic_stringIcSt11char_traitsIcESaIcEE9_M_assignERKS4_
 5108 02ae 0098     		ldr	r0, [sp]
 5109 02b0 A042     		cmp	r0, r4
 5110 02b2 C7E90698 		strd	r9, r8, [r7, #24]
 5111 02b6 03D0     		beq	.L594
 5112 02b8 0299     		ldr	r1, [sp, #8]
 5113 02ba 0131     		adds	r1, r1, #1
 5114 02bc FFF7FEFF 		bl	_ZdlPvj
 5115              	.L594:
 5116 02c0 EF6F     		ldr	r7, [r5, #124]
 5117 02c2 6846     		mov	r0, sp
 5118 02c4 2D49     		ldr	r1, .L607+80
 5119 02c6 FFF7FEFF 		bl	_ZNSt7__cxx1112basic_stringIcSt11char_traitsIcESaIcEEC2EPKcRKS3_.constprop.0
 5120 02ca 2D4B     		ldr	r3, .L607+84
 5121 02cc 3846     		mov	r0, r7
 5122 02ce 6946     		mov	r1, sp
 5123 02d0 D3F80090 		ldr	r9, [r3]
 5124 02d4 D6F83481 		ldr	r8, [r6, #308]
 5125 02d8 FFF7FEFF 		bl	_ZNSt7__cxx1112basic_stringIcSt11char_traitsIcESaIcEE9_M_assignERKS4_
 5126 02dc 0098     		ldr	r0, [sp]
 5127 02de A042     		cmp	r0, r4
 5128 02e0 C7E90698 		strd	r9, r8, [r7, #24]
 5129 02e4 03D0     		beq	.L595
 5130 02e6 0299     		ldr	r1, [sp, #8]
 5131 02e8 0131     		adds	r1, r1, #1
 5132 02ea FFF7FEFF 		bl	_ZdlPvj
 5133              	.L595:
 5134 02ee 254B     		ldr	r3, .L607+88
 5135 02f0 0722     		movs	r2, #7
 5136 02f2 D5F88470 		ldr	r7, [r5, #132]
ARM GAS  /var/folders/sy/x1dkwsgj58j1lmy_hry3vpdm0000gn/T//cch4V49g.s 			page 92


 5137 02f6 D6F89081 		ldr	r8, [r6, #400]
 5138 02fa 0094     		str	r4, [sp]
 5139 02fc 0192     		str	r2, [sp, #4]
 5140 02fe 93E80300 		ldm	r3, {r0, r1}
 5141 0302 0023     		movs	r3, #0
 5142 0304 ADF80C10 		strh	r1, [sp, #12]	@ movhi
 5143 0308 090C     		lsrs	r1, r1, #16
 5144 030a 8DF80F30 		strb	r3, [sp, #15]
 5145 030e 1E4B     		ldr	r3, .L607+92
 5146 0310 0290     		str	r0, [sp, #8]
 5147 0312 3846     		mov	r0, r7
 5148 0314 8DF80E10 		strb	r1, [sp, #14]
 5149 0318 6946     		mov	r1, sp
 5150 031a D3F80090 		ldr	r9, [r3]
 5151 031e FFF7FEFF 		bl	_ZNSt7__cxx1112basic_stringIcSt11char_traitsIcESaIcEE9_M_assignERKS4_
 5152 0322 0098     		ldr	r0, [sp]
 5153 0324 A042     		cmp	r0, r4
 5154 0326 C7E90698 		strd	r9, r8, [r7, #24]
 5155 032a 31E0     		b	.L608
 5156              	.L609:
 5157              		.align	2
 5158              	.L607:
 5159 032c 00000000 		.word	.LC46
 5160 0330 00000000 		.word	.LANCHOR26
 5161 0334 08000000 		.word	.LC47
 5162 0338 00000000 		.word	.LANCHOR40
 5163 033c 18000000 		.word	.LC48
 5164 0340 00000000 		.word	.LANCHOR41
 5165 0344 28000000 		.word	.LC49
 5166 0348 00000000 		.word	.LANCHOR42
 5167 034c 38000000 		.word	.LC50
 5168 0350 00000000 		.word	.LANCHOR43
 5169 0354 44000000 		.word	.LC51
 5170 0358 50000000 		.word	.LC52
 5171 035c 5C000000 		.word	.LC53
 5172 0360 68000000 		.word	.LC54
 5173 0364 74000000 		.word	.LC55
 5174 0368 7C000000 		.word	.LC56
 5175 036c 84000000 		.word	.LC57
 5176 0370 00000000 		.word	.LANCHOR31
 5177 0374 8C000000 		.word	.LC58
 5178 0378 00000000 		.word	.LANCHOR17
 5179 037c 94000000 		.word	.LC59
 5180 0380 00000000 		.word	.LANCHOR24
 5181 0384 9C000000 		.word	.LC60
 5182 0388 00000000 		.word	.LANCHOR45
 5183 038c 00000000 		.word	.LANCHOR44
 5184              	.L608:
 5185 0390 03D0     		beq	.L596
 5186 0392 0299     		ldr	r1, [sp, #8]
 5187 0394 0131     		adds	r1, r1, #1
 5188 0396 FFF7FEFF 		bl	_ZdlPvj
 5189              	.L596:
 5190 039a D5F88870 		ldr	r7, [r5, #136]
 5191 039e 6846     		mov	r0, sp
 5192 03a0 7249     		ldr	r1, .L610
 5193 03a2 FFF7FEFF 		bl	_ZNSt7__cxx1112basic_stringIcSt11char_traitsIcESaIcEEC2EPKcRKS3_.constprop.0
ARM GAS  /var/folders/sy/x1dkwsgj58j1lmy_hry3vpdm0000gn/T//cch4V49g.s 			page 93


 5194 03a6 724B     		ldr	r3, .L610+4
 5195 03a8 3846     		mov	r0, r7
 5196 03aa 6946     		mov	r1, sp
 5197 03ac D6F8C061 		ldr	r6, [r6, #448]
 5198 03b0 D3F80080 		ldr	r8, [r3]
 5199 03b4 FFF7FEFF 		bl	_ZNSt7__cxx1112basic_stringIcSt11char_traitsIcESaIcEE9_M_assignERKS4_
 5200 03b8 0098     		ldr	r0, [sp]
 5201 03ba A042     		cmp	r0, r4
 5202 03bc C7E90686 		strd	r8, r6, [r7, #24]
 5203 03c0 03D0     		beq	.L597
 5204 03c2 0299     		ldr	r1, [sp, #8]
 5205 03c4 0131     		adds	r1, r1, #1
 5206 03c6 FFF7FEFF 		bl	_ZdlPvj
 5207              	.L597:
 5208 03ca 6A49     		ldr	r1, .L610+8
 5209 03cc 6846     		mov	r0, sp
 5210 03ce D5F8AC70 		ldr	r7, [r5, #172]
 5211 03d2 FFF7FEFF 		bl	_ZNSt7__cxx1112basic_stringIcSt11char_traitsIcESaIcEEC2EPKcRKS3_.constprop.0
 5212 03d6 684E     		ldr	r6, .L610+12
 5213 03d8 6946     		mov	r1, sp
 5214 03da 684B     		ldr	r3, .L610+16
 5215 03dc 3846     		mov	r0, r7
 5216 03de D3F80090 		ldr	r9, [r3]
 5217 03e2 D6F8183D 		ldr	r3, [r6, #3352]
 5218 03e6 D3F82C80 		ldr	r8, [r3, #44]
 5219 03ea FFF7FEFF 		bl	_ZNSt7__cxx1112basic_stringIcSt11char_traitsIcESaIcEE9_M_assignERKS4_
 5220 03ee 0098     		ldr	r0, [sp]
 5221 03f0 A042     		cmp	r0, r4
 5222 03f2 C7E90698 		strd	r9, r8, [r7, #24]
 5223 03f6 03D0     		beq	.L598
 5224 03f8 0299     		ldr	r1, [sp, #8]
 5225 03fa 0131     		adds	r1, r1, #1
 5226 03fc FFF7FEFF 		bl	_ZdlPvj
 5227              	.L598:
 5228 0400 5F49     		ldr	r1, .L610+20
 5229 0402 6846     		mov	r0, sp
 5230 0404 D5F8B070 		ldr	r7, [r5, #176]
 5231 0408 FFF7FEFF 		bl	_ZNSt7__cxx1112basic_stringIcSt11char_traitsIcESaIcEEC2EPKcRKS3_.constprop.0
 5232 040c D6F81C3D 		ldr	r3, [r6, #3356]
 5233 0410 6946     		mov	r1, sp
 5234 0412 3846     		mov	r0, r7
 5235 0414 D3F82C80 		ldr	r8, [r3, #44]
 5236 0418 5A4B     		ldr	r3, .L610+24
 5237 041a D3F80090 		ldr	r9, [r3]
 5238 041e FFF7FEFF 		bl	_ZNSt7__cxx1112basic_stringIcSt11char_traitsIcESaIcEE9_M_assignERKS4_
 5239 0422 0098     		ldr	r0, [sp]
 5240 0424 A042     		cmp	r0, r4
 5241 0426 C7E90698 		strd	r9, r8, [r7, #24]
 5242 042a 03D0     		beq	.L599
 5243 042c 0299     		ldr	r1, [sp, #8]
 5244 042e 0131     		adds	r1, r1, #1
 5245 0430 FFF7FEFF 		bl	_ZdlPvj
 5246              	.L599:
 5247 0434 5449     		ldr	r1, .L610+28
 5248 0436 6846     		mov	r0, sp
 5249 0438 D5F8B470 		ldr	r7, [r5, #180]
 5250 043c FFF7FEFF 		bl	_ZNSt7__cxx1112basic_stringIcSt11char_traitsIcESaIcEEC2EPKcRKS3_.constprop.0
ARM GAS  /var/folders/sy/x1dkwsgj58j1lmy_hry3vpdm0000gn/T//cch4V49g.s 			page 94


 5251 0440 D6F8203D 		ldr	r3, [r6, #3360]
 5252 0444 6946     		mov	r1, sp
 5253 0446 3846     		mov	r0, r7
 5254 0448 D3F82C80 		ldr	r8, [r3, #44]
 5255 044c 4F4B     		ldr	r3, .L610+32
 5256 044e D3F80090 		ldr	r9, [r3]
 5257 0452 FFF7FEFF 		bl	_ZNSt7__cxx1112basic_stringIcSt11char_traitsIcESaIcEE9_M_assignERKS4_
 5258 0456 0098     		ldr	r0, [sp]
 5259 0458 A042     		cmp	r0, r4
 5260 045a C7E90698 		strd	r9, r8, [r7, #24]
 5261 045e 03D0     		beq	.L600
 5262 0460 0299     		ldr	r1, [sp, #8]
 5263 0462 0131     		adds	r1, r1, #1
 5264 0464 FFF7FEFF 		bl	_ZdlPvj
 5265              	.L600:
 5266 0468 4949     		ldr	r1, .L610+36
 5267 046a 6846     		mov	r0, sp
 5268 046c D5F8B870 		ldr	r7, [r5, #184]
 5269 0470 FFF7FEFF 		bl	_ZNSt7__cxx1112basic_stringIcSt11char_traitsIcESaIcEEC2EPKcRKS3_.constprop.0
 5270 0474 D6F8243D 		ldr	r3, [r6, #3364]
 5271 0478 6946     		mov	r1, sp
 5272 047a 3846     		mov	r0, r7
 5273 047c D3F82C80 		ldr	r8, [r3, #44]
 5274 0480 444B     		ldr	r3, .L610+40
 5275 0482 D3F80090 		ldr	r9, [r3]
 5276 0486 FFF7FEFF 		bl	_ZNSt7__cxx1112basic_stringIcSt11char_traitsIcESaIcEE9_M_assignERKS4_
 5277 048a 0098     		ldr	r0, [sp]
 5278 048c A042     		cmp	r0, r4
 5279 048e C7E90698 		strd	r9, r8, [r7, #24]
 5280 0492 03D0     		beq	.L601
 5281 0494 0299     		ldr	r1, [sp, #8]
 5282 0496 0131     		adds	r1, r1, #1
 5283 0498 FFF7FEFF 		bl	_ZdlPvj
 5284              	.L601:
 5285 049c 3E49     		ldr	r1, .L610+44
 5286 049e 6846     		mov	r0, sp
 5287 04a0 D5F8C070 		ldr	r7, [r5, #192]
 5288 04a4 FFF7FEFF 		bl	_ZNSt7__cxx1112basic_stringIcSt11char_traitsIcESaIcEEC2EPKcRKS3_.constprop.0
 5289 04a8 D6F8283D 		ldr	r3, [r6, #3368]
 5290 04ac 6946     		mov	r1, sp
 5291 04ae 3846     		mov	r0, r7
 5292 04b0 D3F82C80 		ldr	r8, [r3, #44]
 5293 04b4 394B     		ldr	r3, .L610+48
 5294 04b6 D3F80090 		ldr	r9, [r3]
 5295 04ba FFF7FEFF 		bl	_ZNSt7__cxx1112basic_stringIcSt11char_traitsIcESaIcEE9_M_assignERKS4_
 5296 04be 0098     		ldr	r0, [sp]
 5297 04c0 A042     		cmp	r0, r4
 5298 04c2 C7E90698 		strd	r9, r8, [r7, #24]
 5299 04c6 03D0     		beq	.L602
 5300 04c8 0299     		ldr	r1, [sp, #8]
 5301 04ca 0131     		adds	r1, r1, #1
 5302 04cc FFF7FEFF 		bl	_ZdlPvj
 5303              	.L602:
 5304 04d0 3349     		ldr	r1, .L610+52
 5305 04d2 6846     		mov	r0, sp
 5306 04d4 D5F8C870 		ldr	r7, [r5, #200]
 5307 04d8 FFF7FEFF 		bl	_ZNSt7__cxx1112basic_stringIcSt11char_traitsIcESaIcEEC2EPKcRKS3_.constprop.0
ARM GAS  /var/folders/sy/x1dkwsgj58j1lmy_hry3vpdm0000gn/T//cch4V49g.s 			page 95


 5308 04dc D6F82C3D 		ldr	r3, [r6, #3372]
 5309 04e0 6946     		mov	r1, sp
 5310 04e2 3846     		mov	r0, r7
 5311 04e4 D3F82C80 		ldr	r8, [r3, #44]
 5312 04e8 2E4B     		ldr	r3, .L610+56
 5313 04ea D3F80090 		ldr	r9, [r3]
 5314 04ee FFF7FEFF 		bl	_ZNSt7__cxx1112basic_stringIcSt11char_traitsIcESaIcEE9_M_assignERKS4_
 5315 04f2 0098     		ldr	r0, [sp]
 5316 04f4 A042     		cmp	r0, r4
 5317 04f6 C7E90698 		strd	r9, r8, [r7, #24]
 5318 04fa 03D0     		beq	.L603
 5319 04fc 0299     		ldr	r1, [sp, #8]
 5320 04fe 0131     		adds	r1, r1, #1
 5321 0500 FFF7FEFF 		bl	_ZdlPvj
 5322              	.L603:
 5323 0504 2849     		ldr	r1, .L610+60
 5324 0506 6846     		mov	r0, sp
 5325 0508 D5F8CC70 		ldr	r7, [r5, #204]
 5326 050c FFF7FEFF 		bl	_ZNSt7__cxx1112basic_stringIcSt11char_traitsIcESaIcEEC2EPKcRKS3_.constprop.0
 5327 0510 D6F8303D 		ldr	r3, [r6, #3376]
 5328 0514 6946     		mov	r1, sp
 5329 0516 3846     		mov	r0, r7
 5330 0518 DE6A     		ldr	r6, [r3, #44]
 5331 051a 244B     		ldr	r3, .L610+64
 5332 051c D3F80080 		ldr	r8, [r3]
 5333 0520 FFF7FEFF 		bl	_ZNSt7__cxx1112basic_stringIcSt11char_traitsIcESaIcEE9_M_assignERKS4_
 5334 0524 0098     		ldr	r0, [sp]
 5335 0526 A042     		cmp	r0, r4
 5336 0528 C7E90686 		strd	r8, r6, [r7, #24]
 5337 052c 03D0     		beq	.L604
 5338 052e 0299     		ldr	r1, [sp, #8]
 5339 0530 0131     		adds	r1, r1, #1
 5340 0532 FFF7FEFF 		bl	_ZdlPvj
 5341              	.L604:
 5342 0536 D5F8E450 		ldr	r5, [r5, #228]
 5343 053a 6846     		mov	r0, sp
 5344 053c 1C49     		ldr	r1, .L610+68
 5345 053e FFF7FEFF 		bl	_ZNSt7__cxx1112basic_stringIcSt11char_traitsIcESaIcEEC2EPKcRKS3_.constprop.0
 5346 0542 1C4A     		ldr	r2, .L610+72
 5347 0544 1C4B     		ldr	r3, .L610+76
 5348 0546 2846     		mov	r0, r5
 5349 0548 6946     		mov	r1, sp
 5350 054a 1768     		ldr	r7, [r2]
 5351 054c D3F80C61 		ldr	r6, [r3, #268]
 5352 0550 FFF7FEFF 		bl	_ZNSt7__cxx1112basic_stringIcSt11char_traitsIcESaIcEE9_M_assignERKS4_
 5353 0554 0098     		ldr	r0, [sp]
 5354 0556 A042     		cmp	r0, r4
 5355 0558 C5E90676 		strd	r7, r6, [r5, #24]
 5356 055c 03D0     		beq	.L581
 5357 055e 0299     		ldr	r1, [sp, #8]
 5358 0560 0131     		adds	r1, r1, #1
 5359 0562 FFF7FEFF 		bl	_ZdlPvj
 5360              	.L581:
 5361 0566 06B0     		add	sp, sp, #24
 5362              		@ sp needed
 5363 0568 BDE8F087 		pop	{r4, r5, r6, r7, r8, r9, r10, pc}
 5364              	.L611:
ARM GAS  /var/folders/sy/x1dkwsgj58j1lmy_hry3vpdm0000gn/T//cch4V49g.s 			page 96


 5365              		.align	2
 5366              	.L610:
 5367 056c A4000000 		.word	.LC61
 5368 0570 00000000 		.word	.LANCHOR46
 5369 0574 AC000000 		.word	.LC62
 5370 0578 00000000 		.word	.LANCHOR0
 5371 057c 00000000 		.word	.LANCHOR47
 5372 0580 B8000000 		.word	.LC63
 5373 0584 00000000 		.word	.LANCHOR48
 5374 0588 C4000000 		.word	.LC64
 5375 058c 00000000 		.word	.LANCHOR49
 5376 0590 D0000000 		.word	.LC65
 5377 0594 00000000 		.word	.LANCHOR50
 5378 0598 DC000000 		.word	.LC66
 5379 059c 00000000 		.word	.LANCHOR7
 5380 05a0 E8000000 		.word	.LC67
 5381 05a4 00000000 		.word	.LANCHOR51
 5382 05a8 F4000000 		.word	.LC68
 5383 05ac 00000000 		.word	.LANCHOR52
 5384 05b0 00010000 		.word	.LC69
 5385 05b4 00000000 		.word	.LANCHOR13
 5386 05b8 00000000 		.word	.LANCHOR6
 5388              		.section	.text._ZNSt7__cxx119to_stringEi,"axG",%progbits,_ZNSt7__cxx119to_stringEi,comdat
 5389              		.align	1
 5390              		.p2align 2,,3
 5391              		.weak	_ZNSt7__cxx119to_stringEi
 5392              		.syntax unified
 5393              		.thumb
 5394              		.thumb_func
 5395              		.fpu fpv5-d16
 5397              	_ZNSt7__cxx119to_stringEi:
 5398              		@ args = 0, pretend = 0, frame = 0
 5399              		@ frame_needed = 0, uses_anonymous_args = 0
 5400 0000 2DE9F843 		push	{r3, r4, r5, r6, r7, r8, r9, lr}
 5401 0004 81EAE174 		eor	r4, r1, r1, asr #31
 5402 0008 0546     		mov	r5, r0
 5403 000a CE0F     		lsrs	r6, r1, #31
 5404 000c A4EBE174 		sub	r4, r4, r1, asr #31
 5405 0010 092C     		cmp	r4, #9
 5406 0012 73D9     		bls	.L615
 5407 0014 632C     		cmp	r4, #99
 5408 0016 4DD9     		bls	.L616
 5409 0018 B4F57A7F 		cmp	r4, #1000
 5410 001c 7BD3     		bcc	.L630
 5411 001e 42F20F73 		movw	r3, #9999
 5412 0022 9C42     		cmp	r4, r3
 5413 0024 74D9     		bls	.L631
 5414 0026 2046     		mov	r0, r4
 5415 0028 0121     		movs	r1, #1
 5416 002a 05E0     		b	.L619
 5417              	.L634:
 5418 002c 6345     		cmp	r3, ip
 5419 002e 55D9     		bls	.L637
 5420 0030 7345     		cmp	r3, lr
 5421 0032 59D3     		bcc	.L638
 5422 0034 4345     		cmp	r3, r8
 5423 0036 5CD9     		bls	.L639
ARM GAS  /var/folders/sy/x1dkwsgj58j1lmy_hry3vpdm0000gn/T//cch4V49g.s 			page 97


 5424              	.L619:
 5425 0038 0346     		mov	r3, r0
 5426 003a 384A     		ldr	r2, .L640
 5427 003c 384F     		ldr	r7, .L640+4
 5428 003e 8946     		mov	r9, r1
 5429 0040 A2FB0302 		umull	r0, r2, r2, r3
 5430 0044 DFF8E4C0 		ldr	ip, .L640+16
 5431 0048 BB42     		cmp	r3, r7
 5432 004a DFF8E4E0 		ldr	lr, .L640+20
 5433 004e DFF8E480 		ldr	r8, .L640+24
 5434 0052 4FEA5230 		lsr	r0, r2, #13
 5435 0056 01F10401 		add	r1, r1, #4
 5436 005a E7D8     		bhi	.L634
 5437 005c 09F10307 		add	r7, r9, #3
 5438              	.L623:
 5439 0060 3144     		add	r1, r1, r6
 5440              	.L636:
 5441 0062 05F10803 		add	r3, r5, #8
 5442 0066 2846     		mov	r0, r5
 5443 0068 2D22     		movs	r2, #45
 5444 006a 2B60     		str	r3, [r5]
 5445 006c FFF7FEFF 		bl	_ZNSt7__cxx1112basic_stringIcSt11char_traitsIcESaIcEE12_M_constructEjc
 5446 0070 2B68     		ldr	r3, [r5]
 5447 0072 2C48     		ldr	r0, .L640+8
 5448 0074 1E44     		add	r6, r6, r3
 5449 0076 F119     		adds	r1, r6, r7
 5450              	.L626:
 5451 0078 2B4B     		ldr	r3, .L640+12
 5452 007a 6422     		movs	r2, #100
 5453 007c A446     		mov	ip, r4
 5454 007e 42F20F77 		movw	r7, #9999
 5455 0082 A3FB04E3 		umull	lr, r3, r3, r4
 5456 0086 0239     		subs	r1, r1, #2
 5457 0088 BC45     		cmp	ip, r7
 5458 008a 4FEA5313 		lsr	r3, r3, #5
 5459 008e 02FB1342 		mls	r2, r2, r3, r4
 5460 0092 1C46     		mov	r4, r3
 5461 0094 00EB4203 		add	r3, r0, r2, lsl #1
 5462 0098 10F81220 		ldrb	r2, [r0, r2, lsl #1]	@ zero_extendqisi2
 5463 009c 5B78     		ldrb	r3, [r3, #1]	@ zero_extendqisi2
 5464 009e 4A70     		strb	r2, [r1, #1]
 5465 00a0 8B70     		strb	r3, [r1, #2]
 5466 00a2 E9D8     		bhi	.L626
 5467 00a4 BCF57A7F 		cmp	ip, #1000
 5468 00a8 0ED2     		bcs	.L629
 5469              	.L627:
 5470 00aa 3034     		adds	r4, r4, #48
 5471 00ac 2846     		mov	r0, r5
 5472 00ae 3470     		strb	r4, [r6]
 5473 00b0 BDE8F883 		pop	{r3, r4, r5, r6, r7, r8, r9, pc}
 5474              	.L616:
 5475 00b4 00F10803 		add	r3, r0, #8
 5476 00b8 B11C     		adds	r1, r6, #2
 5477 00ba 2D22     		movs	r2, #45
 5478 00bc 0360     		str	r3, [r0]
 5479 00be FFF7FEFF 		bl	_ZNSt7__cxx1112basic_stringIcSt11char_traitsIcESaIcEE12_M_constructEjc
 5480 00c2 2B68     		ldr	r3, [r5]
ARM GAS  /var/folders/sy/x1dkwsgj58j1lmy_hry3vpdm0000gn/T//cch4V49g.s 			page 98


 5481 00c4 1748     		ldr	r0, .L640+8
 5482 00c6 1E44     		add	r6, r6, r3
 5483              	.L629:
 5484 00c8 00EB4403 		add	r3, r0, r4, lsl #1
 5485 00cc 10F81420 		ldrb	r2, [r0, r4, lsl #1]	@ zero_extendqisi2
 5486 00d0 2846     		mov	r0, r5
 5487 00d2 5B78     		ldrb	r3, [r3, #1]	@ zero_extendqisi2
 5488 00d4 3270     		strb	r2, [r6]
 5489 00d6 7370     		strb	r3, [r6, #1]
 5490 00d8 BDE8F883 		pop	{r3, r4, r5, r6, r7, r8, r9, pc}
 5491              	.L637:
 5492 00dc 09F10509 		add	r9, r9, #5
 5493 00e0 0F46     		mov	r7, r1
 5494 00e2 09EB0601 		add	r1, r9, r6
 5495 00e6 BCE7     		b	.L636
 5496              	.L638:
 5497 00e8 09F10601 		add	r1, r9, #6
 5498 00ec 09F10507 		add	r7, r9, #5
 5499 00f0 B6E7     		b	.L623
 5500              	.L639:
 5501 00f2 09F10701 		add	r1, r9, #7
 5502 00f6 09F10607 		add	r7, r9, #6
 5503 00fa B1E7     		b	.L623
 5504              	.L615:
 5505 00fc 00F10803 		add	r3, r0, #8
 5506 0100 711C     		adds	r1, r6, #1
 5507 0102 2D22     		movs	r2, #45
 5508 0104 0360     		str	r3, [r0]
 5509 0106 FFF7FEFF 		bl	_ZNSt7__cxx1112basic_stringIcSt11char_traitsIcESaIcEE12_M_constructEjc
 5510 010a 2B68     		ldr	r3, [r5]
 5511 010c 1E44     		add	r6, r6, r3
 5512 010e CCE7     		b	.L627
 5513              	.L631:
 5514 0110 0327     		movs	r7, #3
 5515 0112 0421     		movs	r1, #4
 5516 0114 A4E7     		b	.L623
 5517              	.L630:
 5518 0116 0227     		movs	r7, #2
 5519 0118 0321     		movs	r1, #3
 5520 011a A1E7     		b	.L623
 5521              	.L641:
 5522              		.align	2
 5523              	.L640:
 5524 011c 5917B7D1 		.word	-776530087
 5525 0120 9F860100 		.word	99999
 5526 0124 00000000 		.word	_ZZNSt8__detail18__to_chars_10_implIjEEvPcjT_E8__digits
 5527 0128 1F85EB51 		.word	1374389535
 5528 012c 3F420F00 		.word	999999
 5529 0130 80969800 		.word	10000000
 5530 0134 FFE0F505 		.word	99999999
 5532              		.section	.rodata._ZN10FloatParam17GetFormattedLabelB5cxx11Ev.str1.4,"aMS",%progbits,1
 5533              		.align	2
 5534              	.LC70:
 5535 0000 00       		.ascii	"\000"
 5536 0001 000000   		.align	2
 5537              	.LC71:
 5538 0004 3000     		.ascii	"0\000"
ARM GAS  /var/folders/sy/x1dkwsgj58j1lmy_hry3vpdm0000gn/T//cch4V49g.s 			page 99


 5539 0006 0000     		.align	2
 5540              	.LC72:
 5541 0008 62617369 		.ascii	"basic_string::append\000"
 5541      635F7374 
 5541      72696E67 
 5541      3A3A6170 
 5541      70656E64 
 5542 001d 000000   		.align	2
 5543              	.LC73:
 5544 0020 3A2000   		.ascii	": \000"
 5545 0023 00       		.align	2
 5546              	.LC74:
 5547 0024 2E00     		.ascii	".\000"
 5548              		.section	.text._ZN10FloatParam17GetFormattedLabelB5cxx11Ev,"axG",%progbits,_ZN10FloatParam17GetFor
 5549              		.align	1
 5550              		.p2align 2,,3
 5551              		.weak	_ZN10FloatParam17GetFormattedLabelB5cxx11Ev
 5552              		.syntax unified
 5553              		.thumb
 5554              		.thumb_func
 5555              		.fpu fpv5-d16
 5557              	_ZN10FloatParam17GetFormattedLabelB5cxx11Ev:
 5558              		@ args = 0, pretend = 0, frame = 152
 5559              		@ frame_needed = 0, uses_anonymous_args = 0
 5560 0000 D1ED037A 		vldr.32	s15, [r1, #12]
 5561 0004 DFEDBB6A 		vldr.32	s13, .L715
 5562 0008 BDEEE77A 		vcvt.s32.f32	s14, s15
 5563 000c 2DE9F04F 		push	{r4, r5, r6, r7, r8, r9, r10, fp, lr}
 5564 0010 B8EEC77A 		vcvt.f32.s32	s14, s14
 5565 0014 0C46     		mov	r4, r1
 5566 0016 A9B0     		sub	sp, sp, #164
 5567 0018 096B     		ldr	r1, [r1, #48]
 5568 001a 626B     		ldr	r2, [r4, #52]
 5569 001c 0646     		mov	r6, r0
 5570 001e 77EEC77A 		vsub.f32	s15, s15, s14
 5571 0022 06AF     		add	r7, sp, #24
 5572 0024 0A44     		add	r2, r2, r1
 5573 0026 04A8     		add	r0, sp, #16
 5574 0028 0497     		str	r7, [sp, #16]
 5575 002a 67EEA67A 		vmul.f32	s15, s15, s13
 5576 002e FDEEE77A 		vcvt.s32.f32	s15, s15
 5577 0032 17EE905A 		vmov	r5, s15	@ int
 5578 0036 002D     		cmp	r5, #0
 5579 0038 B8BF     		it	lt
 5580 003a 6D42     		rsblt	r5, r5, #0
 5581 003c FFF7FEFF 		bl	_ZNSt7__cxx1112basic_stringIcSt11char_traitsIcESaIcEE12_M_constructIPcEEvT_S7_St20forward_itera
 5582 0040 6FF04043 		mvn	r3, #-1073741824
 5583 0044 059A     		ldr	r2, [sp, #20]
 5584 0046 9B1A     		subs	r3, r3, r2
 5585 0048 012B     		cmp	r3, #1
 5586 004a 40F2D881 		bls	.L669
 5587 004e 0222     		movs	r2, #2
 5588 0050 A949     		ldr	r1, .L715+4
 5589 0052 04A8     		add	r0, sp, #16
 5590 0054 FFF7FEFF 		bl	_ZNSt7__cxx1112basic_stringIcSt11char_traitsIcESaIcEE9_M_appendEPKcj
 5591 0058 D4ED037A 		vldr.32	s15, [r4, #12]
 5592 005c FDEEE77A 		vcvt.s32.f32	s15, s15
ARM GAS  /var/folders/sy/x1dkwsgj58j1lmy_hry3vpdm0000gn/T//cch4V49g.s 			page 100


 5593 0060 17EE909A 		vmov	r9, s15	@ int
 5594 0064 89EAE974 		eor	r4, r9, r9, asr #31
 5595 0068 A4EBE974 		sub	r4, r4, r9, asr #31
 5596 006c 4FEAD979 		lsr	r9, r9, #31
 5597 0070 092C     		cmp	r4, #9
 5598 0072 40F2AD81 		bls	.L646
 5599 0076 632C     		cmp	r4, #99
 5600 0078 40F22281 		bls	.L647
 5601 007c B4F57A7F 		cmp	r4, #1000
 5602 0080 C0F0B981 		bcc	.L691
 5603 0084 42F20F73 		movw	r3, #9999
 5604 0088 9C42     		cmp	r4, r3
 5605 008a 40F2B081 		bls	.L692
 5606 008e 2046     		mov	r0, r4
 5607 0090 0121     		movs	r1, #1
 5608 0092 0BE0     		b	.L650
 5609              	.L700:
 5610 0094 994A     		ldr	r2, .L715+8
 5611 0096 9342     		cmp	r3, r2
 5612 0098 40F24481 		bls	.L707
 5613 009c 984A     		ldr	r2, .L715+12
 5614 009e 9342     		cmp	r3, r2
 5615 00a0 C0F04681 		bcc	.L708
 5616 00a4 974A     		ldr	r2, .L715+16
 5617 00a6 9342     		cmp	r3, r2
 5618 00a8 40F26A81 		bls	.L709
 5619              	.L650:
 5620 00ac 0346     		mov	r3, r0
 5621 00ae 964A     		ldr	r2, .L715+20
 5622 00b0 DFF868C2 		ldr	ip, .L715+40
 5623 00b4 8A46     		mov	r10, r1
 5624 00b6 A2FB0302 		umull	r0, r2, r2, r3
 5625 00ba 0431     		adds	r1, r1, #4
 5626 00bc 6345     		cmp	r3, ip
 5627 00be 4FEA5230 		lsr	r0, r2, #13
 5628 00c2 E7D8     		bhi	.L700
 5629 00c4 0AF1030A 		add	r10, r10, #3
 5630              	.L654:
 5631 00c8 4944     		add	r1, r1, r9
 5632              	.L702:
 5633 00ca 0AA8     		add	r0, sp, #40
 5634 00cc 0DF13008 		add	r8, sp, #48
 5635 00d0 2D22     		movs	r2, #45
 5636 00d2 0390     		str	r0, [sp, #12]
 5637 00d4 CDF82880 		str	r8, [sp, #40]
 5638 00d8 FFF7FEFF 		bl	_ZNSt7__cxx1112basic_stringIcSt11char_traitsIcESaIcEE12_M_constructEjc
 5639 00dc 0A9B     		ldr	r3, [sp, #40]
 5640 00de 0398     		ldr	r0, [sp, #12]
 5641 00e0 9944     		add	r9, r9, r3
 5642 00e2 DFF83CC2 		ldr	ip, .L715+44
 5643 00e6 09EB0A01 		add	r1, r9, r10
 5644              	.L657:
 5645 00ea 884B     		ldr	r3, .L715+24
 5646 00ec 6422     		movs	r2, #100
 5647 00ee A646     		mov	lr, r4
 5648 00f0 0239     		subs	r1, r1, #2
 5649 00f2 A3FB04A3 		umull	r10, r3, r3, r4
ARM GAS  /var/folders/sy/x1dkwsgj58j1lmy_hry3vpdm0000gn/T//cch4V49g.s 			page 101


 5650 00f6 5B09     		lsrs	r3, r3, #5
 5651 00f8 02FB1342 		mls	r2, r2, r3, r4
 5652 00fc 1C46     		mov	r4, r3
 5653 00fe 42F20F73 		movw	r3, #9999
 5654 0102 0CEB420A 		add	r10, ip, r2, lsl #1
 5655 0106 1CF81220 		ldrb	r2, [ip, r2, lsl #1]	@ zero_extendqisi2
 5656 010a 9E45     		cmp	lr, r3
 5657 010c 4A70     		strb	r2, [r1, #1]
 5658 010e 9AF80120 		ldrb	r2, [r10, #1]	@ zero_extendqisi2
 5659 0112 8A70     		strb	r2, [r1, #2]
 5660 0114 E9D8     		bhi	.L657
 5661 0116 BEF57A7F 		cmp	lr, #1000
 5662 011a 80F0E180 		bcs	.L690
 5663              	.L658:
 5664 011e 3034     		adds	r4, r4, #48
 5665 0120 89F80040 		strb	r4, [r9]
 5666              	.L659:
 5667 0124 049B     		ldr	r3, [sp, #16]
 5668 0126 DDF814C0 		ldr	ip, [sp, #20]
 5669 012a BB42     		cmp	r3, r7
 5670 012c 0B9A     		ldr	r2, [sp, #44]
 5671 012e 14BF     		ite	ne
 5672 0130 0699     		ldrne	r1, [sp, #24]
 5673 0132 0F21     		moveq	r1, #15
 5674 0134 0CEB0204 		add	r4, ip, r2
 5675 0138 8C42     		cmp	r4, r1
 5676 013a 0A99     		ldr	r1, [sp, #40]
 5677 013c 08D9     		bls	.L663
 5678 013e 4145     		cmp	r1, r8
 5679 0140 14BF     		ite	ne
 5680 0142 DDF830E0 		ldrne	lr, [sp, #48]
 5681 0146 4FF00F0E 		moveq	lr, #15
 5682 014a 7445     		cmp	r4, lr
 5683 014c 40F2FC80 		bls	.L710
 5684              	.L663:
 5685 0150 04A8     		add	r0, sp, #16
 5686 0152 0DF14809 		add	r9, sp, #72
 5687 0156 FFF7FEFF 		bl	_ZNSt7__cxx1112basic_stringIcSt11char_traitsIcESaIcEE9_M_appendEPKcj
 5688 015a 8446     		mov	ip, r0
 5689 015c CDF84090 		str	r9, [sp, #64]
 5690 0160 0446     		mov	r4, r0
 5691 0162 5CF8083B 		ldr	r3, [ip], #8
 5692 0166 6345     		cmp	r3, ip
 5693 0168 00F0FF80 		beq	.L703
 5694              	.L667:
 5695 016c 1093     		str	r3, [sp, #64]
 5696 016e A368     		ldr	r3, [r4, #8]
 5697 0170 1293     		str	r3, [sp, #72]
 5698              	.L668:
 5699 0172 6368     		ldr	r3, [r4, #4]
 5700 0174 1193     		str	r3, [sp, #68]
 5701 0176 0023     		movs	r3, #0
 5702 0178 C4F800C0 		str	ip, [r4]
 5703 017c 6360     		str	r3, [r4, #4]
 5704 017e 2372     		strb	r3, [r4, #8]
 5705 0180 6FF04043 		mvn	r3, #-1073741824
 5706 0184 119A     		ldr	r2, [sp, #68]
ARM GAS  /var/folders/sy/x1dkwsgj58j1lmy_hry3vpdm0000gn/T//cch4V49g.s 			page 102


 5707 0186 9A42     		cmp	r2, r3
 5708 0188 00F03981 		beq	.L669
 5709 018c 0122     		movs	r2, #1
 5710 018e 6049     		ldr	r1, .L715+28
 5711 0190 10A8     		add	r0, sp, #64
 5712 0192 0DF1600A 		add	r10, sp, #96
 5713 0196 FFF7FEFF 		bl	_ZNSt7__cxx1112basic_stringIcSt11char_traitsIcESaIcEE9_M_appendEPKcj
 5714 019a 8446     		mov	ip, r0
 5715 019c CDF858A0 		str	r10, [sp, #88]
 5716 01a0 0446     		mov	r4, r0
 5717 01a2 5CF8083B 		ldr	r3, [ip], #8
 5718 01a6 6345     		cmp	r3, ip
 5719 01a8 00F00781 		beq	.L711
 5720 01ac 1693     		str	r3, [sp, #88]
 5721 01ae 8368     		ldr	r3, [r0, #8]
 5722 01b0 1893     		str	r3, [sp, #96]
 5723              	.L671:
 5724 01b2 6368     		ldr	r3, [r4, #4]
 5725 01b4 0022     		movs	r2, #0
 5726 01b6 092D     		cmp	r5, #9
 5727 01b8 1793     		str	r3, [sp, #92]
 5728 01ba 2272     		strb	r2, [r4, #8]
 5729 01bc C4F800C0 		str	ip, [r4]
 5730 01c0 6260     		str	r2, [r4, #4]
 5731 01c2 7BDC     		bgt	.L695
 5732 01c4 179A     		ldr	r2, [sp, #92]
 5733 01c6 6FF04043 		mvn	r3, #-1073741824
 5734 01ca 9A42     		cmp	r2, r3
 5735 01cc 00F01781 		beq	.L669
 5736 01d0 0122     		movs	r2, #1
 5737 01d2 5049     		ldr	r1, .L715+32
 5738              	.L672:
 5739 01d4 16A8     		add	r0, sp, #88
 5740 01d6 0DF1780B 		add	fp, sp, #120
 5741 01da FFF7FEFF 		bl	_ZNSt7__cxx1112basic_stringIcSt11char_traitsIcESaIcEE9_M_appendEPKcj
 5742 01de 8446     		mov	ip, r0
 5743 01e0 CDF870B0 		str	fp, [sp, #112]
 5744 01e4 0446     		mov	r4, r0
 5745 01e6 5CF8083B 		ldr	r3, [ip], #8
 5746 01ea 6345     		cmp	r3, ip
 5747 01ec 00F0DA80 		beq	.L712
 5748 01f0 1C93     		str	r3, [sp, #112]
 5749 01f2 8368     		ldr	r3, [r0, #8]
 5750 01f4 1E93     		str	r3, [sp, #120]
 5751              	.L674:
 5752 01f6 6368     		ldr	r3, [r4, #4]
 5753 01f8 2946     		mov	r1, r5
 5754 01fa 22A8     		add	r0, sp, #136
 5755 01fc 1D93     		str	r3, [sp, #116]
 5756 01fe 0023     		movs	r3, #0
 5757 0200 C4F800C0 		str	ip, [r4]
 5758 0204 6360     		str	r3, [r4, #4]
 5759 0206 2372     		strb	r3, [r4, #8]
 5760 0208 24AC     		add	r4, sp, #144
 5761 020a FFF7FEFF 		bl	_ZNSt7__cxx119to_stringEi
 5762 020e 1C9B     		ldr	r3, [sp, #112]
 5763 0210 1D9D     		ldr	r5, [sp, #116]
ARM GAS  /var/folders/sy/x1dkwsgj58j1lmy_hry3vpdm0000gn/T//cch4V49g.s 			page 103


 5764 0212 5B45     		cmp	r3, fp
 5765 0214 239A     		ldr	r2, [sp, #140]
 5766 0216 14BF     		ite	ne
 5767 0218 1E99     		ldrne	r1, [sp, #120]
 5768 021a 0F21     		moveq	r1, #15
 5769 021c A818     		adds	r0, r5, r2
 5770 021e 8842     		cmp	r0, r1
 5771 0220 2299     		ldr	r1, [sp, #136]
 5772 0222 08D9     		bls	.L678
 5773 0224 A142     		cmp	r1, r4
 5774 0226 14BF     		ite	ne
 5775 0228 DDF890C0 		ldrne	ip, [sp, #144]
 5776 022c 4FF00F0C 		moveq	ip, #15
 5777 0230 6045     		cmp	r0, ip
 5778 0232 40F28280 		bls	.L713
 5779              	.L678:
 5780 0236 1CA8     		add	r0, sp, #112
 5781 0238 FFF7FEFF 		bl	_ZNSt7__cxx1112basic_stringIcSt11char_traitsIcESaIcEE9_M_appendEPKcj
 5782              	.L706:
 5783 023c 0346     		mov	r3, r0
 5784 023e 06F10801 		add	r1, r6, #8
 5785 0242 3160     		str	r1, [r6]
 5786 0244 53F8082B 		ldr	r2, [r3], #8
 5787 0248 9A42     		cmp	r2, r3
 5788 024a 00F09E80 		beq	.L714
 5789 024e 3260     		str	r2, [r6]
 5790 0250 8268     		ldr	r2, [r0, #8]
 5791 0252 B260     		str	r2, [r6, #8]
 5792              	.L683:
 5793 0254 0360     		str	r3, [r0]
 5794 0256 4368     		ldr	r3, [r0, #4]
 5795 0258 7360     		str	r3, [r6, #4]
 5796 025a 0023     		movs	r3, #0
 5797 025c 0372     		strb	r3, [r0, #8]
 5798 025e 4360     		str	r3, [r0, #4]
 5799 0260 2298     		ldr	r0, [sp, #136]
 5800 0262 A042     		cmp	r0, r4
 5801 0264 03D0     		beq	.L684
 5802 0266 2499     		ldr	r1, [sp, #144]
 5803 0268 0131     		adds	r1, r1, #1
 5804 026a FFF7FEFF 		bl	_ZdlPvj
 5805              	.L684:
 5806 026e 1C98     		ldr	r0, [sp, #112]
 5807 0270 5845     		cmp	r0, fp
 5808 0272 03D0     		beq	.L685
 5809 0274 1E99     		ldr	r1, [sp, #120]
 5810 0276 0131     		adds	r1, r1, #1
 5811 0278 FFF7FEFF 		bl	_ZdlPvj
 5812              	.L685:
 5813 027c 1698     		ldr	r0, [sp, #88]
 5814 027e 5045     		cmp	r0, r10
 5815 0280 03D0     		beq	.L686
 5816 0282 1899     		ldr	r1, [sp, #96]
 5817 0284 0131     		adds	r1, r1, #1
 5818 0286 FFF7FEFF 		bl	_ZdlPvj
 5819              	.L686:
 5820 028a 1098     		ldr	r0, [sp, #64]
ARM GAS  /var/folders/sy/x1dkwsgj58j1lmy_hry3vpdm0000gn/T//cch4V49g.s 			page 104


 5821 028c 4845     		cmp	r0, r9
 5822 028e 03D0     		beq	.L687
 5823 0290 1299     		ldr	r1, [sp, #72]
 5824 0292 0131     		adds	r1, r1, #1
 5825 0294 FFF7FEFF 		bl	_ZdlPvj
 5826              	.L687:
 5827 0298 0A98     		ldr	r0, [sp, #40]
 5828 029a 4045     		cmp	r0, r8
 5829 029c 03D0     		beq	.L688
 5830 029e 0C99     		ldr	r1, [sp, #48]
 5831 02a0 0131     		adds	r1, r1, #1
 5832 02a2 FFF7FEFF 		bl	_ZdlPvj
 5833              	.L688:
 5834 02a6 0498     		ldr	r0, [sp, #16]
 5835 02a8 B842     		cmp	r0, r7
 5836 02aa 03D0     		beq	.L642
 5837 02ac 0699     		ldr	r1, [sp, #24]
 5838 02ae 0131     		adds	r1, r1, #1
 5839 02b0 FFF7FEFF 		bl	_ZdlPvj
 5840              	.L642:
 5841 02b4 3046     		mov	r0, r6
 5842 02b6 29B0     		add	sp, sp, #164
 5843              		@ sp needed
 5844 02b8 BDE8F08F 		pop	{r4, r5, r6, r7, r8, r9, r10, fp, pc}
 5845              	.L695:
 5846 02bc 1649     		ldr	r1, .L715+36
 5847 02be 89E7     		b	.L672
 5848              	.L647:
 5849 02c0 0AA8     		add	r0, sp, #40
 5850 02c2 0DF13008 		add	r8, sp, #48
 5851 02c6 09F10201 		add	r1, r9, #2
 5852 02ca 2D22     		movs	r2, #45
 5853 02cc 0390     		str	r0, [sp, #12]
 5854 02ce CDF82880 		str	r8, [sp, #40]
 5855 02d2 FFF7FEFF 		bl	_ZNSt7__cxx1112basic_stringIcSt11char_traitsIcESaIcEE12_M_constructEjc
 5856 02d6 0A9B     		ldr	r3, [sp, #40]
 5857 02d8 DFF844C0 		ldr	ip, .L715+44
 5858 02dc 9944     		add	r9, r9, r3
 5859 02de 0398     		ldr	r0, [sp, #12]
 5860              	.L690:
 5861 02e0 0CEB4403 		add	r3, ip, r4, lsl #1
 5862 02e4 1CF81420 		ldrb	r2, [ip, r4, lsl #1]	@ zero_extendqisi2
 5863 02e8 5B78     		ldrb	r3, [r3, #1]	@ zero_extendqisi2
 5864 02ea 89F80020 		strb	r2, [r9]
 5865 02ee 89F80130 		strb	r3, [r9, #1]
 5866 02f2 17E7     		b	.L659
 5867              	.L716:
 5868              		.align	2
 5869              	.L715:
 5870 02f4 0000C842 		.word	1120403456
 5871 02f8 20000000 		.word	.LC73
 5872 02fc 3F420F00 		.word	999999
 5873 0300 80969800 		.word	10000000
 5874 0304 FFE0F505 		.word	99999999
 5875 0308 5917B7D1 		.word	-776530087
 5876 030c 1F85EB51 		.word	1374389535
 5877 0310 24000000 		.word	.LC74
ARM GAS  /var/folders/sy/x1dkwsgj58j1lmy_hry3vpdm0000gn/T//cch4V49g.s 			page 105


 5878 0314 04000000 		.word	.LC71
 5879 0318 00000000 		.word	.LC70
 5880 031c 9F860100 		.word	99999
 5881 0320 00000000 		.word	_ZZNSt8__detail18__to_chars_10_implIjEEvPcjT_E8__digits
 5882              	.L707:
 5883 0324 0AF10503 		add	r3, r10, #5
 5884 0328 8A46     		mov	r10, r1
 5885 032a 03EB0901 		add	r1, r3, r9
 5886 032e CCE6     		b	.L702
 5887              	.L708:
 5888 0330 0AF10601 		add	r1, r10, #6
 5889 0334 0AF1050A 		add	r10, r10, #5
 5890 0338 C6E6     		b	.L654
 5891              	.L713:
 5892 033a 0022     		movs	r2, #0
 5893 033c 22A8     		add	r0, sp, #136
 5894 033e 0095     		str	r5, [sp]
 5895 0340 1146     		mov	r1, r2
 5896 0342 FFF7FEFF 		bl	_ZNSt7__cxx1112basic_stringIcSt11char_traitsIcESaIcEE10_M_replaceEjjPKcj
 5897 0346 79E7     		b	.L706
 5898              	.L710:
 5899 0348 0022     		movs	r2, #0
 5900 034a CDF800C0 		str	ip, [sp]
 5901 034e 0DF14809 		add	r9, sp, #72
 5902 0352 1146     		mov	r1, r2
 5903 0354 FFF7FEFF 		bl	_ZNSt7__cxx1112basic_stringIcSt11char_traitsIcESaIcEE10_M_replaceEjjPKcj
 5904 0358 8446     		mov	ip, r0
 5905 035a CDF84090 		str	r9, [sp, #64]
 5906 035e 0446     		mov	r4, r0
 5907 0360 5CF8083B 		ldr	r3, [ip], #8
 5908 0364 6345     		cmp	r3, ip
 5909 0366 7FF401AF 		bne	.L667
 5910              	.L703:
 5911 036a CE46     		mov	lr, r9
 5912 036c A068     		ldr	r0, [r4, #8]	@ unaligned
 5913 036e DCF80410 		ldr	r1, [ip, #4]	@ unaligned
 5914 0372 DCF80820 		ldr	r2, [ip, #8]	@ unaligned
 5915 0376 DCF80C30 		ldr	r3, [ip, #12]	@ unaligned
 5916 037a AEE80F00 		stmia	lr!, {r0, r1, r2, r3}
 5917 037e F8E6     		b	.L668
 5918              	.L709:
 5919 0380 0AF10701 		add	r1, r10, #7
 5920 0384 0AF1060A 		add	r10, r10, #6
 5921 0388 9EE6     		b	.L654
 5922              	.L714:
 5923 038a D0F808E0 		ldr	lr, [r0, #8]	@ unaligned
 5924 038e D3F804C0 		ldr	ip, [r3, #4]	@ unaligned
 5925 0392 9D68     		ldr	r5, [r3, #8]	@ unaligned
 5926 0394 DA68     		ldr	r2, [r3, #12]	@ unaligned
 5927 0396 C6F808E0 		str	lr, [r6, #8]	@ unaligned
 5928 039a C6F80CC0 		str	ip, [r6, #12]	@ unaligned
 5929 039e 3561     		str	r5, [r6, #16]	@ unaligned
 5930 03a0 7261     		str	r2, [r6, #20]	@ unaligned
 5931 03a2 57E7     		b	.L683
 5932              	.L712:
 5933 03a4 DE46     		mov	lr, fp
 5934 03a6 8068     		ldr	r0, [r0, #8]	@ unaligned
ARM GAS  /var/folders/sy/x1dkwsgj58j1lmy_hry3vpdm0000gn/T//cch4V49g.s 			page 106


 5935 03a8 DCF80410 		ldr	r1, [ip, #4]	@ unaligned
 5936 03ac DCF80820 		ldr	r2, [ip, #8]	@ unaligned
 5937 03b0 DCF80C30 		ldr	r3, [ip, #12]	@ unaligned
 5938 03b4 AEE80F00 		stmia	lr!, {r0, r1, r2, r3}
 5939 03b8 1DE7     		b	.L674
 5940              	.L711:
 5941 03ba D646     		mov	lr, r10
 5942 03bc 8068     		ldr	r0, [r0, #8]	@ unaligned
 5943 03be DCF80410 		ldr	r1, [ip, #4]	@ unaligned
 5944 03c2 DCF80820 		ldr	r2, [ip, #8]	@ unaligned
 5945 03c6 DCF80C30 		ldr	r3, [ip, #12]	@ unaligned
 5946 03ca AEE80F00 		stmia	lr!, {r0, r1, r2, r3}
 5947 03ce F0E6     		b	.L671
 5948              	.L646:
 5949 03d0 0AA8     		add	r0, sp, #40
 5950 03d2 0DF13008 		add	r8, sp, #48
 5951 03d6 09F10101 		add	r1, r9, #1
 5952 03da 2D22     		movs	r2, #45
 5953 03dc 0390     		str	r0, [sp, #12]
 5954 03de CDF82880 		str	r8, [sp, #40]
 5955 03e2 FFF7FEFF 		bl	_ZNSt7__cxx1112basic_stringIcSt11char_traitsIcESaIcEE12_M_constructEjc
 5956 03e6 0A9B     		ldr	r3, [sp, #40]
 5957 03e8 0398     		ldr	r0, [sp, #12]
 5958 03ea 9944     		add	r9, r9, r3
 5959 03ec 97E6     		b	.L658
 5960              	.L692:
 5961 03ee 4FF0030A 		mov	r10, #3
 5962 03f2 0421     		movs	r1, #4
 5963 03f4 68E6     		b	.L654
 5964              	.L691:
 5965 03f6 4FF0020A 		mov	r10, #2
 5966 03fa 0321     		movs	r1, #3
 5967 03fc 64E6     		b	.L654
 5968              	.L669:
 5969 03fe 0148     		ldr	r0, .L717
 5970 0400 FFF7FEFF 		bl	_ZSt20__throw_length_errorPKc
 5971              	.L718:
 5972              		.align	2
 5973              	.L717:
 5974 0404 08000000 		.word	.LC72
 5976              		.section	.rodata._ZN12PercentParam17GetFormattedLabelB5cxx11Ev.str1.4,"aMS",%progbits,1
 5977              		.align	2
 5978              	.LC75:
 5979 0000 2500     		.ascii	"%\000"
 5980              		.section	.text._ZN12PercentParam17GetFormattedLabelB5cxx11Ev,"axG",%progbits,_ZN12PercentParam17Ge
 5981              		.align	1
 5982              		.p2align 2,,3
 5983              		.weak	_ZN12PercentParam17GetFormattedLabelB5cxx11Ev
 5984              		.syntax unified
 5985              		.thumb
 5986              		.thumb_func
 5987              		.fpu fpv5-d16
 5989              	_ZN12PercentParam17GetFormattedLabelB5cxx11Ev:
 5990              		@ args = 0, pretend = 0, frame = 168
 5991              		@ frame_needed = 0, uses_anonymous_args = 0
 5992 0000 D1ED037A 		vldr.32	s15, [r1, #12]
 5993 0004 9FEDB97A 		vldr.32	s14, .L769
ARM GAS  /var/folders/sy/x1dkwsgj58j1lmy_hry3vpdm0000gn/T//cch4V49g.s 			page 107


 5994 0008 67EE877A 		vmul.f32	s15, s15, s14
 5995 000c 2DE9F047 		push	{r4, r5, r6, r7, r8, r9, r10, lr}
 5996 0010 FDEEE77A 		vcvt.s32.f32	s15, s15
 5997 0014 B64C     		ldr	r4, .L769+4
 5998 0016 0546     		mov	r5, r0
 5999 0018 6427     		movs	r7, #100
 6000 001a 0E46     		mov	r6, r1
 6001 001c ACB0     		sub	sp, sp, #176
 6002 001e 17EE903A 		vmov	r3, s15	@ int
 6003 0022 096B     		ldr	r1, [r1, #48]
 6004 0024 726B     		ldr	r2, [r6, #52]
 6005 0026 84FB0340 		smull	r4, r0, r4, r3
 6006 002a DC17     		asrs	r4, r3, #31
 6007 002c 0A44     		add	r2, r2, r1
 6008 002e C4EB6014 		rsb	r4, r4, r0, asr #5
 6009 0032 02A8     		add	r0, sp, #8
 6010 0034 07FB1433 		mls	r3, r7, r4, r3
 6011 0038 04AF     		add	r7, sp, #16
 6012 003a 83EAE374 		eor	r4, r3, r3, asr #31
 6013 003e 0297     		str	r7, [sp, #8]
 6014 0040 A4EBE374 		sub	r4, r4, r3, asr #31
 6015 0044 FFF7FEFF 		bl	_ZNSt7__cxx1112basic_stringIcSt11char_traitsIcESaIcEE12_M_constructIPcEEvT_S7_St20forward_itera
 6016 0048 6FF04043 		mvn	r3, #-1073741824
 6017 004c 039A     		ldr	r2, [sp, #12]
 6018 004e 9B1A     		subs	r3, r3, r2
 6019 0050 012B     		cmp	r3, #1
 6020 0052 40F29381 		bls	.L730
 6021 0056 0222     		movs	r2, #2
 6022 0058 A649     		ldr	r1, .L769+8
 6023 005a 02A8     		add	r0, sp, #8
 6024 005c FFF7FEFF 		bl	_ZNSt7__cxx1112basic_stringIcSt11char_traitsIcESaIcEE9_M_appendEPKcj
 6025 0060 D6ED037A 		vldr.32	s15, [r6, #12]
 6026 0064 9FEDA47A 		vldr.32	s14, .L769+12
 6027 0068 08A8     		add	r0, sp, #32
 6028 006a 67EE877A 		vmul.f32	s15, s15, s14
 6029 006e FDEEE77A 		vcvt.s32.f32	s15, s15
 6030 0072 17EE901A 		vmov	r1, s15	@ int
 6031 0076 FFF7FEFF 		bl	_ZNSt7__cxx119to_stringEi
 6032 007a 029B     		ldr	r3, [sp, #8]
 6033 007c 039E     		ldr	r6, [sp, #12]
 6034 007e BB42     		cmp	r3, r7
 6035 0080 099A     		ldr	r2, [sp, #36]
 6036 0082 14BF     		ite	ne
 6037 0084 0499     		ldrne	r1, [sp, #16]
 6038 0086 0F21     		moveq	r1, #15
 6039 0088 B018     		adds	r0, r6, r2
 6040 008a 8842     		cmp	r0, r1
 6041 008c 0899     		ldr	r1, [sp, #32]
 6042 008e 0AD9     		bls	.L724
 6043 0090 0DF1280C 		add	ip, sp, #40
 6044 0094 6145     		cmp	r1, ip
 6045 0096 14BF     		ite	ne
 6046 0098 DDF828C0 		ldrne	ip, [sp, #40]
 6047 009c 4FF00F0C 		moveq	ip, #15
 6048 00a0 6045     		cmp	r0, ip
 6049 00a2 40F2EC80 		bls	.L761
 6050              	.L724:
ARM GAS  /var/folders/sy/x1dkwsgj58j1lmy_hry3vpdm0000gn/T//cch4V49g.s 			page 108


 6051 00a6 02A8     		add	r0, sp, #8
 6052 00a8 0DF14008 		add	r8, sp, #64
 6053 00ac FFF7FEFF 		bl	_ZNSt7__cxx1112basic_stringIcSt11char_traitsIcESaIcEE9_M_appendEPKcj
 6054 00b0 0646     		mov	r6, r0
 6055 00b2 CDF83880 		str	r8, [sp, #56]
 6056 00b6 8446     		mov	ip, r0
 6057 00b8 56F8083B 		ldr	r3, [r6], #8
 6058 00bc B342     		cmp	r3, r6
 6059 00be 00F04A81 		beq	.L762
 6060 00c2 0E93     		str	r3, [sp, #56]
 6061 00c4 8368     		ldr	r3, [r0, #8]
 6062 00c6 1093     		str	r3, [sp, #64]
 6063              	.L729:
 6064 00c8 DCF80430 		ldr	r3, [ip, #4]
 6065 00cc 0F93     		str	r3, [sp, #60]
 6066 00ce 0023     		movs	r3, #0
 6067 00d0 CCF80060 		str	r6, [ip]
 6068 00d4 CCF80430 		str	r3, [ip, #4]
 6069 00d8 8CF80830 		strb	r3, [ip, #8]
 6070              	.L727:
 6071 00dc 0F9A     		ldr	r2, [sp, #60]
 6072 00de 6FF04043 		mvn	r3, #-1073741824
 6073 00e2 9A42     		cmp	r2, r3
 6074 00e4 00F04A81 		beq	.L730
 6075 00e8 0122     		movs	r2, #1
 6076 00ea 8449     		ldr	r1, .L769+16
 6077 00ec 0EA8     		add	r0, sp, #56
 6078 00ee 16AE     		add	r6, sp, #88
 6079 00f0 FFF7FEFF 		bl	_ZNSt7__cxx1112basic_stringIcSt11char_traitsIcESaIcEE9_M_appendEPKcj
 6080 00f4 8646     		mov	lr, r0
 6081 00f6 1496     		str	r6, [sp, #80]
 6082 00f8 8446     		mov	ip, r0
 6083 00fa 5EF8083B 		ldr	r3, [lr], #8
